00401000 55              push    ebp
00401001 8bec            mov     ebp,esp
00401003 51              push    ecx
00401004 a15c1b4100      mov     eax,dword ptr [image00400000+0x11b5c (00411b5c)]
00401009 85c0            test    eax,eax
0040100b 7555            jne     image00400000+0x1062 (00401062)
0040100d 64a130000000    mov     eax,dword ptr fs:[00000030h]
00401013 56              push    esi
00401014 57              push    edi
00401015 8b780c          mov     edi,dword ptr [eax+0Ch]
00401018 8b770c          mov     esi,dword ptr [edi+0Ch]
0040101b 83c70c          add     edi,0Ch
0040101e 897dfc          mov     dword ptr [ebp-4],edi
00401021 53              push    ebx
00401022 0fb7562c        movzx   edx,word ptr [esi+2Ch]
00401026 8b4e30          mov     ecx,dword ptr [esi+30h]
00401029 83c8ff          or      eax,0FFFFFFFFh
0040102c 85d2            test    edx,edx
0040102e 741e            je      image00400000+0x104e (0040104e)
00401030 0fb619          movzx   ebx,byte ptr [ecx]
00401033 8bf8            mov     edi,eax
00401035 81e7ff000000    and     edi,0FFh
0040103b 33fb            xor     edi,ebx
0040103d c1e808          shr     eax,8
00401040 3304bd00ea4000  xor     eax,dword ptr image00400000+0xea00 (0040ea00)[edi*4]
00401047 41              inc     ecx
00401048 4a              dec     edx
00401049 75e5            jne     image00400000+0x1030 (00401030)
0040104b 8b7dfc          mov     edi,dword ptr [ebp-4]
0040104e f7d0            not     eax
00401050 3d777e7926      cmp     eax,26797E77h
00401055 740f            je      image00400000+0x1066 (00401066)
00401057 8b36            mov     esi,dword ptr [esi]
00401059 3bf7            cmp     esi,edi
0040105b 75c5            jne     image00400000+0x1022 (00401022)
0040105d 5b              pop     ebx
0040105e 5f              pop     edi
0040105f 33c0            xor     eax,eax
00401061 5e              pop     esi
00401062 8be5            mov     esp,ebp
00401064 5d              pop     ebp
00401065 c3              ret
00401066 8b4618          mov     eax,dword ptr [esi+18h]
00401069 5b              pop     ebx
0040106a 5f              pop     edi
0040106b a35c1b4100      mov     dword ptr [image00400000+0x11b5c (00411b5c)],eax
00401070 5e              pop     esi
00401071 8be5            mov     esp,ebp
00401073 5d              pop     ebp
00401074 c3              ret
00401075 cc              int     3
00401076 cc              int     3
00401077 cc              int     3
00401078 cc              int     3
00401079 cc              int     3
0040107a cc              int     3
0040107b cc              int     3
0040107c cc              int     3
0040107d cc              int     3
0040107e cc              int     3
0040107f cc              int     3
00401080 55              push    ebp
00401081 8bec            mov     ebp,esp
00401083 81ec04020000    sub     esp,204h
00401089 a104004100      mov     eax,dword ptr [image00400000+0x10004 (00410004)]
0040108e 33c5            xor     eax,ebp
00401090 8945fc          mov     dword ptr [ebp-4],eax
00401093 8b4508          mov     eax,dword ptr [ebp+8]
00401096 50              push    eax
00401097 6800ee4000      push    offset image00400000+0xee00 (0040ee00)
0040109c 8d95fcfdffff    lea     edx,[ebp-204h]
004010a2 e839140000      call    image00400000+0x24e0 (004024e0)
004010a7 83c408          add     esp,8
004010aa 6a10            push    10h
004010ac 6818ee4000      push    offset image00400000+0xee18 (0040ee18)
004010b1 8d8dfcfdffff    lea     ecx,[ebp-204h]
004010b7 51              push    ecx
004010b8 56              push    esi
004010b9 ff1574d14000    call    dword ptr [image00400000+0xd174 (0040d174)]
004010bf 8b4dfc          mov     ecx,dword ptr [ebp-4]
004010c2 33cd            xor     ecx,ebp
004010c4 e832140000      call    image00400000+0x24fb (004024fb)
004010c9 8be5            mov     esp,ebp
004010cb 5d              pop     ebp
004010cc c3              ret
004010cd cc              int     3
004010ce cc              int     3
004010cf cc              int     3
004010d0 55              push    ebp
004010d1 8bec            mov     ebp,esp
004010d3 8b463c          mov     eax,dword ptr [esi+3Ch]
004010d6 8b443078        mov     eax,dword ptr [eax+esi+78h]
004010da 83ec14          sub     esp,14h
004010dd 85c0            test    eax,eax
004010df 7504            jne     image00400000+0x10e5 (004010e5)
004010e1 8be5            mov     esp,ebp
004010e3 5d              pop     ebp
004010e4 c3              ret
004010e5 8b4c301c        mov     ecx,dword ptr [eax+esi+1Ch]
004010e9 03ce            add     ecx,esi
004010eb 894dec          mov     dword ptr [ebp-14h],ecx
004010ee 8b4c3024        mov     ecx,dword ptr [eax+esi+24h]
004010f2 03ce            add     ecx,esi
004010f4 894df0          mov     dword ptr [ebp-10h],ecx
004010f7 8b4c3020        mov     ecx,dword ptr [eax+esi+20h]
004010fb 8b443014        mov     eax,dword ptr [eax+esi+14h]
004010ff 53              push    ebx
00401100 57              push    edi
00401101 03ce            add     ecx,esi
00401103 33ff            xor     edi,edi
00401105 894df8          mov     dword ptr [ebp-8],ecx
00401108 897dfc          mov     dword ptr [ebp-4],edi
0040110b 8945f4          mov     dword ptr [ebp-0Ch],eax
0040110e 85c0            test    eax,eax
00401110 7509            jne     image00400000+0x111b (0040111b)
00401112 5f              pop     edi
00401113 5b              pop     ebx
00401114 8be5            mov     esp,ebp
00401116 5d              pop     ebp
00401117 c3              ret
00401118 8b4df8          mov     ecx,dword ptr [ebp-8]
0040111b 8b14b9          mov     edx,dword ptr [ecx+edi*4]
0040111e 03d6            add     edx,esi
00401120 8bc2            mov     eax,edx
00401122 8d5801          lea     ebx,[eax+1]
00401125 8a08            mov     cl,byte ptr [eax]
00401127 40              inc     eax
00401128 84c9            test    cl,cl
0040112a 75f9            jne     image00400000+0x1125 (00401125)
0040112c 2bc3            sub     eax,ebx
0040112e b9ffffffff      mov     ecx,0FFFFFFFFh
00401133 741e            je      image00400000+0x1153 (00401153)
00401135 0fb61a          movzx   ebx,byte ptr [edx]
00401138 8bf9            mov     edi,ecx
0040113a 81e7ff000000    and     edi,0FFh
00401140 33fb            xor     edi,ebx
00401142 c1e908          shr     ecx,8
00401145 330cbd00ea4000  xor     ecx,dword ptr image00400000+0xea00 (0040ea00)[edi*4]
0040114c 42              inc     edx
0040114d 48              dec     eax
0040114e 75e5            jne     image00400000+0x1135 (00401135)
00401150 8b7dfc          mov     edi,dword ptr [ebp-4]
00401153 f7d1            not     ecx
00401155 394d08          cmp     dword ptr [ebp+8],ecx
00401158 7411            je      image00400000+0x116b (0040116b)
0040115a 47              inc     edi
0040115b 897dfc          mov     dword ptr [ebp-4],edi
0040115e 3b7df4          cmp     edi,dword ptr [ebp-0Ch]
00401161 72b5            jb      image00400000+0x1118 (00401118)
00401163 5f              pop     edi
00401164 33c0            xor     eax,eax
00401166 5b              pop     ebx
00401167 8be5            mov     esp,ebp
00401169 5d              pop     ebp
0040116a c3              ret
0040116b 8b4df0          mov     ecx,dword ptr [ebp-10h]
0040116e 0fb71479        movzx   edx,word ptr [ecx+edi*2]
00401172 8b45ec          mov     eax,dword ptr [ebp-14h]
00401175 8b0490          mov     eax,dword ptr [eax+edx*4]
00401178 5f              pop     edi
00401179 03c6            add     eax,esi
0040117b 5b              pop     ebx
0040117c 8be5            mov     esp,ebp
0040117e 5d              pop     ebp
0040117f c3              ret
00401180 55              push    ebp
00401181 8bec            mov     ebp,esp
00401183 81ec14020000    sub     esp,214h
00401189 a104004100      mov     eax,dword ptr [image00400000+0x10004 (00410004)]
0040118e 33c5            xor     eax,ebp
00401190 8945fc          mov     dword ptr [ebp-4],eax
00401193 56              push    esi
00401194 e867feffff      call    image00400000+0x1000 (00401000)
00401199 8bf0            mov     esi,eax
0040119b 85f6            test    esi,esi
0040119d 753b            jne     image00400000+0x11da (004011da)
0040119f 6a01            push    1
004011a1 6800ee4000      push    offset image00400000+0xee00 (0040ee00)
004011a6 8d95f8fdffff    lea     edx,[ebp-208h]
004011ac e82f130000      call    image00400000+0x24e0 (004024e0)
004011b1 83c408          add     esp,8
004011b4 6a10            push    10h
004011b6 6818ee4000      push    offset image00400000+0xee18 (0040ee18)
004011bb 8d85f8fdffff    lea     eax,[ebp-208h]
004011c1 50              push    eax
004011c2 53              push    ebx
004011c3 ff1574d14000    call    dword ptr [image00400000+0xd174 (0040d174)]
004011c9 33c0            xor     eax,eax
004011cb 5e              pop     esi
004011cc 8b4dfc          mov     ecx,dword ptr [ebp-4]
004011cf 33cd            xor     ecx,ebp
004011d1 e825130000      call    image00400000+0x24fb (004024fb)
004011d6 8be5            mov     esp,ebp
004011d8 5d              pop     ebp
004011d9 c3              ret
004011da a1601b4100      mov     eax,dword ptr [image00400000+0x11b60 (00411b60)]
004011df 85c0            test    eax,eax
004011e1 757f            jne     image00400000+0x1262 (00401262)
004011e3 68ee134cb6      push    0B64C13EEh
004011e8 e8e3feffff      call    image00400000+0x10d0 (004010d0)
004011ed 83c404          add     esp,4
004011f0 85c0            test    eax,eax
004011f2 753b            jne     image00400000+0x122f (0040122f)
004011f4 6a02            push    2
004011f6 6800ee4000      push    offset image00400000+0xee00 (0040ee00)
004011fb 8d95f8fdffff    lea     edx,[ebp-208h]
00401201 e8da120000      call    image00400000+0x24e0 (004024e0)
00401206 83c408          add     esp,8
00401209 6a10            push    10h
0040120b 6818ee4000      push    offset image00400000+0xee18 (0040ee18)
00401210 8d8df8fdffff    lea     ecx,[ebp-208h]
00401216 51              push    ecx
00401217 53              push    ebx
00401218 ff1574d14000    call    dword ptr [image00400000+0xd174 (0040d174)]
0040121e 33c0            xor     eax,eax
00401220 5e              pop     esi
00401221 8b4dfc          mov     ecx,dword ptr [ebp-4]
00401224 33cd            xor     ecx,ebp
00401226 e8d0120000      call    image00400000+0x24fb (004024fb)
0040122b 8be5            mov     esp,ebp
0040122d 5d              pop     ebp
0040122e c3              ret
0040122f 68f2793618      push    183679F2h
00401234 e897feffff      call    image00400000+0x10d0 (004010d0)
00401239 83c404          add     esp,4
0040123c a3601b4100      mov     dword ptr [image00400000+0x11b60 (00411b60)],eax
00401241 85c0            test    eax,eax
00401243 751d            jne     image00400000+0x1262 (00401262)
00401245 6a01            push    1
00401247 8bf3            mov     esi,ebx
00401249 e832feffff      call    image00400000+0x1080 (00401080)
0040124e 83c404          add     esp,4
00401251 33c0            xor     eax,eax
00401253 5e              pop     esi
00401254 8b4dfc          mov     ecx,dword ptr [ebp-4]
00401257 33cd            xor     ecx,ebp
00401259 e89d120000      call    image00400000+0x24fb (004024fb)
0040125e 8be5            mov     esp,ebp
00401260 5d              pop     ebp
00401261 c3              ret
00401262 8bcf            mov     ecx,edi
00401264 89bdf0fdffff    mov     dword ptr [ebp-210h],edi
0040126a 8d7102          lea     esi,[ecx+2]
0040126d 8d4900          lea     ecx,[ecx]
00401270 668b11          mov     dx,word ptr [ecx]
00401273 83c102          add     ecx,2
00401276 6685d2          test    dx,dx
00401279 75f5            jne     image00400000+0x1270 (00401270)
0040127b 2bce            sub     ecx,esi
0040127d d1f9            sar     ecx,1
0040127f 8d1409          lea     edx,[ecx+ecx]
00401282 668995ecfdffff  mov     word ptr [ebp-214h],dx
00401289 8b8decfdffff    mov     ecx,dword ptr [ebp-214h]
0040128f 83c102          add     ecx,2
00401292 8d95f4fdffff    lea     edx,[ebp-20Ch]
00401298 52              push    edx
00401299 66898deefdffff  mov     word ptr [ebp-212h],cx
004012a0 8d8decfdffff    lea     ecx,[ebp-214h]
004012a6 51              push    ecx
004012a7 6a00            push    0
004012a9 6a00            push    0
004012ab c785f4fdffff00000000 mov dword ptr [ebp-20Ch],0
004012b5 ffd0            call    eax
004012b7 8b4dfc          mov     ecx,dword ptr [ebp-4]
004012ba 33d2            xor     edx,edx
004012bc 85c0            test    eax,eax
004012be 0f98c2          sets    dl
004012c1 33cd            xor     ecx,ebp
004012c3 5e              pop     esi
004012c4 8d42ff          lea     eax,[edx-1]
004012c7 2385f4fdffff    and     eax,dword ptr [ebp-20Ch]
004012cd e829120000      call    image00400000+0x24fb (004024fb)
004012d2 8be5            mov     esp,ebp
004012d4 5d              pop     ebp
004012d5 c3              ret
004012d6 cc              int     3
004012d7 cc              int     3
004012d8 cc              int     3
004012d9 cc              int     3
004012da cc              int     3
004012db cc              int     3
004012dc cc              int     3
004012dd cc              int     3
004012de cc              int     3
004012df cc              int     3
004012e0 55              push    ebp
004012e1 8bec            mov     ebp,esp
004012e3 81ec68020000    sub     esp,268h
004012e9 a104004100      mov     eax,dword ptr [image00400000+0x10004 (00410004)]
004012ee 33c5            xor     eax,ebp
004012f0 8945f8          mov     dword ptr [ebp-8],eax
004012f3 8b4508          mov     eax,dword ptr [ebp+8]
004012f6 53              push    ebx
004012f7 56              push    esi
004012f8 57              push    edi
004012f9 684c020000      push    24Ch
004012fe 8d8da8fdffff    lea     ecx,[ebp-258h]
00401304 6a00            push    0
00401306 51              push    ecx
00401307 8985a0fdffff    mov     dword ptr [ebp-260h],eax
0040130d c785a4fdffff00000000 mov dword ptr [ebp-25Ch],0
00401317 e8a4780000      call    image00400000+0x8bc0 (00408bc0)
0040131c 83c40c          add     esp,0Ch
0040131f 8d95a4fdffff    lea     edx,[ebp-25Ch]
00401325 52              push    edx
00401326 6824ee4000      push    offset image00400000+0xee24 (0040ee24)
0040132b ff1580d04000    call    dword ptr [image00400000+0xd080 (0040d080)]
00401331 8bf8            mov     edi,eax
00401333 89bd9cfdffff    mov     dword ptr [ebp-264h],edi
00401339 83ffff          cmp     edi,0FFFFFFFFh
0040133c 0f8483000000    je      image00400000+0x13c5 (004013c5)
00401342 8d85d0fdffff    lea     eax,[ebp-230h]
00401348 50              push    eax
00401349 e8a7170000      call    image00400000+0x2af5 (00402af5)
0040134e 8d85d0fdffff    lea     eax,[ebp-230h]
00401354 83c404          add     esp,4
00401357 8d5002          lea     edx,[eax+2]
0040135a 8d9b00000000    lea     ebx,[ebx]
00401360 668b08          mov     cx,word ptr [eax]
00401363 83c002          add     eax,2
00401366 6685c9          test    cx,cx
00401369 75f5            jne     image00400000+0x1360 (00401360)
0040136b 2bc2            sub     eax,edx
0040136d d1f8            sar     eax,1
0040136f 8bf0            mov     esi,eax
00401371 83c8ff          or      eax,0FFFFFFFFh
00401374 8bd6            mov     edx,esi
00401376 8d8dd0fdffff    lea     ecx,[ebp-230h]
0040137c 85f6            test    esi,esi
0040137e 7423            je      image00400000+0x13a3 (004013a3)
00401380 0fb619          movzx   ebx,byte ptr [ecx]
00401383 8bf8            mov     edi,eax
00401385 81e7ff000000    and     edi,0FFh
0040138b 33fb            xor     edi,ebx
0040138d c1e808          shr     eax,8
00401390 3304bd00ea4000  xor     eax,dword ptr image00400000+0xea00 (0040ea00)[edi*4]
00401397 83c102          add     ecx,2
0040139a 4a              dec     edx
0040139b 75e3            jne     image00400000+0x1380 (00401380)
0040139d 8bbd9cfdffff    mov     edi,dword ptr [ebp-264h]
004013a3 f7d0            not     eax
004013a5 3d00003735      cmp     eax,35370000h
004013aa 742c            je      image00400000+0x13d8 (004013d8)
004013ac 8d8da4fdffff    lea     ecx,[ebp-25Ch]
004013b2 51              push    ecx
004013b3 57              push    edi
004013b4 ff1564d04000    call    dword ptr [image00400000+0xd064 (0040d064)]
004013ba 85c0            test    eax,eax
004013bc 7584            jne     image00400000+0x1342 (00401342)
004013be 57              push    edi
004013bf ff156cd04000    call    dword ptr [image00400000+0xd06c (0040d06c)]
004013c5 33c0            xor     eax,eax
004013c7 5f              pop     edi
004013c8 5e              pop     esi
004013c9 5b              pop     ebx
004013ca 8b4df8          mov     ecx,dword ptr [ebp-8]
004013cd 33cd            xor     ecx,ebp
004013cf e827110000      call    image00400000+0x24fb (004024fb)
004013d4 8be5            mov     esp,ebp
004013d6 5d              pop     ebp
004013d7 c3              ret
004013d8 57              push    edi
004013d9 ff156cd04000    call    dword ptr [image00400000+0xd06c (0040d06c)]
004013df 8d5602          lea     edx,[esi+2]
004013e2 81fa04010000    cmp     edx,104h
004013e8 77db            ja      image00400000+0x13c5 (004013c5)
004013ea 8b9da0fdffff    mov     ebx,dword ptr [ebp-260h]
004013f0 b82e000000      mov     eax,2Eh
004013f5 33c9            xor     ecx,ecx
004013f7 8dbdd0fdffff    lea     edi,[ebp-230h]
004013fd 66898475d0fdffff mov     word ptr [ebp+esi*2-230h],ax
00401405 66898c75d2fdffff mov     word ptr [ebp+esi*2-22Eh],cx
0040140d e86efdffff      call    image00400000+0x1180 (00401180)
00401412 8b4df8          mov     ecx,dword ptr [ebp-8]
00401415 5f              pop     edi
00401416 5e              pop     esi
00401417 33cd            xor     ecx,ebp
00401419 5b              pop     ebx
0040141a e8dc100000      call    image00400000+0x24fb (004024fb)
0040141f 8be5            mov     esp,ebp
00401421 5d              pop     ebp
00401422 c3              ret
00401423 cc              int     3
00401424 cc              int     3
00401425 cc              int     3
00401426 cc              int     3
00401427 cc              int     3
00401428 cc              int     3
00401429 cc              int     3
0040142a cc              int     3
0040142b cc              int     3
0040142c cc              int     3
0040142d cc              int     3
0040142e cc              int     3
0040142f cc              int     3
00401430 55              push    ebp
00401431 8bec            mov     ebp,esp
00401433 81ecd8000000    sub     esp,0D8h
00401439 a104004100      mov     eax,dword ptr [image00400000+0x10004 (00410004)]
0040143e 33c5            xor     eax,ebp
00401440 8945f8          mov     dword ptr [ebp-8],eax
00401443 8b4508          mov     eax,dword ptr [ebp+8]
00401446 53              push    ebx
00401447 56              push    esi
00401448 57              push    edi
00401449 68ea030000      push    3EAh
0040144e 50              push    eax
0040144f ff1568d14000    call    dword ptr [image00400000+0xd168 (0040d168)]
00401455 8bf0            mov     esi,eax
00401457 897594          mov     dword ptr [ebp-6Ch],esi
0040145a 85f6            test    esi,esi
0040145c 0f8459060000    je      image00400000+0x1abb (00401abb)
00401462 8d45e8          lea     eax,[ebp-18h]
00401465 50              push    eax
00401466 56              push    esi
00401467 ff1558d14000    call    dword ptr [image00400000+0xd158 (0040d158)]
0040146d 8b7df0          mov     edi,dword ptr [ebp-10h]
00401470 8b5df4          mov     ebx,dword ptr [ebp-0Ch]
00401473 2b7de8          sub     edi,dword ptr [ebp-18h]
00401476 2b5dec          sub     ebx,dword ptr [ebp-14h]
00401479 56              push    esi
0040147a 897dac          mov     dword ptr [ebp-54h],edi
0040147d 899d68ffffff    mov     dword ptr [ebp-98h],ebx
00401483 ff1560d14000    call    dword ptr [image00400000+0xd160 (0040d160)]
00401489 8bf0            mov     esi,eax
0040148b 89b574ffffff    mov     dword ptr [ebp-8Ch],esi
00401491 85f6            test    esi,esi
00401493 0f8422060000    je      image00400000+0x1abb (00401abb)
00401499 803d691b410000  cmp     byte ptr [image00400000+0x11b69 (00411b69)],0
004014a0 7542            jne     image00400000+0x14e4 (004014e4)
004014a2 6a00            push    0
004014a4 6a00            push    0
004014a6 56              push    esi
004014a7 ff152cd04000    call    dword ptr [image00400000+0xd02c (0040d02c)]
004014ad 33c9            xor     ecx,ecx
004014af 85c0            test    eax,eax
004014b1 0f95c1          setne   cl
004014b4 33d2            xor     edx,edx
004014b6 83f8ff          cmp     eax,0FFFFFFFFh
004014b9 0f95c2          setne   dl
004014bc 85ca            test    edx,ecx
004014be 751b            jne     image00400000+0x14db (004014db)
004014c0 6a32            push    32h
004014c2 ff1578d04000    call    dword ptr [image00400000+0xd078 (0040d078)]
004014c8 803d691b410000  cmp     byte ptr [image00400000+0x11b69 (00411b69)],0
004014cf 74d1            je      image00400000+0x14a2 (004014a2)
004014d1 8b4594          mov     eax,dword ptr [ebp-6Ch]
004014d4 56              push    esi
004014d5 50              push    eax
004014d6 e9da050000      jmp     image00400000+0x1ab5 (00401ab5)
004014db 803d691b410000  cmp     byte ptr [image00400000+0x11b69 (00411b69)],0
004014e2 740a            je      image00400000+0x14ee (004014ee)
004014e4 8b4594          mov     eax,dword ptr [ebp-6Ch]
004014e7 56              push    esi
004014e8 50              push    eax
004014e9 e9c7050000      jmp     image00400000+0x1ab5 (00401ab5)
004014ee 56              push    esi
004014ef ff1520d04000    call    dword ptr [image00400000+0xd020 (0040d020)]
004014f5 53              push    ebx
004014f6 57              push    edi
004014f7 56              push    esi
004014f8 8945b4          mov     dword ptr [ebp-4Ch],eax
004014fb ff1524d04000    call    dword ptr [image00400000+0xd024 (0040d024)]
00401501 56              push    esi
00401502 8945b0          mov     dword ptr [ebp-50h],eax
00401505 ff1520d04000    call    dword ptr [image00400000+0xd020 (0040d020)]
0040150b 53              push    ebx
0040150c 57              push    edi
0040150d 56              push    esi
0040150e 8945a4          mov     dword ptr [ebp-5Ch],eax
00401511 ff1524d04000    call    dword ptr [image00400000+0xd024 (0040d024)]
00401517 8b4db4          mov     ecx,dword ptr [ebp-4Ch]
0040151a 8945a0          mov     dword ptr [ebp-60h],eax
0040151d 85c9            test    ecx,ecx
0040151f 0f8463050000    je      image00400000+0x1a88 (00401a88)
00401525 8b55b0          mov     edx,dword ptr [ebp-50h]
00401528 85d2            test    edx,edx
0040152a 0f844e050000    je      image00400000+0x1a7e (00401a7e)
00401530 837da400        cmp     dword ptr [ebp-5Ch],0
00401534 0f8444050000    je      image00400000+0x1a7e (00401a7e)
0040153a 85c0            test    eax,eax
0040153c 0f843c050000    je      image00400000+0x1a7e (00401a7e)
00401542 52              push    edx
00401543 51              push    ecx
00401544 ff151cd04000    call    dword ptr [image00400000+0xd01c (0040d01c)]
0040154a 8b4da0          mov     ecx,dword ptr [ebp-60h]
0040154d 8b55a4          mov     edx,dword ptr [ebp-5Ch]
00401550 51              push    ecx
00401551 52              push    edx
00401552 ff151cd04000    call    dword ptr [image00400000+0xd01c (0040d01c)]
00401558 8b45b4          mov     eax,dword ptr [ebp-4Ch]
0040155b 682000cc00      push    0CC0020h
00401560 6a00            push    0
00401562 6a00            push    0
00401564 56              push    esi
00401565 53              push    ebx
00401566 57              push    edi
00401567 6a00            push    0
00401569 6a00            push    0
0040156b 50              push    eax
0040156c ff1534d04000    call    dword ptr [image00400000+0xd034 (0040d034)]
00401572 33c0            xor     eax,eax
00401574 89853cffffff    mov     dword ptr [ebp-0C4h],eax
0040157a 898530ffffff    mov     dword ptr [ebp-0D0h],eax
00401580 898534ffffff    mov     dword ptr [ebp-0CCh],eax
00401586 898538ffffff    mov     dword ptr [ebp-0C8h],eax
0040158c 898540ffffff    mov     dword ptr [ebp-0C0h],eax
00401592 898544ffffff    mov     dword ptr [ebp-0BCh],eax
00401598 898548ffffff    mov     dword ptr [ebp-0B8h],eax
0040159e 89854cffffff    mov     dword ptr [ebp-0B4h],eax
004015a4 898550ffffff    mov     dword ptr [ebp-0B0h],eax
004015aa 898554ffffff    mov     dword ptr [ebp-0ACh],eax
004015b0 8d4801          lea     ecx,[eax+1]
004015b3 89853cffffff    mov     dword ptr [ebp-0C4h],eax
004015b9 8bc7            mov     eax,edi
004015bb c1e005          shl     eax,5
004015be 83c01f          add     eax,1Fh
004015c1 99              cdq
004015c2 83e21f          and     edx,1Fh
004015c5 899d34ffffff    mov     dword ptr [ebp-0CCh],ebx
004015cb 03c2            add     eax,edx
004015cd c1f805          sar     eax,5
004015d0 43              inc     ebx
004015d1 0fafd8          imul    ebx,eax
004015d4 89bd30ffffff    mov     dword ptr [ebp-0D0h],edi
004015da 8bf8            mov     edi,eax
004015dc 69ff94010000    imul    edi,edi,194h
004015e2 03db            add     ebx,ebx
004015e4 03db            add     ebx,ebx
004015e6 53              push    ebx
004015e7 c7852cffffff28000000 mov dword ptr [ebp-0D4h],28h
004015f1 c78538ffffff01002000 mov dword ptr [ebp-0C8h],200001h
004015fb 89857cffffff    mov     dword ptr [ebp-84h],eax
00401601 89bd64ffffff    mov     dword ptr [ebp-9Ch],edi
00401607 e84c100000      call    image00400000+0x2658 (00402658)
0040160c 8bd8            mov     ebx,eax
0040160e 57              push    edi
0040160f 899d60ffffff    mov     dword ptr [ebp-0A0h],ebx
00401615 e83e100000      call    image00400000+0x2658 (00402658)
0040161a 57              push    edi
0040161b 89459c          mov     dword ptr [ebp-64h],eax
0040161e e835100000      call    image00400000+0x2658 (00402658)
00401623 83c40c          add     esp,0Ch
00401626 8bf8            mov     edi,eax
00401628 897d84          mov     dword ptr [ebp-7Ch],edi
0040162b 85db            test    ebx,ebx
0040162d 0f8403040000    je      image00400000+0x1a36 (00401a36)
00401633 8b559c          mov     edx,dword ptr [ebp-64h]
00401636 85d2            test    edx,edx
00401638 0f84f5030000    je      image00400000+0x1a33 (00401a33)
0040163e 803d691b410000  cmp     byte ptr [image00400000+0x11b69 (00411b69)],0
00401645 8a0d681b4100    mov     cl,byte ptr [image00400000+0x11b68 (00411b68)]
0040164b c645bb01        mov     byte ptr [ebp-45h],1
0040164f c645ba01        mov     byte ptr [ebp-46h],1
00401653 884db9          mov     byte ptr [ebp-47h],cl
00401656 0f859b030000    jne     image00400000+0x19f7 (004019f7)
0040165c 8b857cffffff    mov     eax,dword ptr [ebp-84h]
00401662 03c0            add     eax,eax
00401664 03c0            add     eax,eax
00401666 8d3418          lea     esi,[eax+ebx]
00401669 03c2            add     eax,edx
0040166b 89b55cffffff    mov     dword ptr [ebp-0A4h],esi
00401671 898558ffffff    mov     dword ptr [ebp-0A8h],eax
00401677 eb0d            jmp     image00400000+0x1686 (00401686)
00401679 8da42400000000  lea     esp,[esp]
00401680 8a0d681b4100    mov     cl,byte ptr [image00400000+0x11b68 (00411b68)]
00401686 384db9          cmp     byte ptr [ebp-47h],cl
00401689 7407            je      image00400000+0x1692 (00401692)
0040168b c645bb01        mov     byte ptr [ebp-45h],1
0040168f 884db9          mov     byte ptr [ebp-47h],cl
00401692 8b55b0          mov     edx,dword ptr [ebp-50h]
00401695 6a00            push    0
00401697 8d45bc          lea     eax,[ebp-44h]
0040169a 50              push    eax
0040169b 8b45b4          mov     eax,dword ptr [ebp-4Ch]
0040169e 53              push    ebx
0040169f b90b000000      mov     ecx,0Bh
004016a4 8db52cffffff    lea     esi,[ebp-0D4h]
004016aa 8d7dbc          lea     edi,[ebp-44h]
004016ad f3a5            rep movs dword ptr es:[edi],dword ptr [esi]
004016af 8b8d68ffffff    mov     ecx,dword ptr [ebp-98h]
004016b5 51              push    ecx
004016b6 6a00            push    0
004016b8 52              push    edx
004016b9 50              push    eax
004016ba ff1510d04000    call    dword ptr [image00400000+0xd010 (0040d010)]
004016c0 807dbb00        cmp     byte ptr [ebp-45h],0
004016c4 0f84cb000000    je      image00400000+0x1795 (00401795)
004016ca 807dba00        cmp     byte ptr [ebp-46h],0
004016ce 7418            je      image00400000+0x16e8 (004016e8)
004016d0 8b8d64ffffff    mov     ecx,dword ptr [ebp-9Ch]
004016d6 8b5584          mov     edx,dword ptr [ebp-7Ch]
004016d9 51              push    ecx
004016da 53              push    ebx
004016db 52              push    edx
004016dc e85f750000      call    image00400000+0x8c40 (00408c40)
004016e1 83c40c          add     esp,0Ch
004016e4 c645ba00        mov     byte ptr [ebp-46h],0
004016e8 8b8564ffffff    mov     eax,dword ptr [ebp-9Ch]
004016ee 8b4d84          mov     ecx,dword ptr [ebp-7Ch]
004016f1 8b559c          mov     edx,dword ptr [ebp-64h]
004016f4 50              push    eax
004016f5 51              push    ecx
004016f6 52              push    edx
004016f7 e844750000      call    image00400000+0x8c40 (00408c40)
004016fc 8b75ac          mov     esi,dword ptr [ebp-54h]
004016ff 33c0            xor     eax,eax
00401701 8903            mov     dword ptr [ebx],eax
00401703 894304          mov     dword ptr [ebx+4],eax
00401706 894308          mov     dword ptr [ebx+8],eax
00401709 8944b3f4        mov     dword ptr [ebx+esi*4-0Ch],eax
0040170d 8944b3f8        mov     dword ptr [ebx+esi*4-8],eax
00401711 8944b3fc        mov     dword ptr [ebx+esi*4-4],eax
00401715 8d46fc          lea     eax,[esi-4]
00401718 83c40c          add     esp,0Ch
0040171b c645bb00        mov     byte ptr [ebp-45h],0
0040171f 83f803          cmp     eax,3
00401722 7e74            jle     image00400000+0x1798 (00401798)
00401724 83c0fd          add     eax,0FFFFFFFDh
00401727 8d7b10          lea     edi,[ebx+10h]
0040172a 8945a8          mov     dword ptr [ebp-58h],eax
0040172d 8d4900          lea     ecx,[ecx]
00401730 e855110000      call    image00400000+0x288a (0040288a)
00401735 2501000080      and     eax,80000001h
0040173a 7905            jns     image00400000+0x1741 (00401741)
0040173c 48              dec     eax
0040173d 83c8fe          or      eax,0FFFFFFFEh
00401740 40              inc     eax
00401741 7448            je      image00400000+0x178b (0040178b)
00401743 a1641b4100      mov     eax,dword ptr [image00400000+0x11b64 (00411b64)]
00401748 85c0            test    eax,eax
0040174a 7432            je      image00400000+0x177e (0040177e)
0040174c 803d681b410000  cmp     byte ptr [image00400000+0x11b68 (00411b68)],0
00401753 7429            je      image00400000+0x177e (0040177e)
00401755 ffd0            call    eax
00401757 894598          mov     dword ptr [ebp-68h],eax
0040175a ff1574d04000    call    dword ptr [image00400000+0xd074 (0040d074)]
00401760 2b4598          sub     eax,dword ptr [ebp-68h]
00401763 83f810          cmp     eax,10h
00401766 7323            jae     image00400000+0x178b (0040178b)
00401768 c747fc00ffff00  mov     dword ptr [edi-4],0FFFF00h
0040176f c70700000000    mov     dword ptr [edi],0
00401775 c747040080ff00  mov     dword ptr [edi+4],0FF8000h
0040177c eb0d            jmp     image00400000+0x178b (0040178b)
0040177e c747fc00000000  mov     dword ptr [edi-4],0
00401785 c707ffffff00    mov     dword ptr [edi],0FFFFFFh
0040178b 83c704          add     edi,4
0040178e ff4da8          dec     dword ptr [ebp-58h]
00401791 759d            jne     image00400000+0x1730 (00401730)
00401793 eb03            jmp     image00400000+0x1798 (00401798)
00401795 8b75ac          mov     esi,dword ptr [ebp-54h]
00401798 8b857cffffff    mov     eax,dword ptr [ebp-84h]
0040179e 8b8d5cffffff    mov     ecx,dword ptr [ebp-0A4h]
004017a4 8b9558ffffff    mov     edx,dword ptr [ebp-0A8h]
004017aa 894588          mov     dword ptr [ebp-78h],eax
004017ad c7458c00000000  mov     dword ptr [ebp-74h],0
004017b4 bf64000000      mov     edi,64h
004017b9 894da8          mov     dword ptr [ebp-58h],ecx
004017bc 895590          mov     dword ptr [ebp-70h],edx
004017bf 899d78ffffff    mov     dword ptr [ebp-88h],ebx
004017c5 eb03            jmp     image00400000+0x17ca (004017ca)
004017c7 8b75ac          mov     esi,dword ptr [ebp-54h]
004017ca e8bb100000      call    image00400000+0x288a (0040288a)
004017cf 99              cdq
004017d0 8d4efa          lea     ecx,[esi-6]
004017d3 f7f9            idiv    eax,ecx
004017d5 8bf2            mov     esi,edx
004017d7 e8ae100000      call    image00400000+0x288a (0040288a)
004017dc 8b4dac          mov     ecx,dword ptr [ebp-54h]
004017df 99              cdq
004017e0 83c1fa          add     ecx,0FFFFFFFAh
004017e3 f7f9            idiv    eax,ecx
004017e5 8b44b30c        mov     eax,dword ptr [ebx+esi*4+0Ch]
004017e9 8b4c930c        mov     ecx,dword ptr [ebx+edx*4+0Ch]
004017ed 894cb30c        mov     dword ptr [ebx+esi*4+0Ch],ecx
004017f1 8b8d78ffffff    mov     ecx,dword ptr [ebp-88h]
004017f7 8944930c        mov     dword ptr [ebx+edx*4+0Ch],eax
004017fb 8b45ac          mov     eax,dword ptr [ebp-54h]
004017fe 48              dec     eax
004017ff 83f801          cmp     eax,1
00401802 0f8e6b010000    jle     image00400000+0x1973 (00401973)
00401808 8b5588          mov     edx,dword ptr [ebp-78h]
0040180b 2b558c          sub     edx,dword ptr [ebp-74h]
0040180e 8d3491          lea     esi,[ecx+edx*4]
00401811 8b5590          mov     edx,dword ptr [ebp-70h]
00401814 2b55a8          sub     edx,dword ptr [ebp-58h]
00401817 48              dec     eax
00401818 899570ffffff    mov     dword ptr [ebp-90h],edx
0040181e 894598          mov     dword ptr [ebp-68h],eax
00401821 eb13            jmp     image00400000+0x1836 (00401836)
00401823 eb0b            jmp     image00400000+0x1830 (00401830)
00401825 8da42400000000  lea     esp,[esp]
0040182c 8d642400        lea     esp,[esp]
00401830 8b9570ffffff    mov     edx,dword ptr [ebp-90h]
00401836 8b1432          mov     edx,dword ptr [edx+esi]
00401839 89956cffffff    mov     dword ptr [ebp-94h],edx
0040183f 8b01            mov     eax,dword ptr [ecx]
00401841 c1e810          shr     eax,10h
00401844 0fb6d0          movzx   edx,al
00401847 8b5904          mov     ebx,dword ptr [ecx+4]
0040184a 8bc3            mov     eax,ebx
0040184c c1e810          shr     eax,10h
0040184f 0fb6c0          movzx   eax,al
00401852 03d0            add     edx,eax
00401854 8b41fc          mov     eax,dword ptr [ecx-4]
00401857 c1e810          shr     eax,10h
0040185a 0fb6c0          movzx   eax,al
0040185d 03d0            add     edx,eax
0040185f b856555555      mov     eax,55555556h
00401864 f7ea            imul    edx
00401866 8bc2            mov     eax,edx
00401868 c1e81f          shr     eax,1Fh
0040186b 03c2            add     eax,edx
0040186d 8b16            mov     edx,dword ptr [esi]
0040186f c1ea10          shr     edx,10h
00401872 0fb6d2          movzx   edx,dl
00401875 8d1442          lea     edx,[edx+eax*2]
00401878 b856555555      mov     eax,55555556h
0040187d f7ea            imul    edx
0040187f 8bc2            mov     eax,edx
00401881 c1e81f          shr     eax,1Fh
00401884 03c2            add     eax,edx
00401886 8d57ff          lea     edx,[edi-1]
00401889 0fafc2          imul    eax,edx
0040188c 8b956cffffff    mov     edx,dword ptr [ebp-94h]
00401892 c1ea10          shr     edx,10h
00401895 0fb6d2          movzx   edx,dl
00401898 03c2            add     eax,edx
0040189a 99              cdq
0040189b f7ff            idiv    eax,edi
0040189d 8b11            mov     edx,dword ptr [ecx]
0040189f c1ea08          shr     edx,8
004018a2 0fb6d2          movzx   edx,dl
004018a5 c1eb08          shr     ebx,8
004018a8 0fb6db          movzx   ebx,bl
004018ab 03d3            add     edx,ebx
004018ad 8b59fc          mov     ebx,dword ptr [ecx-4]
004018b0 c1eb08          shr     ebx,8
004018b3 0fb6db          movzx   ebx,bl
004018b6 03d3            add     edx,ebx
004018b8 0fb6c0          movzx   eax,al
004018bb c1e008          shl     eax,8
004018be 894580          mov     dword ptr [ebp-80h],eax
004018c1 b856555555      mov     eax,55555556h
004018c6 f7ea            imul    edx
004018c8 8bc2            mov     eax,edx
004018ca c1e81f          shr     eax,1Fh
004018cd 03c2            add     eax,edx
004018cf 8b16            mov     edx,dword ptr [esi]
004018d1 c1ea08          shr     edx,8
004018d4 0fb6d2          movzx   edx,dl
004018d7 8d1442          lea     edx,[edx+eax*2]
004018da b856555555      mov     eax,55555556h
004018df f7ea            imul    edx
004018e1 8bc2            mov     eax,edx
004018e3 c1e81f          shr     eax,1Fh
004018e6 03c2            add     eax,edx
004018e8 8d57ff          lea     edx,[edi-1]
004018eb 0fafc2          imul    eax,edx
004018ee 8b956cffffff    mov     edx,dword ptr [ebp-94h]
004018f4 c1ea08          shr     edx,8
004018f7 0fb6d2          movzx   edx,dl
004018fa 03c2            add     eax,edx
004018fc 99              cdq
004018fd f7ff            idiv    eax,edi
004018ff 8b5580          mov     edx,dword ptr [ebp-80h]
00401902 0fb6c0          movzx   eax,al
00401905 0bd0            or      edx,eax
00401907 0fb601          movzx   eax,byte ptr [ecx]
0040190a c1e208          shl     edx,8
0040190d 895580          mov     dword ptr [ebp-80h],edx
00401910 0fb651fc        movzx   edx,byte ptr [ecx-4]
00401914 03d0            add     edx,eax
00401916 0fb64104        movzx   eax,byte ptr [ecx+4]
0040191a 03d0            add     edx,eax
0040191c b856555555      mov     eax,55555556h
00401921 f7ea            imul    edx
00401923 8bc2            mov     eax,edx
00401925 c1e81f          shr     eax,1Fh
00401928 03c2            add     eax,edx
0040192a 0fb616          movzx   edx,byte ptr [esi]
0040192d 8d1442          lea     edx,[edx+eax*2]
00401930 b856555555      mov     eax,55555556h
00401935 f7ea            imul    edx
00401937 8bc2            mov     eax,edx
00401939 c1e81f          shr     eax,1Fh
0040193c 03c2            add     eax,edx
0040193e 8d57ff          lea     edx,[edi-1]
00401941 0fafc2          imul    eax,edx
00401944 8b9570ffffff    mov     edx,dword ptr [ebp-90h]
0040194a 0fb61432        movzx   edx,byte ptr [edx+esi]
0040194e 03c2            add     eax,edx
00401950 99              cdq
00401951 f7ff            idiv    eax,edi
00401953 8b5580          mov     edx,dword ptr [ebp-80h]
00401956 83c104          add     ecx,4
00401959 83c604          add     esi,4
0040195c 0fb6c0          movzx   eax,al
0040195f 0bd0            or      edx,eax
00401961 ff4d98          dec     dword ptr [ebp-68h]
00401964 8956fc          mov     dword ptr [esi-4],edx
00401967 0f85c3feffff    jne     image00400000+0x1830 (00401830)
0040196d 8b9d60ffffff    mov     ebx,dword ptr [ebp-0A0h]
00401973 8b857cffffff    mov     eax,dword ptr [ebp-84h]
00401979 014588          add     dword ptr [ebp-78h],eax
0040197c 01458c          add     dword ptr [ebp-74h],eax
0040197f 03c0            add     eax,eax
00401981 03c0            add     eax,eax
00401983 018578ffffff    add     dword ptr [ebp-88h],eax
00401989 014590          add     dword ptr [ebp-70h],eax
0040198c 0145a8          add     dword ptr [ebp-58h],eax
0040198f 4f              dec     edi
00401990 83ff01          cmp     edi,1
00401993 0f8f2efeffff    jg      image00400000+0x17c7 (004017c7)
00401999 8bbd68ffffff    mov     edi,dword ptr [ebp-98h]
0040199f 8b55b0          mov     edx,dword ptr [ebp-50h]
004019a2 8b75b4          mov     esi,dword ptr [ebp-4Ch]
004019a5 6a00            push    0
004019a7 8d4dbc          lea     ecx,[ebp-44h]
004019aa 51              push    ecx
004019ab 53              push    ebx
004019ac 57              push    edi
004019ad 6a00            push    0
004019af 52              push    edx
004019b0 56              push    esi
004019b1 ff1528d04000    call    dword ptr [image00400000+0xd028 (0040d028)]
004019b7 8b4dac          mov     ecx,dword ptr [ebp-54h]
004019ba 8b9574ffffff    mov     edx,dword ptr [ebp-8Ch]
004019c0 682000cc00      push    0CC0020h
004019c5 8d479c          lea     eax,[edi-64h]
004019c8 50              push    eax
004019c9 6a00            push    0
004019cb 56              push    esi
004019cc 6a63            push    63h
004019ce 51              push    ecx
004019cf 50              push    eax
004019d0 6a00            push    0
004019d2 52              push    edx
004019d3 ff1534d04000    call    dword ptr [image00400000+0xd034 (0040d034)]
004019d9 6a32            push    32h
004019db ff1578d04000    call    dword ptr [image00400000+0xd078 (0040d078)]
004019e1 803d691b410000  cmp     byte ptr [image00400000+0x11b69 (00411b69)],0
004019e8 0f8492fcffff    je      image00400000+0x1680 (00401680)
004019ee 8bb574ffffff    mov     esi,dword ptr [ebp-8Ch]
004019f4 8b7d84          mov     edi,dword ptr [ebp-7Ch]
004019f7 57              push    edi
004019f8 e8210c0000      call    image00400000+0x261e (0040261e)
004019fd 8b459c          mov     eax,dword ptr [ebp-64h]
00401a00 50              push    eax
00401a01 e8180c0000      call    image00400000+0x261e (0040261e)
00401a06 53              push    ebx
00401a07 e8120c0000      call    image00400000+0x261e (0040261e)
00401a0c 8b4db4          mov     ecx,dword ptr [ebp-4Ch]
00401a0f 8b3d0cd04000    mov     edi,dword ptr [image00400000+0xd00c (0040d00c)]
00401a15 83c40c          add     esp,0Ch
00401a18 51              push    ecx
00401a19 ffd7            call    edi
00401a1b 8b55a4          mov     edx,dword ptr [ebp-5Ch]
00401a1e 52              push    edx
00401a1f ffd7            call    edi
00401a21 8b45a0          mov     eax,dword ptr [ebp-60h]
00401a24 8b3d18d04000    mov     edi,dword ptr [image00400000+0xd018 (0040d018)]
00401a2a 50              push    eax
00401a2b ffd7            call    edi
00401a2d 8b4db0          mov     ecx,dword ptr [ebp-50h]
00401a30 51              push    ecx
00401a31 eb7b            jmp     image00400000+0x1aae (00401aae)
00401a33 53              push    ebx
00401a34 eb08            jmp     image00400000+0x1a3e (00401a3e)
00401a36 8b459c          mov     eax,dword ptr [ebp-64h]
00401a39 85c0            test    eax,eax
00401a3b 7409            je      image00400000+0x1a46 (00401a46)
00401a3d 50              push    eax
00401a3e e8db0b0000      call    image00400000+0x261e (0040261e)
00401a43 83c404          add     esp,4
00401a46 85ff            test    edi,edi
00401a48 7409            je      image00400000+0x1a53 (00401a53)
00401a4a 57              push    edi
00401a4b e8ce0b0000      call    image00400000+0x261e (0040261e)
00401a50 83c404          add     esp,4
00401a53 8b45b4          mov     eax,dword ptr [ebp-4Ch]
00401a56 8b3d0cd04000    mov     edi,dword ptr [image00400000+0xd00c (0040d00c)]
00401a5c 50              push    eax
00401a5d ffd7            call    edi
00401a5f 8b4da4          mov     ecx,dword ptr [ebp-5Ch]
00401a62 51              push    ecx
00401a63 ffd7            call    edi
00401a65 8b55a0          mov     edx,dword ptr [ebp-60h]
00401a68 8b3d18d04000    mov     edi,dword ptr [image00400000+0xd018 (0040d018)]
00401a6e 52              push    edx
00401a6f ffd7            call    edi
00401a71 8b45b0          mov     eax,dword ptr [ebp-50h]
00401a74 50              push    eax
00401a75 ffd7            call    edi
00401a77 8b4d94          mov     ecx,dword ptr [ebp-6Ch]
00401a7a 56              push    esi
00401a7b 51              push    ecx
00401a7c eb37            jmp     image00400000+0x1ab5 (00401ab5)
00401a7e 51              push    ecx
00401a7f ff150cd04000    call    dword ptr [image00400000+0xd00c (0040d00c)]
00401a85 8b45a0          mov     eax,dword ptr [ebp-60h]
00401a88 8b4da4          mov     ecx,dword ptr [ebp-5Ch]
00401a8b 85c9            test    ecx,ecx
00401a8d 740a            je      image00400000+0x1a99 (00401a99)
00401a8f 51              push    ecx
00401a90 ff150cd04000    call    dword ptr [image00400000+0xd00c (0040d00c)]
00401a96 8b45a0          mov     eax,dword ptr [ebp-60h]
00401a99 8b3d18d04000    mov     edi,dword ptr [image00400000+0xd018 (0040d018)]
00401a9f 85c0            test    eax,eax
00401aa1 7403            je      image00400000+0x1aa6 (00401aa6)
00401aa3 50              push    eax
00401aa4 ffd7            call    edi
00401aa6 8b45b0          mov     eax,dword ptr [ebp-50h]
00401aa9 85c0            test    eax,eax
00401aab 7403            je      image00400000+0x1ab0 (00401ab0)
00401aad 50              push    eax
00401aae ffd7            call    edi
00401ab0 8b5594          mov     edx,dword ptr [ebp-6Ch]
00401ab3 56              push    esi
00401ab4 52              push    edx
00401ab5 ff1564d14000    call    dword ptr [image00400000+0xd164 (0040d164)]
00401abb 8b4df8          mov     ecx,dword ptr [ebp-8]
00401abe 5f              pop     edi
00401abf 5e              pop     esi
00401ac0 33cd            xor     ecx,ebp
00401ac2 33c0            xor     eax,eax
00401ac4 c6056a1b410001  mov     byte ptr [image00400000+0x11b6a (00411b6a)],1
00401acb 5b              pop     ebx
00401acc e82a0a0000      call    image00400000+0x24fb (004024fb)
00401ad1 8be5            mov     esp,ebp
00401ad3 5d              pop     ebp
00401ad4 c20400          ret     4
00401ad7 cc              int     3
00401ad8 cc              int     3
00401ad9 cc              int     3
00401ada cc              int     3
00401adb cc              int     3
00401adc cc              int     3
00401add cc              int     3
00401ade cc              int     3
00401adf cc              int     3
00401ae0 55              push    ebp
00401ae1 8bec            mov     ebp,esp
00401ae3 b804200000      mov     eax,2004h
00401ae8 e8138d0000      call    image00400000+0xa800 (0040a800)
00401aed a104004100      mov     eax,dword ptr [image00400000+0x10004 (00410004)]
00401af2 33c5            xor     eax,ebp
00401af4 8945fc          mov     dword ptr [ebp-4],eax
00401af7 56              push    esi
00401af8 57              push    edi
00401af9 8bf1            mov     esi,ecx
00401afb 33ff            xor     edi,edi
00401afd 8d4900          lea     ecx,[ecx]
00401b00 e8850d0000      call    image00400000+0x288a (0040288a)
00401b05 6689847dfcdfffff mov     word ptr [ebp+edi*2-2004h],ax
00401b0d 47              inc     edi
00401b0e 81ff00100000    cmp     edi,1000h
00401b14 7cea            jl      image00400000+0x1b00 (00401b00)
00401b16 68dec0adde      push    0DEADC0DEh
00401b1b e8b0f5ffff      call    image00400000+0x10d0 (004010d0)
00401b20 83c404          add     esp,4
00401b23 85c0            test    eax,eax
00401b25 7512            jne     image00400000+0x1b39 (00401b39)
00401b27 5f              pop     edi
00401b28 32c0            xor     al,al
00401b2a 5e              pop     esi
00401b2b 8b4dfc          mov     ecx,dword ptr [ebp-4]
00401b2e 33cd            xor     ecx,ebp
00401b30 e8c6090000      call    image00400000+0x24fb (004024fb)
00401b35 8be5            mov     esp,ebp
00401b37 5d              pop     ebp
00401b38 c3              ret
00401b39 6800100000      push    1000h
00401b3e 8d8dfcdfffff    lea     ecx,[ebp-2004h]
00401b44 51              push    ecx
00401b45 ffd0            call    eax
00401b47 33ff            xor     edi,edi
00401b49 8da42400000000  lea     esp,[esp]
00401b50 e8350d0000      call    image00400000+0x288a (0040288a)
00401b55 25ff0f0080      and     eax,80000FFFh
00401b5a 7907            jns     image00400000+0x1b63 (00401b63)
00401b5c 48              dec     eax
00401b5d 0d00f0ffff      or      eax,0FFFFF000h
00401b62 40              inc     eax
00401b63 0fb7f0          movzx   esi,ax
00401b66 e81f0d0000      call    image00400000+0x288a (0040288a)
00401b6b 25ff0f0080      and     eax,80000FFFh
00401b70 7907            jns     image00400000+0x1b79 (00401b79)
00401b72 48              dec     eax
00401b73 0d00f0ffff      or      eax,0FFFFF000h
00401b78 40              inc     eax
00401b79 0fb7c0          movzx   eax,ax
00401b7c 8bce            mov     ecx,esi
00401b7e 663bf0          cmp     si,ax
00401b81 7206            jb      image00400000+0x1b89 (00401b89)
00401b83 8bc8            mov     ecx,eax
00401b85 7602            jbe     image00400000+0x1b89 (00401b89)
00401b87 8bc6            mov     eax,esi
00401b89 0fb7d0          movzx   edx,ax
00401b8c 0fb7c1          movzx   eax,cx
00401b8f 668b8c45fcdfffff mov     cx,word ptr [ebp+eax*2-2004h]
00401b97 663b8c55fcdfffff cmp     cx,word ptr [ebp+edx*2-2004h]
00401b9f 7786            ja      image00400000+0x1b27 (00401b27)
00401ba1 47              inc     edi
00401ba2 81ff00010000    cmp     edi,100h
00401ba8 7ca6            jl      image00400000+0x1b50 (00401b50)
00401baa b801000000      mov     eax,1
00401baf 90              nop
00401bb0 668b9445fadfffff mov     dx,word ptr [ebp+eax*2-2006h]
00401bb8 663b9445fcdfffff cmp     dx,word ptr [ebp+eax*2-2004h]
00401bc0 0f8761ffffff    ja      image00400000+0x1b27 (00401b27)
00401bc6 40              inc     eax
00401bc7 3d00100000      cmp     eax,1000h
00401bcc 7ce2            jl      image00400000+0x1bb0 (00401bb0)
00401bce 8b4dfc          mov     ecx,dword ptr [ebp-4]
00401bd1 5f              pop     edi
00401bd2 33cd            xor     ecx,ebp
00401bd4 b001            mov     al,1
00401bd6 5e              pop     esi
00401bd7 e81f090000      call    image00400000+0x24fb (004024fb)
00401bdc 8be5            mov     esp,ebp
00401bde 5d              pop     ebp
00401bdf c3              ret
00401be0 55              push    ebp
00401be1 8bec            mov     ebp,esp
00401be3 51              push    ecx
00401be4 8b4d10          mov     ecx,dword ptr [ebp+10h]
00401be7 8b4514          mov     eax,dword ptr [ebp+14h]
00401bea 53              push    ebx
00401beb 56              push    esi
00401bec 57              push    edi
00401bed 85c9            test    ecx,ecx
00401bef 7511            jne     image00400000+0x1c02 (00401c02)
00401bf1 85c0            test    eax,eax
00401bf3 750d            jne     image00400000+0x1c02 (00401c02)
00401bf5 b801000000      mov     eax,1
00401bfa 33d2            xor     edx,edx
00401bfc 5f              pop     edi
00401bfd 5e              pop     esi
00401bfe 5b              pop     ebx
00401bff 59              pop     ecx
00401c00 5d              pop     ebp
00401c01 c3              ret
00401c02 8b7d18          mov     edi,dword ptr [ebp+18h]
00401c05 8bd1            mov     edx,ecx
00401c07 33f6            xor     esi,esi
00401c09 83e201          and     edx,1
00401c0c 0bd6            or      edx,esi
00401c0e 8b751c          mov     esi,dword ptr [ebp+1Ch]
00401c11 56              push    esi
00401c12 57              push    edi
00401c13 741f            je      image00400000+0x1c34 (00401c34)
00401c15 8b5d0c          mov     ebx,dword ptr [ebp+0Ch]
00401c18 83c1ff          add     ecx,0FFFFFFFFh
00401c1b 83d0ff          adc     eax,0FFFFFFFFh
00401c1e 50              push    eax
00401c1f 8b4508          mov     eax,dword ptr [ebp+8]
00401c22 51              push    ecx
00401c23 53              push    ebx
00401c24 50              push    eax
00401c25 e8b6ffffff      call    image00400000+0x1be0 (00401be0)
00401c2a 8b4d08          mov     ecx,dword ptr [ebp+8]
00401c2d 83c418          add     esp,18h
00401c30 53              push    ebx
00401c31 51              push    ecx
00401c32 eb1a            jmp     image00400000+0x1c4e (00401c4e)
00401c34 8b550c          mov     edx,dword ptr [ebp+0Ch]
00401c37 0facc101        shrd    ecx,eax,1
00401c3b d1e8            shr     eax,1
00401c3d 50              push    eax
00401c3e 8b4508          mov     eax,dword ptr [ebp+8]
00401c41 51              push    ecx
00401c42 52              push    edx
00401c43 50              push    eax
00401c44 e897ffffff      call    image00400000+0x1be0 (00401be0)
00401c49 83c418          add     esp,18h
00401c4c 52              push    edx
00401c4d 50              push    eax
00401c4e 52              push    edx
00401c4f 50              push    eax
00401c50 e80b780000      call    image00400000+0x9460 (00409460)
00401c55 56              push    esi
00401c56 57              push    edi
00401c57 52              push    edx
00401c58 50              push    eax
00401c59 e822a50000      call    image00400000+0xc180 (0040c180)
00401c5e 5f              pop     edi
00401c5f 5e              pop     esi
00401c60 5b              pop     ebx
00401c61 59              pop     ecx
00401c62 5d              pop     ebp
00401c63 c3              ret
00401c64 cc              int     3
00401c65 cc              int     3
00401c66 cc              int     3
00401c67 cc              int     3
00401c68 cc              int     3
00401c69 cc              int     3
00401c6a cc              int     3
00401c6b cc              int     3
00401c6c cc              int     3
00401c6d cc              int     3
00401c6e cc              int     3
00401c6f cc              int     3
00401c70 55              push    ebp
00401c71 8bec            mov     ebp,esp
00401c73 b82c160000      mov     eax,162Ch
00401c78 e8838b0000      call    image00400000+0xa800 (0040a800)
00401c7d a104004100      mov     eax,dword ptr [image00400000+0x10004 (00410004)]
00401c82 33c5            xor     eax,ebp
00401c84 8945fc          mov     dword ptr [ebp-4],eax
00401c87 53              push    ebx
00401c88 56              push    esi
00401c89 57              push    edi
00401c8a 8bf1            mov     esi,ecx
00401c8c 68efbeadde      push    0DEADBEEFh
00401c91 e83af4ffff      call    image00400000+0x10d0 (004010d0)
00401c96 8bf0            mov     esi,eax
00401c98 33db            xor     ebx,ebx
00401c9a 83c404          add     esp,4
00401c9d 3bf3            cmp     esi,ebx
00401c9f 7513            jne     image00400000+0x1cb4 (00401cb4)
00401ca1 32c0            xor     al,al
00401ca3 5f              pop     edi
00401ca4 5e              pop     esi
00401ca5 5b              pop     ebx
00401ca6 8b4dfc          mov     ecx,dword ptr [ebp-4]
00401ca9 33cd            xor     ecx,ebp
00401cab e84b080000      call    image00400000+0x24fb (004024fb)
00401cb0 8be5            mov     esp,ebp
00401cb2 5d              pop     ebp
00401cb3 c3              ret
00401cb4 68ff0f0000      push    0FFFh
00401cb9 8d85e9e9ffff    lea     eax,[ebp-1617h]
00401cbf 53              push    ebx
00401cc0 50              push    eax
00401cc1 889de8e9ffff    mov     byte ptr [ebp-1618h],bl
00401cc7 e8f46e0000      call    image00400000+0x8bc0 (00408bc0)
00401ccc 83c40c          add     esp,0Ch
00401ccf 6800100000      push    1000h
00401cd4 8d8de8e9ffff    lea     ecx,[ebp-1618h]
00401cda 51              push    ecx
00401cdb ffd6            call    esi
00401cdd 33c0            xor     eax,eax
00401cdf 68fe030000      push    3FEh
00401ce4 8945ed          mov     dword ptr [ebp-13h],eax
00401ce7 8945f1          mov     dword ptr [ebp-0Fh],eax
00401cea 8945f5          mov     dword ptr [ebp-0Bh],eax
00401ced 668945f9        mov     word ptr [ebp-7],ax
00401cf1 8845fb          mov     byte ptr [ebp-5],al
00401cf4 8d85eaf9ffff    lea     eax,[ebp-616h]
00401cfa 33d2            xor     edx,edx
00401cfc 53              push    ebx
00401cfd 50              push    eax
00401cfe 885dec          mov     byte ptr [ebp-14h],bl
00401d01 33f6            xor     esi,esi
00401d03 668995e8f9ffff  mov     word ptr [ebp-618h],dx
00401d0a e8b16e0000      call    image00400000+0x8bc0 (00408bc0)
00401d0f 83c40c          add     esp,0Ch
00401d12 389c35e8e9ffff  cmp     byte ptr [ebp+esi-1618h],bl
00401d19 0f8488000000    je      image00400000+0x1da7 (00401da7)
00401d1f 8b8c35e8e9ffff  mov     ecx,dword ptr [ebp+esi-1618h]
00401d26 8b9435ece9ffff  mov     edx,dword ptr [ebp+esi-1614h]
00401d2d 8d85dce9ffff    lea     eax,[ebp-1624h]
00401d33 50              push    eax
00401d34 894dec          mov     dword ptr [ebp-14h],ecx
00401d37 8d4dec          lea     ecx,[ebp-14h]
00401d3a 6828ee4000      push    offset image00400000+0xee28 (0040ee28)
00401d3f 51              push    ecx
00401d40 8955f0          mov     dword ptr [ebp-10h],edx
00401d43 899ddce9ffff    mov     dword ptr [ebp-1624h],ebx
00401d49 e8ae080000      call    image00400000+0x25fc (004025fc)
00401d4e 8bbddce9ffff    mov     edi,dword ptr [ebp-1624h]
00401d54 83c40c          add     esp,0Ch
00401d57 53              push    ebx
00401d58 68f997d7e2      push    0E2D797F9h
00401d5d 53              push    ebx
00401d5e 6800000100      push    10000h
00401d63 53              push    ebx
00401d64 57              push    edi
00401d65 e876feffff      call    image00400000+0x1be0 (00401be0)
00401d6a 83c418          add     esp,18h
00401d6d 53              push    ebx
00401d6e 57              push    edi
00401d6f 52              push    edx
00401d70 50              push    eax
00401d71 e8ea760000      call    image00400000+0x9460 (00409460)
00401d76 33db            xor     ebx,ebx
00401d78 53              push    ebx
00401d79 68f997d7e2      push    0E2D797F9h
00401d7e 52              push    edx
00401d7f 50              push    eax
00401d80 e8fba30000      call    image00400000+0xc180 (0040c180)
00401d85 8995dce9ffff    mov     dword ptr [ebp-1624h],edx
00401d8b 8bd6            mov     edx,esi
00401d8d c1ea03          shr     edx,3
00401d90 83c608          add     esi,8
00401d93 66898455e8f9ffff mov     word ptr [ebp+edx*2-618h],ax
00401d9b 81fe00100000    cmp     esi,1000h
00401da1 0f8c6bffffff    jl      image00400000+0x1d12 (00401d12)
00401da7 8d85e4e9ffff    lea     eax,[ebp-161Ch]
00401dad 50              push    eax
00401dae 8d8de8fdffff    lea     ecx,[ebp-218h]
00401db4 51              push    ecx
00401db5 c785e4e9ffff00010000 mov dword ptr [ebp-161Ch],100h
00401dbf ff1500d04000    call    dword ptr [image00400000+0xd000 (0040d000)]
00401dc5 8d95e8f9ffff    lea     edx,[ebp-618h]
00401dcb 8d8de8fdffff    lea     ecx,[ebp-218h]
00401dd1 668b01          mov     ax,word ptr [ecx]
00401dd4 663b02          cmp     ax,word ptr [edx]
00401dd7 751e            jne     image00400000+0x1df7 (00401df7)
00401dd9 663bc3          cmp     ax,bx
00401ddc 7415            je      image00400000+0x1df3 (00401df3)
00401dde 668b4102        mov     ax,word ptr [ecx+2]
00401de2 663b4202        cmp     ax,word ptr [edx+2]
00401de6 750f            jne     image00400000+0x1df7 (00401df7)
00401de8 83c104          add     ecx,4
00401deb 83c204          add     edx,4
00401dee 663bc3          cmp     ax,bx
00401df1 75de            jne     image00400000+0x1dd1 (00401dd1)
00401df3 33c0            xor     eax,eax
00401df5 eb05            jmp     image00400000+0x1dfc (00401dfc)
00401df7 1bc0            sbb     eax,eax
00401df9 83d8ff          sbb     eax,0FFFFFFFFh
00401dfc 8b4dfc          mov     ecx,dword ptr [ebp-4]
00401dff 3bc3            cmp     eax,ebx
00401e01 5f              pop     edi
00401e02 0f94c0          sete    al
00401e05 5e              pop     esi
00401e06 33cd            xor     ecx,ebp
00401e08 5b              pop     ebx
00401e09 e8ed060000      call    image00400000+0x24fb (004024fb)
00401e0e 8be5            mov     esp,ebp
00401e10 5d              pop     ebp
00401e11 c3              ret
00401e12 cc              int     3
00401e13 cc              int     3
00401e14 cc              int     3
00401e15 cc              int     3
00401e16 cc              int     3
00401e17 cc              int     3
00401e18 cc              int     3
00401e19 cc              int     3
00401e1a cc              int     3
00401e1b cc              int     3
00401e1c cc              int     3
00401e1d cc              int     3
00401e1e cc              int     3
00401e1f cc              int     3
00401e20 55              push    ebp
00401e21 8bec            mov     ebp,esp
00401e23 b864120000      mov     eax,1264h
00401e28 e8d3890000      call    image00400000+0xa800 (0040a800)
00401e2d a104004100      mov     eax,dword ptr [image00400000+0x10004 (00410004)]
00401e32 33c5            xor     eax,ebp
00401e34 8945fc          mov     dword ptr [ebp-4],eax
00401e37 53              push    ebx
00401e38 56              push    esi
00401e39 57              push    edi
00401e3a 8bf1            mov     esi,ecx
00401e3c 68fecaadde      push    0DEADCAFEh
00401e41 e88af2ffff      call    image00400000+0x10d0 (004010d0)
00401e46 8bf0            mov     esi,eax
00401e48 33db            xor     ebx,ebx
00401e4a 83c404          add     esp,4
00401e4d 3bf3            cmp     esi,ebx
00401e4f 7513            jne     image00400000+0x1e64 (00401e64)
00401e51 32c0            xor     al,al
00401e53 5f              pop     edi
00401e54 5e              pop     esi
00401e55 5b              pop     ebx
00401e56 8b4dfc          mov     ecx,dword ptr [ebp-4]
00401e59 33cd            xor     ecx,ebp
00401e5b e89b060000      call    image00400000+0x24fb (004024fb)
00401e60 8be5            mov     esp,ebp
00401e62 5d              pop     ebp
00401e63 c3              ret
00401e64 68ff0f0000      push    0FFFh
00401e69 8d85e1edffff    lea     eax,[ebp-121Fh]
00401e6f 53              push    ebx
00401e70 50              push    eax
00401e71 889de0edffff    mov     byte ptr [ebp-1220h],bl
00401e77 e8446d0000      call    image00400000+0x8bc0 (00408bc0)
00401e7c 83c40c          add     esp,0Ch
00401e7f 53              push    ebx
00401e80 53              push    ebx
00401e81 53              push    ebx
00401e82 53              push    ebx
00401e83 8d8db4edffff    lea     ecx,[ebp-124Ch]
00401e89 51              push    ecx
00401e8a 53              push    ebx
00401e8b 53              push    ebx
00401e8c 53              push    ebx
00401e8d 899db4edffff    mov     dword ptr [ebp-124Ch],ebx
00401e93 ff1560d04000    call    dword ptr [image00400000+0xd060 (0040d060)]
00401e99 8bbdb4edffff    mov     edi,dword ptr [ebp-124Ch]
00401e9f 3bfb            cmp     edi,ebx
00401ea1 7515            jne     image00400000+0x1eb8 (00401eb8)
00401ea3 e8e2090000      call    image00400000+0x288a (0040288a)
00401ea8 8bf8            mov     edi,eax
00401eaa e8db090000      call    image00400000+0x288a (0040288a)
00401eaf 0faff8          imul    edi,eax
00401eb2 89bdb4edffff    mov     dword ptr [ebp-124Ch],edi
00401eb8 57              push    edi
00401eb9 6800100000      push    1000h
00401ebe 8d95e0edffff    lea     edx,[ebp-1220h]
00401ec4 52              push    edx
00401ec5 ffd6            call    esi
00401ec7 68fe010000      push    1FEh
00401ecc 8d8de2fdffff    lea     ecx,[ebp-21Eh]
00401ed2 33c0            xor     eax,eax
00401ed4 53              push    ebx
00401ed5 51              push    ecx
00401ed6 668985e0fdffff  mov     word ptr [ebp-220h],ax
00401edd e8de6c0000      call    image00400000+0x8bc0 (00408bc0)
00401ee2 83c40c          add     esp,0Ch
00401ee5 8d55f4          lea     edx,[ebp-0Ch]
00401ee8 52              push    edx
00401ee9 8d85e0fdffff    lea     eax,[ebp-220h]
00401eef 50              push    eax
00401ef0 c745f400010000  mov     dword ptr [ebp-0Ch],100h
00401ef7 ff1500d04000    call    dword ptr [image00400000+0xd000 (0040d000)]
00401efd 8b55f4          mov     edx,dword ptr [ebp-0Ch]
00401f00 83c8ff          or      eax,0FFFFFFFFh
00401f03 8d8de0fdffff    lea     ecx,[ebp-220h]
00401f09 3bd3            cmp     edx,ebx
00401f0b 7620            jbe     image00400000+0x1f2d (00401f2d)
00401f0d 8d4900          lea     ecx,[ecx]
00401f10 0fb639          movzx   edi,byte ptr [ecx]
00401f13 8bf0            mov     esi,eax
00401f15 81e6ff000000    and     esi,0FFh
00401f1b 33f7            xor     esi,edi
00401f1d c1e808          shr     eax,8
00401f20 3304b500ea4000  xor     eax,dword ptr image00400000+0xea00 (0040ea00)[esi*4]
00401f27 83c102          add     ecx,2
00401f2a 4a              dec     edx
00401f2b 75e3            jne     image00400000+0x1f10 (00401f10)
00401f2d f7d0            not     eax
00401f2f f7a5b4edffff    mul     eax,dword ptr [ebp-124Ch]
00401f35 8bf8            mov     edi,eax
00401f37 33c0            xor     eax,eax
00401f39 8995a4edffff    mov     dword ptr [ebp-125Ch],edx
00401f3f 899db8edffff    mov     dword ptr [ebp-1248h],ebx
00401f45 899dbcedffff    mov     dword ptr [ebp-1244h],ebx
00401f4b 8985c0edffff    mov     dword ptr [ebp-1240h],eax
00401f51 8985c4edffff    mov     dword ptr [ebp-123Ch],eax
00401f57 8985c8edffff    mov     dword ptr [ebp-1238h],eax
00401f5d 8985ccedffff    mov     dword ptr [ebp-1234h],eax
00401f63 8985d0edffff    mov     dword ptr [ebp-1230h],eax
00401f69 8985d4edffff    mov     dword ptr [ebp-122Ch],eax
00401f6f 8985d8edffff    mov     dword ptr [ebp-1228h],eax
00401f75 8985dcedffff    mov     dword ptr [ebp-1224h],eax
00401f7b 8845e0          mov     byte ptr [ebp-20h],al
00401f7e 8945e1          mov     dword ptr [ebp-1Fh],eax
00401f81 8945e5          mov     dword ptr [ebp-1Bh],eax
00401f84 8945e9          mov     dword ptr [ebp-17h],eax
00401f87 668945ed        mov     word ptr [ebp-13h],ax
00401f8b 8845ef          mov     byte ptr [ebp-11h],al
00401f8e 33f6            xor     esi,esi
00401f90 389c35e0edffff  cmp     byte ptr [ebp+esi-1220h],bl
00401f97 7473            je      image00400000+0x200c (0040200c)
00401f99 8b8c35e0edffff  mov     ecx,dword ptr [ebp+esi-1220h]
00401fa0 8b9435e4edffff  mov     edx,dword ptr [ebp+esi-121Ch]
00401fa7 668b8435e8edffff mov     ax,word ptr [ebp+esi-1218h]
00401faf 894de0          mov     dword ptr [ebp-20h],ecx
00401fb2 8d8da8edffff    lea     ecx,[ebp-1258h]
00401fb8 51              push    ecx
00401fb9 8955e4          mov     dword ptr [ebp-1Ch],edx
00401fbc 8d55e0          lea     edx,[ebp-20h]
00401fbf 6830ee4000      push    offset image00400000+0xee30 (0040ee30)
00401fc4 52              push    edx
00401fc5 668945e8        mov     word ptr [ebp-18h],ax
00401fc9 899da8edffff    mov     dword ptr [ebp-1258h],ebx
00401fcf 899dacedffff    mov     dword ptr [ebp-1254h],ebx
00401fd5 e822060000      call    image00400000+0x25fc (004025fc)
00401fda 8b8dacedffff    mov     ecx,dword ptr [ebp-1254h]
00401fe0 b8cdcccccc      mov     eax,0CCCCCCCDh
00401fe5 f7e6            mul     eax,esi
00401fe7 8b85a8edffff    mov     eax,dword ptr [ebp-1258h]
00401fed c1ea03          shr     edx,3
00401ff0 83c60a          add     esi,0Ah
00401ff3 83c40c          add     esp,0Ch
00401ff6 8984d5b8edffff  mov     dword ptr [ebp+edx*8-1248h],eax
00401ffd 898cd5bcedffff  mov     dword ptr [ebp+edx*8-1244h],ecx
00402004 81fe00100000    cmp     esi,1000h
0040200a 7c84            jl      image00400000+0x1f90 (00401f90)
0040200c 8a95a4edffff    mov     dl,byte ptr [ebp-125Ch]
00402012 897df4          mov     dword ptr [ebp-0Ch],edi
00402015 8855f8          mov     byte ptr [ebp-8],dl
00402018 899db4edffff    mov     dword ptr [ebp-124Ch],ebx
0040201e eb02            jmp     image00400000+0x2022 (00402022)
00402020 33db            xor     ebx,ebx
00402022 8b85b4edffff    mov     eax,dword ptr [ebp-124Ch]
00402028 0fb64405f4      movzx   eax,byte ptr [ebp+eax-0Ch]
0040202d 6aff            push    0FFFFFFFFh
0040202f 99              cdq
00402030 6aff            push    0FFFFFFFFh
00402032 53              push    ebx
00402033 8bf0            mov     esi,eax
00402035 8bfa            mov     edi,edx
00402037 8bc2            mov     eax,edx
00402039 6a04            push    4
0040203b 50              push    eax
0040203c 56              push    esi
0040203d e89efbffff      call    image00400000+0x1be0 (00401be0)
00402042 83c418          add     esp,18h
00402045 57              push    edi
00402046 56              push    esi
00402047 52              push    edx
00402048 50              push    eax
00402049 e812740000      call    image00400000+0x9460 (00409460)
0040204e 6aff            push    0FFFFFFFFh
00402050 6aff            push    0FFFFFFFFh
00402052 52              push    edx
00402053 50              push    eax
00402054 e827a10000      call    image00400000+0xc180 (0040c180)
00402059 6aff            push    0FFFFFFFFh
0040205b 6aff            push    0FFFFFFFFh
0040205d 6a00            push    0
0040205f 6a02            push    2
00402061 57              push    edi
00402062 56              push    esi
00402063 8bd8            mov     ebx,eax
00402065 8955ec          mov     dword ptr [ebp-14h],edx
00402068 e873fbffff      call    image00400000+0x1be0 (00401be0)
0040206d 83c418          add     esp,18h
00402070 52              push    edx
00402071 50              push    eax
00402072 52              push    edx
00402073 50              push    eax
00402074 e8e7730000      call    image00400000+0x9460 (00409460)
00402079 6aff            push    0FFFFFFFFh
0040207b 6aff            push    0FFFFFFFFh
0040207d 52              push    edx
0040207e 50              push    eax
0040207f e8fca00000      call    image00400000+0xc180 (0040c180)
00402084 8b8dbcedffff    mov     ecx,dword ptr [ebp-1244h]
0040208a 51              push    ecx
0040208b 8b8db8edffff    mov     ecx,dword ptr [ebp-1248h]
00402091 51              push    ecx
00402092 52              push    edx
00402093 50              push    eax
00402094 e8c7730000      call    image00400000+0x9460 (00409460)
00402099 6aff            push    0FFFFFFFFh
0040209b 2bd8            sub     ebx,eax
0040209d 8b45ec          mov     eax,dword ptr [ebp-14h]
004020a0 6aff            push    0FFFFFFFFh
004020a2 6a00            push    0
004020a4 1bc2            sbb     eax,edx
004020a6 8bcf            mov     ecx,edi
004020a8 6a02            push    2
004020aa 8985a4edffff    mov     dword ptr [ebp-125Ch],eax
004020b0 8bc6            mov     eax,esi
004020b2 51              push    ecx
004020b3 50              push    eax
004020b4 e827fbffff      call    image00400000+0x1be0 (00401be0)
004020b9 83c418          add     esp,18h
004020bc 57              push    edi
004020bd 56              push    esi
004020be 52              push    edx
004020bf 50              push    eax
004020c0 e89b730000      call    image00400000+0x9460 (00409460)
004020c5 6aff            push    0FFFFFFFFh
004020c7 6aff            push    0FFFFFFFFh
004020c9 52              push    edx
004020ca 50              push    eax
004020cb e8b0a00000      call    image00400000+0xc180 (0040c180)
004020d0 8b8dc4edffff    mov     ecx,dword ptr [ebp-123Ch]
004020d6 51              push    ecx
004020d7 8b8dc0edffff    mov     ecx,dword ptr [ebp-1240h]
004020dd 51              push    ecx
004020de 52              push    edx
004020df 50              push    eax
004020e0 e87b730000      call    image00400000+0x9460 (00409460)
004020e5 6aff            push    0FFFFFFFFh
004020e7 6aff            push    0FFFFFFFFh
004020e9 6a00            push    0
004020eb 6a01            push    1
004020ed 03d8            add     ebx,eax
004020ef 1195a4edffff    adc     dword ptr [ebp-125Ch],edx
004020f5 57              push    edi
004020f6 56              push    esi
004020f7 e8e4faffff      call    image00400000+0x1be0 (00401be0)
004020fc 83c418          add     esp,18h
004020ff 52              push    edx
00402100 50              push    eax
00402101 52              push    edx
00402102 50              push    eax
00402103 e858730000      call    image00400000+0x9460 (00409460)
00402108 6aff            push    0FFFFFFFFh
0040210a 6aff            push    0FFFFFFFFh
0040210c 52              push    edx
0040210d 50              push    eax
0040210e e86da00000      call    image00400000+0xc180 (0040c180)
00402113 8995acedffff    mov     dword ptr [ebp-1254h],edx
00402119 8b95d4edffff    mov     edx,dword ptr [ebp-122Ch]
0040211f 52              push    edx
00402120 8985a8edffff    mov     dword ptr [ebp-1258h],eax
00402126 8b85d0edffff    mov     eax,dword ptr [ebp-1230h]
0040212c 50              push    eax
0040212d 57              push    edi
0040212e 56              push    esi
0040212f e82c730000      call    image00400000+0x9460 (00409460)
00402134 8b8dccedffff    mov     ecx,dword ptr [ebp-1234h]
0040213a 51              push    ecx
0040213b 8b8da8edffff    mov     ecx,dword ptr [ebp-1258h]
00402141 8bfa            mov     edi,edx
00402143 8b95c8edffff    mov     edx,dword ptr [ebp-1238h]
00402149 8bf0            mov     esi,eax
0040214b 8b85acedffff    mov     eax,dword ptr [ebp-1254h]
00402151 52              push    edx
00402152 50              push    eax
00402153 51              push    ecx
00402154 e807730000      call    image00400000+0x9460 (00409460)
00402159 2bf0            sub     esi,eax
0040215b 1bfa            sbb     edi,edx
0040215d 2bb5d8edffff    sub     esi,dword ptr [ebp-1228h]
00402163 1bbddcedffff    sbb     edi,dword ptr [ebp-1224h]
00402169 03f3            add     esi,ebx
0040216b 13bda4edffff    adc     edi,dword ptr [ebp-125Ch]
00402171 85f6            test    esi,esi
00402173 0f85d8fcffff    jne     image00400000+0x1e51 (00401e51)
00402179 85ff            test    edi,edi
0040217b 0f85d0fcffff    jne     image00400000+0x1e51 (00401e51)
00402181 8b85b4edffff    mov     eax,dword ptr [ebp-124Ch]
00402187 40              inc     eax
00402188 8985b4edffff    mov     dword ptr [ebp-124Ch],eax
0040218e 83f805          cmp     eax,5
00402191 0f8c89feffff    jl      image00400000+0x2020 (00402020)
00402197 8b4dfc          mov     ecx,dword ptr [ebp-4]
0040219a 5f              pop     edi
0040219b 5e              pop     esi
0040219c 33cd            xor     ecx,ebp
0040219e b001            mov     al,1
004021a0 5b              pop     ebx
004021a1 e855030000      call    image00400000+0x24fb (004024fb)
004021a6 8be5            mov     esp,ebp
004021a8 5d              pop     ebp
004021a9 c3              ret
004021aa cc              int     3
004021ab cc              int     3
004021ac cc              int     3
004021ad cc              int     3
004021ae cc              int     3
004021af cc              int     3
004021b0 55              push    ebp
004021b1 8bec            mov     ebp,esp
004021b3 83ec38          sub     esp,38h
004021b6 a104004100      mov     eax,dword ptr [image00400000+0x10004 (00410004)]
004021bb 33c5            xor     eax,ebp
004021bd 8945fc          mov     dword ptr [ebp-4],eax
004021c0 33c0            xor     eax,eax
004021c2 8d4dcc          lea     ecx,[ebp-34h]
004021c5 51              push    ecx
004021c6 668945cc        mov     word ptr [ebp-34h],ax
004021ca 8945ce          mov     dword ptr [ebp-32h],eax
004021cd 8945d2          mov     dword ptr [ebp-2Eh],eax
004021d0 8945d6          mov     dword ptr [ebp-2Ah],eax
004021d3 668945da        mov     word ptr [ebp-26h],ax
004021d7 ff1568d04000    call    dword ptr [image00400000+0xd068 (0040d068)]
004021dd 8b55d4          mov     edx,dword ptr [ebp-2Ch]
004021e0 8b4dce          mov     ecx,dword ptr [ebp-32h]
004021e3 33c0            xor     eax,eax
004021e5 8945dd          mov     dword ptr [ebp-23h],eax
004021e8 8945e1          mov     dword ptr [ebp-1Fh],eax
004021eb 8945e5          mov     dword ptr [ebp-1Bh],eax
004021ee 8945e9          mov     dword ptr [ebp-17h],eax
004021f1 8945ed          mov     dword ptr [ebp-13h],eax
004021f4 8945f1          mov     dword ptr [ebp-0Fh],eax
004021f7 8945f5          mov     dword ptr [ebp-0Bh],eax
004021fa 668945f9        mov     word ptr [ebp-7],ax
004021fe 8845fb          mov     byte ptr [ebp-5],al
00402201 8b45d2          mov     eax,dword ptr [ebp-2Eh]
00402204 f7d2            not     edx
00402206 81e2ffff0000    and     edx,0FFFFh
0040220c 52              push    edx
0040220d 8b55cc          mov     edx,dword ptr [ebp-34h]
00402210 f7d0            not     eax
00402212 25ffff0000      and     eax,0FFFFh
00402217 50              push    eax
00402218 f7d1            not     ecx
0040221a 81e1ffff0000    and     ecx,0FFFFh
00402220 51              push    ecx
00402221 f7d2            not     edx
00402223 81e2ffff0000    and     edx,0FFFFh
00402229 52              push    edx
0040222a 8d45dc          lea     eax,[ebp-24h]
0040222d 6838ee4000      push    offset image00400000+0xee38 (0040ee38)
00402232 50              push    eax
00402233 c645dc00        mov     byte ptr [ebp-24h],0
00402237 e8ce020000      call    image00400000+0x250a (0040250a)
0040223c 83c418          add     esp,18h
0040223f 8d4ddc          lea     ecx,[ebp-24h]
00402242 51              push    ecx
00402243 56              push    esi
00402244 ff1570d04000    call    dword ptr [image00400000+0xd070 (0040d070)]
0040224a 85c0            test    eax,eax
0040224c 7510            jne     image00400000+0x225e (0040225e)
0040224e 32c0            xor     al,al
00402250 8b4dfc          mov     ecx,dword ptr [ebp-4]
00402253 33cd            xor     ecx,ebp
00402255 e8a1020000      call    image00400000+0x24fb (004024fb)
0040225a 8be5            mov     esp,ebp
0040225c 5d              pop     ebp
0040225d c3              ret
0040225e ffd0            call    eax
00402260 8b4dfc          mov     ecx,dword ptr [ebp-4]
00402263 3d37133735      cmp     eax,35371337h
00402268 0f94c0          sete    al
0040226b 33cd            xor     ecx,ebp
0040226d e889020000      call    image00400000+0x24fb (004024fb)
00402272 8be5            mov     esp,ebp
00402274 5d              pop     ebp
00402275 c3              ret
00402276 cc              int     3
00402277 cc              int     3
00402278 cc              int     3
00402279 cc              int     3
0040227a cc              int     3
0040227b cc              int     3
0040227c cc              int     3
0040227d cc              int     3
0040227e cc              int     3
0040227f cc              int     3
00402280 55              push    ebp
00402281 8bec            mov     ebp,esp
00402283 83e4f8          and     esp,0FFFFFFF8h
00402286 83ec08          sub     esp,8
00402289 53              push    ebx
0040228a 56              push    esi
0040228b 6a00            push    0
0040228d 6a00            push    0
0040228f 57              push    edi
00402290 6830144000      push    offset image00400000+0x1430 (00401430)
00402295 6a00            push    0
00402297 6a00            push    0
00402299 ff155cd04000    call    dword ptr [image00400000+0xd05c (0040d05c)]
0040229f 57              push    edi
004022a0 e83bf0ffff      call    image00400000+0x12e0 (004012e0)
004022a5 83c404          add     esp,4
004022a8 8944240c        mov     dword ptr [esp+0Ch],eax
004022ac 85c0            test    eax,eax
004022ae 0f84b5000000    je      image00400000+0x2369 (00402369)
004022b4 8b3570d14000    mov     esi,dword ptr [image00400000+0xd170 (0040d170)]
004022ba 6a00            push    0
004022bc bb01000000      mov     ebx,1
004022c1 53              push    ebx
004022c2 68f1000000      push    0F1h
004022c7 68eb030000      push    3EBh
004022cc 57              push    edi
004022cd ffd6            call    esi
004022cf 8b4c240c        mov     ecx,dword ptr [esp+0Ch]
004022d3 e808f8ffff      call    image00400000+0x1ae0 (00401ae0)
004022d8 84c0            test    al,al
004022da 7415            je      image00400000+0x22f1 (004022f1)
004022dc 6a00            push    0
004022de 53              push    ebx
004022df 68f1000000      push    0F1h
004022e4 68ec030000      push    3ECh
004022e9 57              push    edi
004022ea ffd6            call    esi
004022ec bb02000000      mov     ebx,2
004022f1 8b4c240c        mov     ecx,dword ptr [esp+0Ch]
004022f5 e876f9ffff      call    image00400000+0x1c70 (00401c70)
004022fa 84c0            test    al,al
004022fc 7412            je      image00400000+0x2310 (00402310)
004022fe 6a00            push    0
00402300 6a01            push    1
00402302 68f1000000      push    0F1h
00402307 68ed030000      push    3EDh
0040230c 57              push    edi
0040230d ffd6            call    esi
0040230f 43              inc     ebx
00402310 8b4c240c        mov     ecx,dword ptr [esp+0Ch]
00402314 e807fbffff      call    image00400000+0x1e20 (00401e20)
00402319 84c0            test    al,al
0040231b 7412            je      image00400000+0x232f (0040232f)
0040231d 6a00            push    0
0040231f 6a01            push    1
00402321 68f1000000      push    0F1h
00402326 68ee030000      push    3EEh
0040232b 57              push    edi
0040232c ffd6            call    esi
0040232e 43              inc     ebx
0040232f 8b74240c        mov     esi,dword ptr [esp+0Ch]
00402333 e878feffff      call    image00400000+0x21b0 (004021b0)
00402338 84c0            test    al,al
0040233a 7416            je      image00400000+0x2352 (00402352)
0040233c 6a00            push    0
0040233e 6a01            push    1
00402340 68f1000000      push    0F1h
00402345 68ef030000      push    3EFh
0040234a 57              push    edi
0040234b ff1570d14000    call    dword ptr [image00400000+0xd170 (0040d170)]
00402351 43              inc     ebx
00402352 83fb05          cmp     ebx,5
00402355 7512            jne     image00400000+0x2369 (00402369)
00402357 6867666676      push    76666667h
0040235c e86fedffff      call    image00400000+0x10d0 (004010d0)
00402361 83c404          add     esp,4
00402364 a3641b4100      mov     dword ptr [image00400000+0x11b64 (00411b64)],eax
00402369 5e              pop     esi
0040236a 5b              pop     ebx
0040236b 8be5            mov     esp,ebp
0040236d 5d              pop     ebp
0040236e c3              ret
0040236f cc              int     3
00402370 55              push    ebp
00402371 8bec            mov     ebp,esp
00402373 8b450c          mov     eax,dword ptr [ebp+0Ch]
00402376 56              push    esi
00402377 3d38010000      cmp     eax,138h
0040237c 0f87b6000000    ja      image00400000+0x2438 (00402438)
00402382 0f848b000000    je      image00400000+0x2413 (00402413)
00402388 83e810          sub     eax,10h
0040238b 744b            je      image00400000+0x23d8 (004023d8)
0040238d 2d00010000      sub     eax,100h
00402392 7430            je      image00400000+0x23c4 (004023c4)
00402394 48              dec     eax
00402395 0f85a9000000    jne     image00400000+0x2444 (00402444)
0040239b b8e9030000      mov     eax,3E9h
004023a0 663b4510        cmp     ax,word ptr [ebp+10h]
004023a4 0f85f8000000    jne     image00400000+0x24a2 (004024a2)
004023aa 8b4d08          mov     ecx,dword ptr [ebp+8]
004023ad 6a00            push    0
004023af 6a00            push    0
004023b1 6a10            push    10h
004023b3 51              push    ecx
004023b4 ff157cd14000    call    dword ptr [image00400000+0xd17c (0040d17c)]
004023ba b801000000      mov     eax,1
004023bf 5e              pop     esi
004023c0 5d              pop     ebp
004023c1 c21000          ret     10h
004023c4 57              push    edi
004023c5 8b7d08          mov     edi,dword ptr [ebp+8]
004023c8 e8b3feffff      call    image00400000+0x2280 (00402280)
004023cd 5f              pop     edi
004023ce b801000000      mov     eax,1
004023d3 5e              pop     esi
004023d4 5d              pop     ebp
004023d5 c21000          ret     10h
004023d8 803d6a1b410000  cmp     byte ptr [image00400000+0x11b6a (00411b6a)],0
004023df c605691b410001  mov     byte ptr [image00400000+0x11b69 (00411b69)],1
004023e6 7515            jne     image00400000+0x23fd (004023fd)
004023e8 8b3578d04000    mov     esi,dword ptr [image00400000+0xd078 (0040d078)]
004023ee 8bff            mov     edi,edi
004023f0 6a64            push    64h
004023f2 ffd6            call    esi
004023f4 803d6a1b410000  cmp     byte ptr [image00400000+0x11b6a (00411b6a)],0
004023fb 74f3            je      image00400000+0x23f0 (004023f0)
004023fd 8b5508          mov     edx,dword ptr [ebp+8]
00402400 6a00            push    0
00402402 52              push    edx
00402403 ff156cd14000    call    dword ptr [image00400000+0xd16c (0040d16c)]
00402409 b801000000      mov     eax,1
0040240e 5e              pop     esi
0040240f 5d              pop     ebp
00402410 c21000          ret     10h
00402413 8b7510          mov     esi,dword ptr [ebp+10h]
00402416 68ffffff00      push    0FFFFFFh
0040241b 56              push    esi
0040241c ff1508d04000    call    dword ptr [image00400000+0xd008 (0040d008)]
00402422 6a01            push    1
00402424 56              push    esi
00402425 ff1514d04000    call    dword ptr [image00400000+0xd014 (0040d014)]
0040242b 6a05            push    5
0040242d ff1530d04000    call    dword ptr [image00400000+0xd030 (0040d030)]
00402433 5e              pop     esi
00402434 5d              pop     ebp
00402435 c21000          ret     10h
00402438 2d00020000      sub     eax,200h
0040243d 7441            je      image00400000+0x2480 (00402480)
0040243f 83e803          sub     eax,3
00402442 7407            je      image00400000+0x244b (0040244b)
00402444 33c0            xor     eax,eax
00402446 5e              pop     esi
00402447 5d              pop     ebp
00402448 c21000          ret     10h
0040244b 8b4514          mov     eax,dword ptr [ebp+14h]
0040244e 8d48ec          lea     ecx,[eax-14h]
00402451 6683f941        cmp     cx,41h
00402455 774b            ja      image00400000+0x24a2 (004024a2)
00402457 c1e810          shr     eax,10h
0040245a 6683f814        cmp     ax,14h
0040245e 7242            jb      image00400000+0x24a2 (004024a2)
00402460 6683f82d        cmp     ax,2Dh
00402464 773c            ja      image00400000+0x24a2 (004024a2)
00402466 803d681b410000  cmp     byte ptr [image00400000+0x11b68 (00411b68)],0
0040246d b801000000      mov     eax,1
00402472 0f94c2          sete    dl
00402475 8815681b4100    mov     byte ptr [image00400000+0x11b68 (00411b68)],dl
0040247b 5e              pop     esi
0040247c 5d              pop     ebp
0040247d c21000          ret     10h
00402480 837d1001        cmp     dword ptr [ebp+10h],1
00402484 751c            jne     image00400000+0x24a2 (004024a2)
00402486 ff1578d14000    call    dword ptr [image00400000+0xd178 (0040d178)]
0040248c 8b4508          mov     eax,dword ptr [ebp+8]
0040248f 6a00            push    0
00402491 6812f00000      push    0F012h
00402496 6812010000      push    112h
0040249b 50              push    eax
0040249c ff157cd14000    call    dword ptr [image00400000+0xd17c (0040d17c)]
004024a2 b801000000      mov     eax,1
004024a7 5e              pop     esi
004024a8 5d              pop     ebp
004024a9 c21000          ret     10h
004024ac cc              int     3
004024ad cc              int     3
004024ae cc              int     3
004024af cc              int     3
004024b0 55              push    ebp
004024b1 8bec            mov     ebp,esp
004024b3 6a00            push    0
004024b5 e8a3060000      call    image00400000+0x2b5d (00402b5d)
004024ba 50              push    eax
004024bb e8b8030000      call    image00400000+0x2878 (00402878)
004024c0 8b4508          mov     eax,dword ptr [ebp+8]
004024c3 83c408          add     esp,8
004024c6 6a00            push    0
004024c8 6870234000      push    offset image00400000+0x2370 (00402370)
004024cd 6a00            push    0
004024cf 6a65            push    65h
004024d1 50              push    eax
004024d2 ff155cd14000    call    dword ptr [image00400000+0xd15c (0040d15c)]
004024d8 33c0            xor     eax,eax
004024da 5d              pop     ebp
004024db c21000          ret     10h
004024de cc              int     3
004024df cc              int     3
004024e0 55              push    ebp
004024e1 8bec            mov     ebp,esp
004024e3 8b4d08          mov     ecx,dword ptr [ebp+8]
004024e6 8d450c          lea     eax,[ebp+0Ch]
004024e9 50              push    eax
004024ea 51              push    ecx
004024eb 6800010000      push    100h
004024f0 52              push    edx
004024f1 e865030000      call    image00400000+0x285b (0040285b)
004024f6 83c410          add     esp,10h
004024f9 5d              pop     ebp
004024fa c3              ret
004024fb 3b0d04004100    cmp     ecx,dword ptr [image00400000+0x10004 (00410004)]
00402501 7502            jne     image00400000+0x2505 (00402505)
00402503 f3c3            rep ret
00402505 e944080000      jmp     image00400000+0x2d4e (00402d4e)
0040250a 8bff            mov     edi,edi
0040250c 55              push    ebp
0040250d 8bec            mov     ebp,esp
0040250f 83ec20          sub     esp,20h
00402512 53              push    ebx
00402513 57              push    edi
00402514 33db            xor     ebx,ebx
00402516 6a07            push    7
00402518 33c0            xor     eax,eax
0040251a 59              pop     ecx
0040251b 8d7de4          lea     edi,[ebp-1Ch]
0040251e 895de0          mov     dword ptr [ebp-20h],ebx
00402521 f3ab            rep stos dword ptr es:[edi]
00402523 395d0c          cmp     dword ptr [ebp+0Ch],ebx
00402526 7515            jne     image00400000+0x253d (0040253d)
00402528 e804190000      call    image00400000+0x3e31 (00403e31)
0040252d c70016000000    mov     dword ptr [eax],16h
00402533 e8a7180000      call    image00400000+0x3ddf (00403ddf)
00402538 83c8ff          or      eax,0FFFFFFFFh
0040253b eb4d            jmp     image00400000+0x258a (0040258a)
0040253d 8b4508          mov     eax,dword ptr [ebp+8]
00402540 3bc3            cmp     eax,ebx
00402542 74e4            je      image00400000+0x2528 (00402528)
00402544 56              push    esi
00402545 8945e8          mov     dword ptr [ebp-18h],eax
00402548 8945e0          mov     dword ptr [ebp-20h],eax
0040254b 8d4510          lea     eax,[ebp+10h]
0040254e 50              push    eax
0040254f 53              push    ebx
00402550 ff750c          push    dword ptr [ebp+0Ch]
00402553 8d45e0          lea     eax,[ebp-20h]
00402556 50              push    eax
00402557 c745e4ffffff7f  mov     dword ptr [ebp-1Ch],7FFFFFFFh
0040255e c745ec42000000  mov     dword ptr [ebp-14h],42h
00402565 e8e30a0000      call    image00400000+0x304d (0040304d)
0040256a 83c410          add     esp,10h
0040256d ff4de4          dec     dword ptr [ebp-1Ch]
00402570 8bf0            mov     esi,eax
00402572 7807            js      image00400000+0x257b (0040257b)
00402574 8b45e0          mov     eax,dword ptr [ebp-20h]
00402577 8818            mov     byte ptr [eax],bl
00402579 eb0c            jmp     image00400000+0x2587 (00402587)
0040257b 8d45e0          lea     eax,[ebp-20h]
0040257e 50              push    eax
0040257f 53              push    ebx
00402580 e8cf080000      call    image00400000+0x2e54 (00402e54)
00402585 59              pop     ecx
00402586 59              pop     ecx
00402587 8bc6            mov     eax,esi
00402589 5e              pop     esi
0040258a 5f              pop     edi
0040258b 5b              pop     ebx
0040258c c9              leave
0040258d c3              ret
0040258e 8bff            mov     edi,edi
00402590 55              push    ebp
00402591 8bec            mov     ebp,esp
00402593 83ec20          sub     esp,20h
00402596 8365e000        and     dword ptr [ebp-20h],0
0040259a 57              push    edi
0040259b 6a07            push    7
0040259d 59              pop     ecx
0040259e 33c0            xor     eax,eax
004025a0 8d7de4          lea     edi,[ebp-1Ch]
004025a3 f3ab            rep stos dword ptr es:[edi]
004025a5 5f              pop     edi
004025a6 85f6            test    esi,esi
004025a8 7515            jne     image00400000+0x25bf (004025bf)
004025aa e882180000      call    image00400000+0x3e31 (00403e31)
004025af c70016000000    mov     dword ptr [eax],16h
004025b5 e825180000      call    image00400000+0x3ddf (00403ddf)
004025ba 83c8ff          or      eax,0FFFFFFFFh
004025bd c9              leave
004025be c3              ret
004025bf 39450c          cmp     dword ptr [ebp+0Ch],eax
004025c2 74e6            je      image00400000+0x25aa (004025aa)
004025c4 56              push    esi
004025c5 e8b6180000      call    image00400000+0x3e80 (00403e80)
004025ca 59              pop     ecx
004025cb b9ffffff7f      mov     ecx,7FFFFFFFh
004025d0 c745ec49000000  mov     dword ptr [ebp-14h],49h
004025d7 8975e8          mov     dword ptr [ebp-18h],esi
004025da 8975e0          mov     dword ptr [ebp-20h],esi
004025dd 894de4          mov     dword ptr [ebp-1Ch],ecx
004025e0 3bc1            cmp     eax,ecx
004025e2 7703            ja      image00400000+0x25e7 (004025e7)
004025e4 8945e4          mov     dword ptr [ebp-1Ch],eax
004025e7 ff7514          push    dword ptr [ebp+14h]
004025ea 8d45e0          lea     eax,[ebp-20h]
004025ed ff7510          push    dword ptr [ebp+10h]
004025f0 ff750c          push    dword ptr [ebp+0Ch]
004025f3 50              push    eax
004025f4 ff5508          call    dword ptr [ebp+8]
004025f7 83c410          add     esp,10h
004025fa c9              leave
004025fb c3              ret
004025fc 8bff            mov     edi,edi
004025fe 55              push    ebp
004025ff 8bec            mov     ebp,esp
00402601 56              push    esi
00402602 8b7508          mov     esi,dword ptr [ebp+8]
00402605 8d4510          lea     eax,[ebp+10h]
00402608 50              push    eax
00402609 6a00            push    0
0040260b ff750c          push    dword ptr [ebp+0Ch]
0040260e 68c23f4000      push    offset image00400000+0x3fc2 (00403fc2)
00402613 e876ffffff      call    image00400000+0x258e (0040258e)
00402618 83c410          add     esp,10h
0040261b 5e              pop     esi
0040261c 5d              pop     ebp
0040261d c3              ret
0040261e 8bff            mov     edi,edi
00402620 55              push    ebp
00402621 8bec            mov     ebp,esp
00402623 837d0800        cmp     dword ptr [ebp+8],0
00402627 742d            je      image00400000+0x2656 (00402656)
00402629 ff7508          push    dword ptr [ebp+8]
0040262c 6a00            push    0
0040262e ff3518124100    push    dword ptr [image00400000+0x11218 (00411218)]
00402634 ff1588d04000    call    dword ptr [image00400000+0xd088 (0040d088)]
0040263a 85c0            test    eax,eax
0040263c 7518            jne     image00400000+0x2656 (00402656)
0040263e 56              push    esi
0040263f e8ed170000      call    image00400000+0x3e31 (00403e31)
00402644 8bf0            mov     esi,eax
00402646 ff1584d04000    call    dword ptr [image00400000+0xd084 (0040d084)]
0040264c 50              push    eax
0040264d e89d170000      call    image00400000+0x3def (00403def)
00402652 59              pop     ecx
00402653 8906            mov     dword ptr [esi],eax
00402655 5e              pop     esi
00402656 5d              pop     ebp
00402657 c3              ret
00402658 8bff            mov     edi,edi
0040265a 55              push    ebp
0040265b 8bec            mov     ebp,esp
0040265d 53              push    ebx
0040265e 8b5d08          mov     ebx,dword ptr [ebp+8]
00402661 83fbe0          cmp     ebx,0FFFFFFE0h
00402664 776f            ja      image00400000+0x26d5 (004026d5)
00402666 56              push    esi
00402667 57              push    edi
00402668 833d1812410000  cmp     dword ptr [image00400000+0x11218 (00411218)],0
0040266f 7518            jne     image00400000+0x2689 (00402689)
00402671 e82e2e0000      call    image00400000+0x54a4 (004054a4)
00402676 6a1e            push    1Eh
00402678 e8782c0000      call    image00400000+0x52f5 (004052f5)
0040267d 68ff000000      push    0FFh
00402682 e888290000      call    image00400000+0x500f (0040500f)
00402687 59              pop     ecx
00402688 59              pop     ecx
00402689 85db            test    ebx,ebx
0040268b 7404            je      image00400000+0x2691 (00402691)
0040268d 8bc3            mov     eax,ebx
0040268f eb03            jmp     image00400000+0x2694 (00402694)
00402691 33c0            xor     eax,eax
00402693 40              inc     eax
00402694 50              push    eax
00402695 6a00            push    0
00402697 ff3518124100    push    dword ptr [image00400000+0x11218 (00411218)]
0040269d ff158cd04000    call    dword ptr [image00400000+0xd08c (0040d08c)]
004026a3 8bf8            mov     edi,eax
004026a5 85ff            test    edi,edi
004026a7 7526            jne     image00400000+0x26cf (004026cf)
004026a9 6a0c            push    0Ch
004026ab 5e              pop     esi
004026ac 39057c184100    cmp     dword ptr [image00400000+0x1187c (0041187c)],eax
004026b2 740d            je      image00400000+0x26c1 (004026c1)
004026b4 53              push    ebx
004026b5 e8322e0000      call    image00400000+0x54ec (004054ec)
004026ba 59              pop     ecx
004026bb 85c0            test    eax,eax
004026bd 75a9            jne     image00400000+0x2668 (00402668)
004026bf eb07            jmp     image00400000+0x26c8 (004026c8)
004026c1 e86b170000      call    image00400000+0x3e31 (00403e31)
004026c6 8930            mov     dword ptr [eax],esi
004026c8 e864170000      call    image00400000+0x3e31 (00403e31)
004026cd 8930            mov     dword ptr [eax],esi
004026cf 8bc7            mov     eax,edi
004026d1 5f              pop     edi
004026d2 5e              pop     esi
004026d3 eb14            jmp     image00400000+0x26e9 (004026e9)
004026d5 53              push    ebx
004026d6 e8112e0000      call    image00400000+0x54ec (004054ec)
004026db 59              pop     ecx
004026dc e850170000      call    image00400000+0x3e31 (00403e31)
004026e1 c7000c000000    mov     dword ptr [eax],0Ch
004026e7 33c0            xor     eax,eax
004026e9 5b              pop     ebx
004026ea 5d              pop     ebp
004026eb c3              ret
004026ec 8bff            mov     edi,edi
004026ee 55              push    ebp
004026ef 8bec            mov     ebp,esp
004026f1 83ec20          sub     esp,20h
004026f4 53              push    ebx
004026f5 57              push    edi
004026f6 33db            xor     ebx,ebx
004026f8 6a07            push    7
004026fa 33c0            xor     eax,eax
004026fc 59              pop     ecx
004026fd 8d7de4          lea     edi,[ebp-1Ch]
00402700 895de0          mov     dword ptr [ebp-20h],ebx
00402703 f3ab            rep stos dword ptr es:[edi]
00402705 395d14          cmp     dword ptr [ebp+14h],ebx
00402708 7518            jne     image00400000+0x2722 (00402722)
0040270a e822170000      call    image00400000+0x3e31 (00403e31)
0040270f c70016000000    mov     dword ptr [eax],16h
00402715 e8c5160000      call    image00400000+0x3ddf (00403ddf)
0040271a 83c8ff          or      eax,0FFFFFFFFh
0040271d e9bc000000      jmp     image00400000+0x27de (004027de)
00402722 8b7d10          mov     edi,dword ptr [ebp+10h]
00402725 56              push    esi
00402726 8b750c          mov     esi,dword ptr [ebp+0Ch]
00402729 3bfb            cmp     edi,ebx
0040272b 741c            je      image00400000+0x2749 (00402749)
0040272d 3bf3            cmp     esi,ebx
0040272f 7518            jne     image00400000+0x2749 (00402749)
00402731 e8fb160000      call    image00400000+0x3e31 (00403e31)
00402736 c70016000000    mov     dword ptr [eax],16h
0040273c e89e160000      call    image00400000+0x3ddf (00403ddf)
00402741 83c8ff          or      eax,0FFFFFFFFh
00402744 e994000000      jmp     image00400000+0x27dd (004027dd)
00402749 c745ec42000000  mov     dword ptr [ebp-14h],42h
00402750 8975e8          mov     dword ptr [ebp-18h],esi
00402753 8975e0          mov     dword ptr [ebp-20h],esi
00402756 81ffffffff3f    cmp     edi,3FFFFFFFh
0040275c 7609            jbe     image00400000+0x2767 (00402767)
0040275e c745e4ffffff7f  mov     dword ptr [ebp-1Ch],7FFFFFFFh
00402765 eb06            jmp     image00400000+0x276d (0040276d)
00402767 8d043f          lea     eax,[edi+edi]
0040276a 8945e4          mov     dword ptr [ebp-1Ch],eax
0040276d ff751c          push    dword ptr [ebp+1Ch]
00402770 8d45e0          lea     eax,[ebp-20h]
00402773 ff7518          push    dword ptr [ebp+18h]
00402776 ff7514          push    dword ptr [ebp+14h]
00402779 50              push    eax
0040277a ff5508          call    dword ptr [ebp+8]
0040277d 83c410          add     esp,10h
00402780 894514          mov     dword ptr [ebp+14h],eax
00402783 3bf3            cmp     esi,ebx
00402785 7456            je      image00400000+0x27dd (004027dd)
00402787 3bc3            cmp     eax,ebx
00402789 7c42            jl      image00400000+0x27cd (004027cd)
0040278b ff4de4          dec     dword ptr [ebp-1Ch]
0040278e 780a            js      image00400000+0x279a (0040279a)
00402790 8b45e0          mov     eax,dword ptr [ebp-20h]
00402793 8818            mov     byte ptr [eax],bl
00402795 ff45e0          inc     dword ptr [ebp-20h]
00402798 eb11            jmp     image00400000+0x27ab (004027ab)
0040279a 8d45e0          lea     eax,[ebp-20h]
0040279d 50              push    eax
0040279e 53              push    ebx
0040279f e8b0060000      call    image00400000+0x2e54 (00402e54)
004027a4 59              pop     ecx
004027a5 59              pop     ecx
004027a6 83f8ff          cmp     eax,0FFFFFFFFh
004027a9 7422            je      image00400000+0x27cd (004027cd)
004027ab ff4de4          dec     dword ptr [ebp-1Ch]
004027ae 7807            js      image00400000+0x27b7 (004027b7)
004027b0 8b45e0          mov     eax,dword ptr [ebp-20h]
004027b3 8818            mov     byte ptr [eax],bl
004027b5 eb11            jmp     image00400000+0x27c8 (004027c8)
004027b7 8d45e0          lea     eax,[ebp-20h]
004027ba 50              push    eax
004027bb 53              push    ebx
004027bc e893060000      call    image00400000+0x2e54 (00402e54)
004027c1 59              pop     ecx
004027c2 59              pop     ecx
004027c3 83f8ff          cmp     eax,0FFFFFFFFh
004027c6 7405            je      image00400000+0x27cd (004027cd)
004027c8 8b4514          mov     eax,dword ptr [ebp+14h]
004027cb eb10            jmp     image00400000+0x27dd (004027dd)
004027cd 33c0            xor     eax,eax
004027cf 395de4          cmp     dword ptr [ebp-1Ch],ebx
004027d2 6689447efe      mov     word ptr [esi+edi*2-2],ax
004027d7 0f9dc0          setge   al
004027da 83e802          sub     eax,2
004027dd 5e              pop     esi
004027de 5f              pop     edi
004027df 5b              pop     ebx
004027e0 c9              leave
004027e1 c3              ret
004027e2 8bff            mov     edi,edi
004027e4 55              push    ebp
004027e5 8bec            mov     ebp,esp
004027e7 837d1000        cmp     dword ptr [ebp+10h],0
004027eb 7515            jne     image00400000+0x2802 (00402802)
004027ed e83f160000      call    image00400000+0x3e31 (00403e31)
004027f2 c70016000000    mov     dword ptr [eax],16h
004027f8 e8e2150000      call    image00400000+0x3ddf (00403ddf)
004027fd 83c8ff          or      eax,0FFFFFFFFh
00402800 5d              pop     ebp
00402801 c3              ret
00402802 56              push    esi
00402803 8b7508          mov     esi,dword ptr [ebp+8]
00402806 85f6            test    esi,esi
00402808 7406            je      image00400000+0x2810 (00402810)
0040280a 837d0c00        cmp     dword ptr [ebp+0Ch],0
0040280e 770d            ja      image00400000+0x281d (0040281d)
00402810 e81c160000      call    image00400000+0x3e31 (00403e31)
00402815 c70016000000    mov     dword ptr [eax],16h
0040281b eb33            jmp     image00400000+0x2850 (00402850)
0040281d ff7518          push    dword ptr [ebp+18h]
00402820 ff7514          push    dword ptr [ebp+14h]
00402823 ff7510          push    dword ptr [ebp+10h]
00402826 ff750c          push    dword ptr [ebp+0Ch]
00402829 56              push    esi
0040282a 68aa554000      push    offset image00400000+0x55aa (004055aa)
0040282f e8b8feffff      call    image00400000+0x26ec (004026ec)
00402834 83c418          add     esp,18h
00402837 85c0            test    eax,eax
00402839 7905            jns     image00400000+0x2840 (00402840)
0040283b 33c9            xor     ecx,ecx
0040283d 66890e          mov     word ptr [esi],cx
00402840 83f8fe          cmp     eax,0FFFFFFFEh
00402843 7513            jne     image00400000+0x2858 (00402858)
00402845 e8e7150000      call    image00400000+0x3e31 (00403e31)
0040284a c70022000000    mov     dword ptr [eax],22h
00402850 e88a150000      call    image00400000+0x3ddf (00403ddf)
00402855 83c8ff          or      eax,0FFFFFFFFh
00402858 5e              pop     esi
00402859 5d              pop     ebp
0040285a c3              ret
0040285b 8bff            mov     edi,edi
0040285d 55              push    ebp
0040285e 8bec            mov     ebp,esp
00402860 ff7514          push    dword ptr [ebp+14h]
00402863 6a00            push    0
00402865 ff7510          push    dword ptr [ebp+10h]
00402868 ff750c          push    dword ptr [ebp+0Ch]
0040286b ff7508          push    dword ptr [ebp+8]
0040286e e86fffffff      call    image00400000+0x27e2 (004027e2)
00402873 83c414          add     esp,14h
00402876 5d              pop     ebp
00402877 c3              ret
00402878 8bff            mov     edi,edi
0040287a 55              push    ebp
0040287b 8bec            mov     ebp,esp
0040287d e8983a0000      call    image00400000+0x631a (0040631a)
00402882 8b4d08          mov     ecx,dword ptr [ebp+8]
00402885 894814          mov     dword ptr [eax+14h],ecx
00402888 5d              pop     ebp
00402889 c3              ret
0040288a e88b3a0000      call    image00400000+0x631a (0040631a)
0040288f 8bc8            mov     ecx,eax
00402891 8b4114          mov     eax,dword ptr [ecx+14h]
00402894 69c0fd430300    imul    eax,eax,343FDh
0040289a 05c39e2600      add     eax,269EC3h
0040289f 894114          mov     dword ptr [ecx+14h],eax
004028a2 c1e810          shr     eax,10h
004028a5 25ff7f0000      and     eax,7FFFh
004028aa c3              ret
004028ab 8bff            mov     edi,edi
004028ad 55              push    ebp
004028ae 8bec            mov     ebp,esp
004028b0 8b4508          mov     eax,dword ptr [ebp+8]
004028b3 85c0            test    eax,eax
004028b5 7412            je      image00400000+0x28c9 (004028c9)
004028b7 83e808          sub     eax,8
004028ba 8138dddd0000    cmp     dword ptr [eax],0DDDDh
004028c0 7507            jne     image00400000+0x28c9 (004028c9)
004028c2 50              push    eax
004028c3 e856fdffff      call    image00400000+0x261e (0040261e)
004028c8 59              pop     ecx
004028c9 5d              pop     ebp
004028ca c3              ret
004028cb 8bff            mov     edi,edi
004028cd 55              push    ebp
004028ce 8bec            mov     ebp,esp
004028d0 8b4508          mov     eax,dword ptr [ebp+8]
004028d3 56              push    esi
004028d4 8bf1            mov     esi,ecx
004028d6 c6460c00        mov     byte ptr [esi+0Ch],0
004028da 85c0            test    eax,eax
004028dc 7563            jne     image00400000+0x2941 (00402941)
004028de e8373a0000      call    image00400000+0x631a (0040631a)
004028e3 894608          mov     dword ptr [esi+8],eax
004028e6 8b486c          mov     ecx,dword ptr [eax+6Ch]
004028e9 890e            mov     dword ptr [esi],ecx
004028eb 8b4868          mov     ecx,dword ptr [eax+68h]
004028ee 894e04          mov     dword ptr [esi+4],ecx
004028f1 8b0e            mov     ecx,dword ptr [esi]
004028f3 3b0d00094100    cmp     ecx,dword ptr [image00400000+0x10900 (00410900)]
004028f9 7412            je      image00400000+0x290d (0040290d)
004028fb 8b0db8064100    mov     ecx,dword ptr [image00400000+0x106b8 (004106b8)]
00402901 854870          test    dword ptr [eax+70h],ecx
00402904 7507            jne     image00400000+0x290d (0040290d)
00402906 e877460000      call    image00400000+0x6f82 (00406f82)
0040290b 8906            mov     dword ptr [esi],eax
0040290d 8b4604          mov     eax,dword ptr [esi+4]
00402910 3b05c0054100    cmp     eax,dword ptr [image00400000+0x105c0 (004105c0)]
00402916 7416            je      image00400000+0x292e (0040292e)
00402918 8b4608          mov     eax,dword ptr [esi+8]
0040291b 8b0db8064100    mov     ecx,dword ptr [image00400000+0x106b8 (004106b8)]
00402921 854870          test    dword ptr [eax+70h],ecx
00402924 7508            jne     image00400000+0x292e (0040292e)
00402926 e8d63e0000      call    image00400000+0x6801 (00406801)
0040292b 894604          mov     dword ptr [esi+4],eax
0040292e 8b4608          mov     eax,dword ptr [esi+8]
00402931 f6407002        test    byte ptr [eax+70h],2
00402935 7514            jne     image00400000+0x294b (0040294b)
00402937 83487002        or      dword ptr [eax+70h],2
0040293b c6460c01        mov     byte ptr [esi+0Ch],1
0040293f eb0a            jmp     image00400000+0x294b (0040294b)
00402941 8b08            mov     ecx,dword ptr [eax]
00402943 890e            mov     dword ptr [esi],ecx
00402945 8b4004          mov     eax,dword ptr [eax+4]
00402948 894604          mov     dword ptr [esi+4],eax
0040294b 8bc6            mov     eax,esi
0040294d 5e              pop     esi
0040294e 5d              pop     ebp
0040294f c20400          ret     4
00402952 8bff            mov     edi,edi
00402954 55              push    ebp
00402955 8bec            mov     ebp,esp
00402957 51              push    ecx
00402958 51              push    ecx
00402959 a104004100      mov     eax,dword ptr [image00400000+0x10004 (00410004)]
0040295e 33c5            xor     eax,ebp
00402960 8945fc          mov     dword ptr [ebp-4],eax
00402963 53              push    ebx
00402964 56              push    esi
00402965 8bf1            mov     esi,ecx
00402967 33db            xor     ebx,ebx
00402969 57              push    edi
0040296a 3bf3            cmp     esi,ebx
0040296c 7514            jne     image00400000+0x2982 (00402982)
0040296e e8be140000      call    image00400000+0x3e31 (00403e31)
00402973 6a16            push    16h
00402975 5e              pop     esi
00402976 8930            mov     dword ptr [eax],esi
00402978 e862140000      call    image00400000+0x3ddf (00403ddf)
0040297d e92c010000      jmp     image00400000+0x2aae (00402aae)
00402982 ff7508          push    dword ptr [ebp+8]
00402985 56              push    esi
00402986 e802470000      call    image00400000+0x708d (0040708d)
0040298b 59              pop     ecx
0040298c 59              pop     ecx
0040298d 3b4508          cmp     eax,dword ptr [ebp+8]
00402990 7207            jb      image00400000+0x2999 (00402999)
00402992 33c0            xor     eax,eax
00402994 668906          mov     word ptr [esi],ax
00402997 ebd5            jmp     image00400000+0x296e (0040296e)
00402999 8b450c          mov     eax,dword ptr [ebp+0Ch]
0040299c 8b00            mov     eax,dword ptr [eax]
0040299e 8b4014          mov     eax,dword ptr [eax+14h]
004029a1 3bc3            cmp     eax,ebx
004029a3 7529            jne     image00400000+0x29ce (004029ce)
004029a5 8bc6            mov     eax,esi
004029a7 66391e          cmp     word ptr [esi],bx
004029aa 741b            je      image00400000+0x29c7 (004029c7)
004029ac 0fb708          movzx   ecx,word ptr [eax]
004029af 83f961          cmp     ecx,61h
004029b2 720b            jb      image00400000+0x29bf (004029bf)
004029b4 83f97a          cmp     ecx,7Ah
004029b7 7706            ja      image00400000+0x29bf (004029bf)
004029b9 83c1e0          add     ecx,0FFFFFFE0h
004029bc 668908          mov     word ptr [eax],cx
004029bf 83c002          add     eax,2
004029c2 663918          cmp     word ptr [eax],bx
004029c5 75e5            jne     image00400000+0x29ac (004029ac)
004029c7 33c0            xor     eax,eax
004029c9 e9e2000000      jmp     image00400000+0x2ab0 (00402ab0)
004029ce 53              push    ebx
004029cf 53              push    ebx
004029d0 6aff            push    0FFFFFFFFh
004029d2 56              push    esi
004029d3 bf00020000      mov     edi,200h
004029d8 57              push    edi
004029d9 50              push    eax
004029da e87f460000      call    image00400000+0x705e (0040705e)
004029df 8bc8            mov     ecx,eax
004029e1 83c418          add     esp,18h
004029e4 894df8          mov     dword ptr [ebp-8],ecx
004029e7 3bcb            cmp     ecx,ebx
004029e9 7517            jne     image00400000+0x2a02 (00402a02)
004029eb e841140000      call    image00400000+0x3e31 (00403e31)
004029f0 c7002a000000    mov     dword ptr [eax],2Ah
004029f6 e836140000      call    image00400000+0x3e31 (00403e31)
004029fb 8b00            mov     eax,dword ptr [eax]
004029fd e9ae000000      jmp     image00400000+0x2ab0 (00402ab0)
00402a02 394d08          cmp     dword ptr [ebp+8],ecx
00402a05 7311            jae     image00400000+0x2a18 (00402a18)
00402a07 33c0            xor     eax,eax
00402a09 668906          mov     word ptr [esi],ax
00402a0c e820140000      call    image00400000+0x3e31 (00403e31)
00402a11 6a22            push    22h
00402a13 e95dffffff      jmp     image00400000+0x2975 (00402975)
00402a18 3bcb            cmp     ecx,ebx
00402a1a 7e43            jle     image00400000+0x2a5f (00402a5f)
00402a1c 6ae0            push    0FFFFFFE0h
00402a1e 33d2            xor     edx,edx
00402a20 58              pop     eax
00402a21 f7f1            div     eax,ecx
00402a23 83f802          cmp     eax,2
00402a26 7237            jb      image00400000+0x2a5f (00402a5f)
00402a28 8d440908        lea     eax,[ecx+ecx+8]
00402a2c 3d00040000      cmp     eax,400h
00402a31 7713            ja      image00400000+0x2a46 (00402a46)
00402a33 e878460000      call    image00400000+0x70b0 (004070b0)
00402a38 8bc4            mov     eax,esp
00402a3a 3bc3            cmp     eax,ebx
00402a3c 741c            je      image00400000+0x2a5a (00402a5a)
00402a3e c700cccc0000    mov     dword ptr [eax],0CCCCh
00402a44 eb11            jmp     image00400000+0x2a57 (00402a57)
00402a46 50              push    eax
00402a47 e80cfcffff      call    image00400000+0x2658 (00402658)
00402a4c 59              pop     ecx
00402a4d 3bc3            cmp     eax,ebx
00402a4f 7409            je      image00400000+0x2a5a (00402a5a)
00402a51 c700dddd0000    mov     dword ptr [eax],0DDDDh
00402a57 83c008          add     eax,8
00402a5a 8b4df8          mov     ecx,dword ptr [ebp-8]
00402a5d 8bd8            mov     ebx,eax
00402a5f 85db            test    ebx,ebx
00402a61 750d            jne     image00400000+0x2a70 (00402a70)
00402a63 e8c9130000      call    image00400000+0x3e31 (00403e31)
00402a68 c7000c000000    mov     dword ptr [eax],0Ch
00402a6e eb86            jmp     image00400000+0x29f6 (004029f6)
00402a70 8b450c          mov     eax,dword ptr [ebp+0Ch]
00402a73 8b00            mov     eax,dword ptr [eax]
00402a75 51              push    ecx
00402a76 53              push    ebx
00402a77 6aff            push    0FFFFFFFFh
00402a79 56              push    esi
00402a7a 57              push    edi
00402a7b ff7014          push    dword ptr [eax+14h]
00402a7e e8db450000      call    image00400000+0x705e (0040705e)
00402a83 83c418          add     esp,18h
00402a86 85c0            test    eax,eax
00402a88 7411            je      image00400000+0x2a9b (00402a9b)
00402a8a 53              push    ebx
00402a8b ff7508          push    dword ptr [ebp+8]
00402a8e 56              push    esi
00402a8f e867450000      call    image00400000+0x6ffb (00406ffb)
00402a94 83c40c          add     esp,0Ch
00402a97 8bf0            mov     esi,eax
00402a99 eb0c            jmp     image00400000+0x2aa7 (00402aa7)
00402a9b e891130000      call    image00400000+0x3e31 (00403e31)
00402aa0 6a2a            push    2Ah
00402aa2 59              pop     ecx
00402aa3 8908            mov     dword ptr [eax],ecx
00402aa5 8bf1            mov     esi,ecx
00402aa7 53              push    ebx
00402aa8 e8fefdffff      call    image00400000+0x28ab (004028ab)
00402aad 59              pop     ecx
00402aae 8bc6            mov     eax,esi
00402ab0 8d65ec          lea     esp,[ebp-14h]
00402ab3 5f              pop     edi
00402ab4 5e              pop     esi
00402ab5 5b              pop     ebx
00402ab6 8b4dfc          mov     ecx,dword ptr [ebp-4]
00402ab9 33cd            xor     ecx,ebp
00402abb e83bfaffff      call    image00400000+0x24fb (004024fb)
00402ac0 c9              leave
00402ac1 c3              ret
00402ac2 8bff            mov     edi,edi
00402ac4 55              push    ebp
00402ac5 8bec            mov     ebp,esp
00402ac7 83ec10          sub     esp,10h
00402aca ff7510          push    dword ptr [ebp+10h]
00402acd 8d4df0          lea     ecx,[ebp-10h]
00402ad0 e8f6fdffff      call    image00400000+0x28cb (004028cb)
00402ad5 8b4d08          mov     ecx,dword ptr [ebp+8]
00402ad8 8d45f0          lea     eax,[ebp-10h]
00402adb 50              push    eax
00402adc ff750c          push    dword ptr [ebp+0Ch]
00402adf e86efeffff      call    image00400000+0x2952 (00402952)
00402ae4 807dfc00        cmp     byte ptr [ebp-4],0
00402ae8 59              pop     ecx
00402ae9 59              pop     ecx
00402aea 7407            je      image00400000+0x2af3 (00402af3)
00402aec 8b4df8          mov     ecx,dword ptr [ebp-8]
00402aef 836170fd        and     dword ptr [ecx+70h],0FFFFFFFDh
00402af3 c9              leave
00402af4 c3              ret
00402af5 8bff            mov     edi,edi
00402af7 55              push    ebp
00402af8 8bec            mov     ebp,esp
00402afa 833dac18410000  cmp     dword ptr [image00400000+0x118ac (004118ac)],0
00402b01 7546            jne     image00400000+0x2b49 (00402b49)
00402b03 8b4508          mov     eax,dword ptr [ebp+8]
00402b06 85c0            test    eax,eax
00402b08 7514            jne     image00400000+0x2b1e (00402b1e)
00402b0a e822130000      call    image00400000+0x3e31 (00403e31)
00402b0f c70016000000    mov     dword ptr [eax],16h
00402b15 e8c5120000      call    image00400000+0x3ddf (00403ddf)
00402b1a 33c0            xor     eax,eax
00402b1c 5d              pop     ebp
00402b1d c3              ret
00402b1e 66833800        cmp     word ptr [eax],0
00402b22 8bc8            mov     ecx,eax
00402b24 7435            je      image00400000+0x2b5b (00402b5b)
00402b26 57              push    edi
00402b27 0fb711          movzx   edx,word ptr [ecx]
00402b2a 6a61            push    61h
00402b2c 5f              pop     edi
00402b2d 663bfa          cmp     di,dx
00402b30 770b            ja      image00400000+0x2b3d (00402b3d)
00402b32 83fa7a          cmp     edx,7Ah
00402b35 7706            ja      image00400000+0x2b3d (00402b3d)
00402b37 83c2e0          add     edx,0FFFFFFE0h
00402b3a 668911          mov     word ptr [ecx],dx
00402b3d 83c102          add     ecx,2
00402b40 66833900        cmp     word ptr [ecx],0
00402b44 75e1            jne     image00400000+0x2b27 (00402b27)
00402b46 5f              pop     edi
00402b47 5d              pop     ebp
00402b48 c3              ret
00402b49 6a00            push    0
00402b4b 6aff            push    0FFFFFFFFh
00402b4d ff7508          push    dword ptr [ebp+8]
00402b50 e86dffffff      call    image00400000+0x2ac2 (00402ac2)
00402b55 8b4508          mov     eax,dword ptr [ebp+8]
00402b58 83c40c          add     esp,0Ch
00402b5b 5d              pop     ebp
00402b5c c3              ret
00402b5d 8bff            mov     edi,edi
00402b5f 55              push    ebp
00402b60 8bec            mov     ebp,esp
00402b62 51              push    ecx
00402b63 51              push    ecx
00402b64 8d45f8          lea     eax,[ebp-8]
00402b67 50              push    eax
00402b68 ff1590d04000    call    dword ptr [image00400000+0xd090 (0040d090)]
00402b6e 8b45f8          mov     eax,dword ptr [ebp-8]
00402b71 8b4dfc          mov     ecx,dword ptr [ebp-4]
00402b74 6a00            push    0
00402b76 050080c12a      add     eax,2AC18000h
00402b7b 6880969800      push    989680h
00402b80 81d1214e62fe    adc     ecx,0FE624E21h
00402b86 51              push    ecx
00402b87 50              push    eax
00402b88 e853450000      call    image00400000+0x70e0 (004070e0)
00402b8d 83fa07          cmp     edx,7
00402b90 7c0e            jl      image00400000+0x2ba0 (00402ba0)
00402b92 7f07            jg      image00400000+0x2b9b (00402b9b)
00402b94 3dff6f4093      cmp     eax,93406FFFh
00402b99 7605            jbe     image00400000+0x2ba0 (00402ba0)
00402b9b 83c8ff          or      eax,0FFFFFFFFh
00402b9e 8bd0            mov     edx,eax
00402ba0 8b4d08          mov     ecx,dword ptr [ebp+8]
00402ba3 85c9            test    ecx,ecx
00402ba5 7405            je      image00400000+0x2bac (00402bac)
00402ba7 8901            mov     dword ptr [ecx],eax
00402ba9 895104          mov     dword ptr [ecx+4],edx
00402bac c9              leave
00402bad c3              ret
00402bae 8bff            mov     edi,edi
00402bb0 55              push    ebp
00402bb1 8bec            mov     ebp,esp
00402bb3 833de80e410001  cmp     dword ptr [image00400000+0x10ee8 (00410ee8)],1
00402bba 7505            jne     image00400000+0x2bc1 (00402bc1)
00402bbc e8e3280000      call    image00400000+0x54a4 (004054a4)
00402bc1 ff7508          push    dword ptr [ebp+8]
00402bc4 e82c270000      call    image00400000+0x52f5 (004052f5)
00402bc9 68ff000000      push    0FFh
00402bce e83c240000      call    image00400000+0x500f (0040500f)
00402bd3 59              pop     ecx
00402bd4 59              pop     ecx
00402bd5 5d              pop     ebp
00402bd6 c3              ret
00402bd7 6a58            push    58h
00402bd9 68c0ee4000      push    offset image00400000+0xeec0 (0040eec0)
00402bde e8bd4d0000      call    image00400000+0x79a0 (004079a0)
00402be3 8d4598          lea     eax,[ebp-68h]
00402be6 50              push    eax
00402be7 ff159cd04000    call    dword ptr [image00400000+0xd09c (0040d09c)]
00402bed 33f6            xor     esi,esi
00402bef 3935bc2c4100    cmp     dword ptr [image00400000+0x12cbc (00412cbc)],esi
00402bf5 750b            jne     image00400000+0x2c02 (00402c02)
00402bf7 56              push    esi
00402bf8 56              push    esi
00402bf9 6a01            push    1
00402bfb 56              push    esi
00402bfc ff1598d04000    call    dword ptr [image00400000+0xd098 (0040d098)]
00402c02 b84d5a0000      mov     eax,5A4Dh
00402c07 66390500004000  cmp     word ptr [image00400000 (00400000)],ax
00402c0e 7405            je      image00400000+0x2c15 (00402c15)
00402c10 8975e4          mov     dword ptr [ebp-1Ch],esi
00402c13 eb36            jmp     image00400000+0x2c4b (00402c4b)
00402c15 a13c004000      mov     eax,dword ptr [image00400000+0x3c (0040003c)]
00402c1a 81b80000400050450000 cmp dword ptr image00400000 (00400000)[eax],4550h
00402c24 75ea            jne     image00400000+0x2c10 (00402c10)
00402c26 b90b010000      mov     ecx,10Bh
00402c2b 66398818004000  cmp     word ptr image00400000+0x18 (00400018)[eax],cx
00402c32 75dc            jne     image00400000+0x2c10 (00402c10)
00402c34 83b8740040000e  cmp     dword ptr image00400000+0x74 (00400074)[eax],0Eh
00402c3b 76d3            jbe     image00400000+0x2c10 (00402c10)
00402c3d 33c9            xor     ecx,ecx
00402c3f 39b0e8004000    cmp     dword ptr image00400000+0xe8 (004000e8)[eax],esi
00402c45 0f95c1          setne   cl
00402c48 894de4          mov     dword ptr [ebp-1Ch],ecx
00402c4b e876230000      call    image00400000+0x4fc6 (00404fc6)
00402c50 85c0            test    eax,eax
00402c52 7508            jne     image00400000+0x2c5c (00402c5c)
00402c54 6a1c            push    1Ch
00402c56 e853ffffff      call    image00400000+0x2bae (00402bae)
00402c5b 59              pop     ecx
00402c5c e802380000      call    image00400000+0x6463 (00406463)
00402c61 85c0            test    eax,eax
00402c63 7508            jne     image00400000+0x2c6d (00402c6d)
00402c65 6a10            push    10h
00402c67 e842ffffff      call    image00400000+0x2bae (00402bae)
00402c6c 59              pop     ecx
00402c6d e8dc4c0000      call    image00400000+0x794e (0040794e)
00402c72 8975fc          mov     dword ptr [ebp-4],esi
00402c75 e88f4a0000      call    image00400000+0x7709 (00407709)
00402c7a 85c0            test    eax,eax
00402c7c 7908            jns     image00400000+0x2c86 (00402c86)
00402c7e 6a1b            push    1Bh
00402c80 e82c260000      call    image00400000+0x52b1 (004052b1)
00402c85 59              pop     ecx
00402c86 ff1594d04000    call    dword ptr [image00400000+0xd094 (0040d094)]
00402c8c a3b82c4100      mov     dword ptr [image00400000+0x12cb8 (00412cb8)],eax
00402c91 e8dc490000      call    image00400000+0x7672 (00407672)
00402c96 a3e00e4100      mov     dword ptr [image00400000+0x10ee0 (00410ee0)],eax
00402c9b e817490000      call    image00400000+0x75b7 (004075b7)
00402ca0 85c0            test    eax,eax
00402ca2 7908            jns     image00400000+0x2cac (00402cac)
00402ca4 6a08            push    8
00402ca6 e806260000      call    image00400000+0x52b1 (004052b1)
00402cab 59              pop     ecx
00402cac e890460000      call    image00400000+0x7341 (00407341)
00402cb1 85c0            test    eax,eax
00402cb3 7908            jns     image00400000+0x2cbd (00402cbd)
00402cb5 6a09            push    9
00402cb7 e8f5250000      call    image00400000+0x52b1 (004052b1)
00402cbc 59              pop     ecx
00402cbd 6a01            push    1
00402cbf e8cc230000      call    image00400000+0x5090 (00405090)
00402cc4 59              pop     ecx
00402cc5 3bc6            cmp     eax,esi
00402cc7 7407            je      image00400000+0x2cd0 (00402cd0)
00402cc9 50              push    eax
00402cca e8e2250000      call    image00400000+0x52b1 (004052b1)
00402ccf 59              pop     ecx
00402cd0 e80d460000      call    image00400000+0x72e2 (004072e2)
00402cd5 f645c401        test    byte ptr [ebp-3Ch],1
00402cd9 7406            je      image00400000+0x2ce1 (00402ce1)
00402cdb 0fb74dc8        movzx   ecx,word ptr [ebp-38h]
00402cdf eb03            jmp     image00400000+0x2ce4 (00402ce4)
00402ce1 6a0a            push    0Ah
00402ce3 59              pop     ecx
00402ce4 51              push    ecx
00402ce5 50              push    eax
00402ce6 56              push    esi
00402ce7 6800004000      push    offset image00400000 (00400000)
00402cec e8bff7ffff      call    image00400000+0x24b0 (004024b0)
00402cf1 8945e0          mov     dword ptr [ebp-20h],eax
00402cf4 3975e4          cmp     dword ptr [ebp-1Ch],esi
00402cf7 7506            jne     image00400000+0x2cff (00402cff)
00402cf9 50              push    eax
00402cfa e868250000      call    image00400000+0x5267 (00405267)
00402cff e88f250000      call    image00400000+0x5293 (00405293)
00402d04 eb2e            jmp     image00400000+0x2d34 (00402d34)
00402d06 8b45ec          mov     eax,dword ptr [ebp-14h]
00402d09 8b08            mov     ecx,dword ptr [eax]
00402d0b 8b09            mov     ecx,dword ptr [ecx]
00402d0d 894ddc          mov     dword ptr [ebp-24h],ecx
00402d10 50              push    eax
00402d11 51              push    ecx
00402d12 e881440000      call    image00400000+0x7198 (00407198)
00402d17 59              pop     ecx
00402d18 59              pop     ecx
00402d19 c3              ret
00402d1a 8b65e8          mov     esp,dword ptr [ebp-18h]
00402d1d 8b45dc          mov     eax,dword ptr [ebp-24h]
00402d20 8945e0          mov     dword ptr [ebp-20h],eax
00402d23 837de400        cmp     dword ptr [ebp-1Ch],0
00402d27 7506            jne     image00400000+0x2d2f (00402d2f)
00402d29 50              push    eax
00402d2a e84e250000      call    image00400000+0x527d (0040527d)
00402d2f e86e250000      call    image00400000+0x52a2 (004052a2)
00402d34 c745fcfeffffff  mov     dword ptr [ebp-4],0FFFFFFFEh
00402d3b 8b45e0          mov     eax,dword ptr [ebp-20h]
00402d3e e8a24c0000      call    image00400000+0x79e5 (004079e5)
00402d43 c3              ret
00402d44 e8464e0000      call    image00400000+0x7b8f (00407b8f)
00402d49 e989feffff      jmp     image00400000+0x2bd7 (00402bd7)
00402d4e 8bff            mov     edi,edi
00402d50 55              push    ebp
00402d51 8bec            mov     ebp,esp
00402d53 81ec28030000    sub     esp,328h
00402d59 a3f80f4100      mov     dword ptr [image00400000+0x10ff8 (00410ff8)],eax
00402d5e 890df40f4100    mov     dword ptr [image00400000+0x10ff4 (00410ff4)],ecx
00402d64 8915f00f4100    mov     dword ptr [image00400000+0x10ff0 (00410ff0)],edx
00402d6a 891dec0f4100    mov     dword ptr [image00400000+0x10fec (00410fec)],ebx
00402d70 8935e80f4100    mov     dword ptr [image00400000+0x10fe8 (00410fe8)],esi
00402d76 893de40f4100    mov     dword ptr [image00400000+0x10fe4 (00410fe4)],edi
00402d7c 668c1510104100  mov     word ptr [image00400000+0x11010 (00411010)],ss
00402d83 668c0d04104100  mov     word ptr [image00400000+0x11004 (00411004)],cs
00402d8a 668c1de00f4100  mov     word ptr [image00400000+0x10fe0 (00410fe0)],ds
00402d91 668c05dc0f4100  mov     word ptr [image00400000+0x10fdc (00410fdc)],es
00402d98 668c25d80f4100  mov     word ptr [image00400000+0x10fd8 (00410fd8)],fs
00402d9f 668c2dd40f4100  mov     word ptr [image00400000+0x10fd4 (00410fd4)],gs
00402da6 9c              pushfd
00402da7 8f0508104100    pop     dword ptr [image00400000+0x11008 (00411008)]
00402dad 8b4500          mov     eax,dword ptr [ebp]
00402db0 a3fc0f4100      mov     dword ptr [image00400000+0x10ffc (00410ffc)],eax
00402db5 8b4504          mov     eax,dword ptr [ebp+4]
00402db8 a300104100      mov     dword ptr [image00400000+0x11000 (00411000)],eax
00402dbd 8d4508          lea     eax,[ebp+8]
00402dc0 a30c104100      mov     dword ptr [image00400000+0x1100c (0041100c)],eax
00402dc5 8b85e0fcffff    mov     eax,dword ptr [ebp-320h]
00402dcb c705480f410001000100 mov dword ptr [image00400000+0x10f48 (00410f48)],10001h
00402dd5 a100104100      mov     eax,dword ptr [image00400000+0x11000 (00411000)]
00402dda a3fc0e4100      mov     dword ptr [image00400000+0x10efc (00410efc)],eax
00402ddf c705f00e4100090400c0 mov dword ptr [image00400000+0x10ef0 (00410ef0)],0C0000409h
00402de9 c705f40e410001000000 mov dword ptr [image00400000+0x10ef4 (00410ef4)],1
00402df3 a104004100      mov     eax,dword ptr [image00400000+0x10004 (00410004)]
00402df8 8985d8fcffff    mov     dword ptr [ebp-328h],eax
00402dfe a108004100      mov     eax,dword ptr [image00400000+0x10008 (00410008)]
00402e03 8985dcfcffff    mov     dword ptr [ebp-324h],eax
00402e09 ff15b0d04000    call    dword ptr [image00400000+0xd0b0 (0040d0b0)]
00402e0f a3400f4100      mov     dword ptr [image00400000+0x10f40 (00410f40)],eax
00402e14 6a01            push    1
00402e16 e80f4e0000      call    image00400000+0x7c2a (00407c2a)
00402e1b 59              pop     ecx
00402e1c 6a00            push    0
00402e1e ff15acd04000    call    dword ptr [image00400000+0xd0ac (0040d0ac)]
00402e24 68c0d14000      push    offset image00400000+0xd1c0 (0040d1c0)
00402e29 ff15a8d04000    call    dword ptr [image00400000+0xd0a8 (0040d0a8)]
00402e2f 833d400f410000  cmp     dword ptr [image00400000+0x10f40 (00410f40)],0
00402e36 7508            jne     image00400000+0x2e40 (00402e40)
00402e38 6a01            push    1
00402e3a e8eb4d0000      call    image00400000+0x7c2a (00407c2a)
00402e3f 59              pop     ecx
00402e40 68090400c0      push    0C0000409h
00402e45 ff15a4d04000    call    dword ptr [image00400000+0xd0a4 (0040d0a4)]
00402e4b 50              push    eax
00402e4c ff15a0d04000    call    dword ptr [image00400000+0xd0a0 (0040d0a0)]
00402e52 c9              leave
00402e53 c3              ret
00402e54 8bff            mov     edi,edi
00402e56 55              push    ebp
00402e57 8bec            mov     ebp,esp
00402e59 51              push    ecx
00402e5a 56              push    esi
00402e5b 8b750c          mov     esi,dword ptr [ebp+0Ch]
00402e5e 56              push    esi
00402e5f e862590000      call    image00400000+0x87c6 (004087c6)
00402e64 89450c          mov     dword ptr [ebp+0Ch],eax
00402e67 8b460c          mov     eax,dword ptr [esi+0Ch]
00402e6a 59              pop     ecx
00402e6b a882            test    al,82h
00402e6d 7517            jne     image00400000+0x2e86 (00402e86)
00402e6f e8bd0f0000      call    image00400000+0x3e31 (00403e31)
00402e74 c70009000000    mov     dword ptr [eax],9
00402e7a 834e0c20        or      dword ptr [esi+0Ch],20h
00402e7e 83c8ff          or      eax,0FFFFFFFFh
00402e81 e92f010000      jmp     image00400000+0x2fb5 (00402fb5)
00402e86 a840            test    al,40h
00402e88 740d            je      image00400000+0x2e97 (00402e97)
00402e8a e8a20f0000      call    image00400000+0x3e31 (00403e31)
00402e8f c70022000000    mov     dword ptr [eax],22h
00402e95 ebe3            jmp     image00400000+0x2e7a (00402e7a)
00402e97 53              push    ebx
00402e98 33db            xor     ebx,ebx
00402e9a a801            test    al,1
00402e9c 7416            je      image00400000+0x2eb4 (00402eb4)
00402e9e 895e04          mov     dword ptr [esi+4],ebx
00402ea1 a810            test    al,10h
00402ea3 0f8487000000    je      image00400000+0x2f30 (00402f30)
00402ea9 8b4e08          mov     ecx,dword ptr [esi+8]
00402eac 83e0fe          and     eax,0FFFFFFFEh
00402eaf 890e            mov     dword ptr [esi],ecx
00402eb1 89460c          mov     dword ptr [esi+0Ch],eax
00402eb4 8b460c          mov     eax,dword ptr [esi+0Ch]
00402eb7 83e0ef          and     eax,0FFFFFFEFh
00402eba 83c802          or      eax,2
00402ebd 89460c          mov     dword ptr [esi+0Ch],eax
00402ec0 895e04          mov     dword ptr [esi+4],ebx
00402ec3 895dfc          mov     dword ptr [ebp-4],ebx
00402ec6 a90c010000      test    eax,10Ch
00402ecb 752c            jne     image00400000+0x2ef9 (00402ef9)
00402ecd e83f570000      call    image00400000+0x8611 (00408611)
00402ed2 83c020          add     eax,20h
00402ed5 3bf0            cmp     esi,eax
00402ed7 740c            je      image00400000+0x2ee5 (00402ee5)
00402ed9 e833570000      call    image00400000+0x8611 (00408611)
00402ede 83c040          add     eax,40h
00402ee1 3bf0            cmp     esi,eax
00402ee3 750d            jne     image00400000+0x2ef2 (00402ef2)
00402ee5 ff750c          push    dword ptr [ebp+0Ch]
00402ee8 e8ce560000      call    image00400000+0x85bb (004085bb)
00402eed 59              pop     ecx
00402eee 85c0            test    eax,eax
00402ef0 7507            jne     image00400000+0x2ef9 (00402ef9)
00402ef2 56              push    esi
00402ef3 e87a560000      call    image00400000+0x8572 (00408572)
00402ef8 59              pop     ecx
00402ef9 f7460c08010000  test    dword ptr [esi+0Ch],108h
00402f00 57              push    edi
00402f01 0f8480000000    je      image00400000+0x2f87 (00402f87)
00402f07 8b4608          mov     eax,dword ptr [esi+8]
00402f0a 8b3e            mov     edi,dword ptr [esi]
00402f0c 8d4801          lea     ecx,[eax+1]
00402f0f 890e            mov     dword ptr [esi],ecx
00402f11 8b4e18          mov     ecx,dword ptr [esi+18h]
00402f14 2bf8            sub     edi,eax
00402f16 49              dec     ecx
00402f17 894e04          mov     dword ptr [esi+4],ecx
00402f1a 3bfb            cmp     edi,ebx
00402f1c 7e1d            jle     image00400000+0x2f3b (00402f3b)
00402f1e 57              push    edi
00402f1f 50              push    eax
00402f20 ff750c          push    dword ptr [ebp+0Ch]
00402f23 e876550000      call    image00400000+0x849e (0040849e)
00402f28 83c40c          add     esp,0Ch
00402f2b 8945fc          mov     dword ptr [ebp-4],eax
00402f2e eb4d            jmp     image00400000+0x2f7d (00402f7d)
00402f30 83c820          or      eax,20h
00402f33 89460c          mov     dword ptr [esi+0Ch],eax
00402f36 83c8ff          or      eax,0FFFFFFFFh
00402f39 eb79            jmp     image00400000+0x2fb4 (00402fb4)
00402f3b 8b4d0c          mov     ecx,dword ptr [ebp+0Ch]
00402f3e 83f9ff          cmp     ecx,0FFFFFFFFh
00402f41 741b            je      image00400000+0x2f5e (00402f5e)
00402f43 83f9fe          cmp     ecx,0FFFFFFFEh
00402f46 7416            je      image00400000+0x2f5e (00402f5e)
00402f48 8bc1            mov     eax,ecx
00402f4a 83e01f          and     eax,1Fh
00402f4d 8bd1            mov     edx,ecx
00402f4f c1fa05          sar     edx,5
00402f52 c1e006          shl     eax,6
00402f55 030495a02b4100  add     eax,dword ptr image00400000+0x12ba0 (00412ba0)[edx*4]
00402f5c eb05            jmp     image00400000+0x2f63 (00402f63)
00402f5e b820094100      mov     eax,offset image00400000+0x10920 (00410920)
00402f63 f6400420        test    byte ptr [eax+4],20h
00402f67 7414            je      image00400000+0x2f7d (00402f7d)
00402f69 6a02            push    2
00402f6b 53              push    ebx
00402f6c 53              push    ebx
00402f6d 51              push    ecx
00402f6e e8444d0000      call    image00400000+0x7cb7 (00407cb7)
00402f73 23c2            and     eax,edx
00402f75 83c410          add     esp,10h
00402f78 83f8ff          cmp     eax,0FFFFFFFFh
00402f7b 7425            je      image00400000+0x2fa2 (00402fa2)
00402f7d 8b4608          mov     eax,dword ptr [esi+8]
00402f80 8a4d08          mov     cl,byte ptr [ebp+8]
00402f83 8808            mov     byte ptr [eax],cl
00402f85 eb16            jmp     image00400000+0x2f9d (00402f9d)
00402f87 33ff            xor     edi,edi
00402f89 47              inc     edi
00402f8a 57              push    edi
00402f8b 8d4508          lea     eax,[ebp+8]
00402f8e 50              push    eax
00402f8f ff750c          push    dword ptr [ebp+0Ch]
00402f92 e807550000      call    image00400000+0x849e (0040849e)
00402f97 83c40c          add     esp,0Ch
00402f9a 8945fc          mov     dword ptr [ebp-4],eax
00402f9d 397dfc          cmp     dword ptr [ebp-4],edi
00402fa0 7409            je      image00400000+0x2fab (00402fab)
00402fa2 834e0c20        or      dword ptr [esi+0Ch],20h
00402fa6 83c8ff          or      eax,0FFFFFFFFh
00402fa9 eb08            jmp     image00400000+0x2fb3 (00402fb3)
00402fab 8b4508          mov     eax,dword ptr [ebp+8]
00402fae 25ff000000      and     eax,0FFh
00402fb3 5f              pop     edi
00402fb4 5b              pop     ebx
00402fb5 5e              pop     esi
00402fb6 c9              leave
00402fb7 c3              ret
00402fb8 f6410c40        test    byte ptr [ecx+0Ch],40h
00402fbc 7406            je      image00400000+0x2fc4 (00402fc4)
00402fbe 83790800        cmp     dword ptr [ecx+8],0
00402fc2 7424            je      image00400000+0x2fe8 (00402fe8)
00402fc4 ff4904          dec     dword ptr [ecx+4]
00402fc7 780b            js      image00400000+0x2fd4 (00402fd4)
00402fc9 8b11            mov     edx,dword ptr [ecx]
00402fcb 8802            mov     byte ptr [edx],al
00402fcd ff01            inc     dword ptr [ecx]
00402fcf 0fb6c0          movzx   eax,al
00402fd2 eb0c            jmp     image00400000+0x2fe0 (00402fe0)
00402fd4 0fbec0          movsx   eax,al
00402fd7 51              push    ecx
00402fd8 50              push    eax
00402fd9 e876feffff      call    image00400000+0x2e54 (00402e54)
00402fde 59              pop     ecx
00402fdf 59              pop     ecx
00402fe0 83f8ff          cmp     eax,0FFFFFFFFh
00402fe3 7503            jne     image00400000+0x2fe8 (00402fe8)
00402fe5 0906            or      dword ptr [esi],eax
00402fe7 c3              ret
00402fe8 ff06            inc     dword ptr [esi]
00402fea c3              ret
00402feb 8bff            mov     edi,edi
00402fed 55              push    ebp
00402fee 8bec            mov     ebp,esp
00402ff0 51              push    ecx
00402ff1 f6430c40        test    byte ptr [ebx+0Ch],40h
00402ff5 56              push    esi
00402ff6 8bf0            mov     esi,eax
00402ff8 8b07            mov     eax,dword ptr [edi]
00402ffa 8945fc          mov     dword ptr [ebp-4],eax
00402ffd 740d            je      image00400000+0x300c (0040300c)
00402fff 837b0800        cmp     dword ptr [ebx+8],0
00403003 7507            jne     image00400000+0x300c (0040300c)
00403005 8b450c          mov     eax,dword ptr [ebp+0Ch]
00403008 0106            add     dword ptr [esi],eax
0040300a eb3e            jmp     image00400000+0x304a (0040304a)
0040300c 832700          and     dword ptr [edi],0
0040300f 837d0c00        cmp     dword ptr [ebp+0Ch],0
00403013 7e30            jle     image00400000+0x3045 (00403045)
00403015 8b4508          mov     eax,dword ptr [ebp+8]
00403018 8a00            mov     al,byte ptr [eax]
0040301a ff4d0c          dec     dword ptr [ebp+0Ch]
0040301d 8bcb            mov     ecx,ebx
0040301f e894ffffff      call    image00400000+0x2fb8 (00402fb8)
00403024 ff4508          inc     dword ptr [ebp+8]
00403027 833eff          cmp     dword ptr [esi],0FFFFFFFFh
0040302a 750e            jne     image00400000+0x303a (0040303a)
0040302c 833f2a          cmp     dword ptr [edi],2Ah
0040302f 750f            jne     image00400000+0x3040 (00403040)
00403031 8bcb            mov     ecx,ebx
00403033 b03f            mov     al,3Fh
00403035 e87effffff      call    image00400000+0x2fb8 (00402fb8)
0040303a 837d0c00        cmp     dword ptr [ebp+0Ch],0
0040303e 7fd5            jg      image00400000+0x3015 (00403015)
00403040 833f00          cmp     dword ptr [edi],0
00403043 7505            jne     image00400000+0x304a (0040304a)
00403045 8b45fc          mov     eax,dword ptr [ebp-4]
00403048 8907            mov     dword ptr [edi],eax
0040304a 5e              pop     esi
0040304b c9              leave
0040304c c3              ret
0040304d 8bff            mov     edi,edi
0040304f 55              push    ebp
00403050 8bec            mov     ebp,esp
00403052 81ec80020000    sub     esp,280h
00403058 a104004100      mov     eax,dword ptr [image00400000+0x10004 (00410004)]
0040305d 33c5            xor     eax,ebp
0040305f 8945fc          mov     dword ptr [ebp-4],eax
00403062 53              push    ebx
00403063 8b5d0c          mov     ebx,dword ptr [ebp+0Ch]
00403066 56              push    esi
00403067 8b7508          mov     esi,dword ptr [ebp+8]
0040306a 33c0            xor     eax,eax
0040306c 57              push    edi
0040306d 8b7d14          mov     edi,dword ptr [ebp+14h]
00403070 ff7510          push    dword ptr [ebp+10h]
00403073 8d8da4fdffff    lea     ecx,[ebp-25Ch]
00403079 89b5d0fdffff    mov     dword ptr [ebp-230h],esi
0040307f 89bde4fdffff    mov     dword ptr [ebp-21Ch],edi
00403085 8985b4fdffff    mov     dword ptr [ebp-24Ch],eax
0040308b 8985f0fdffff    mov     dword ptr [ebp-210h],eax
00403091 8985c8fdffff    mov     dword ptr [ebp-238h],eax
00403097 8985e8fdffff    mov     dword ptr [ebp-218h],eax
0040309d 8985ccfdffff    mov     dword ptr [ebp-234h],eax
004030a3 8985bcfdffff    mov     dword ptr [ebp-244h],eax
004030a9 8985c4fdffff    mov     dword ptr [ebp-23Ch],eax
004030af e817f8ffff      call    image00400000+0x28cb (004028cb)
004030b4 e8780d0000      call    image00400000+0x3e31 (00403e31)
004030b9 898594fdffff    mov     dword ptr [ebp-26Ch],eax
004030bf 85f6            test    esi,esi
004030c1 752b            jne     image00400000+0x30ee (004030ee)
004030c3 e8690d0000      call    image00400000+0x3e31 (00403e31)
004030c8 c70016000000    mov     dword ptr [eax],16h
004030ce e80c0d0000      call    image00400000+0x3ddf (00403ddf)
004030d3 80bdb0fdffff00  cmp     byte ptr [ebp-250h],0
004030da 740a            je      image00400000+0x30e6 (004030e6)
004030dc 8b85acfdffff    mov     eax,dword ptr [ebp-254h]
004030e2 836070fd        and     dword ptr [eax+70h],0FFFFFFFDh
004030e6 83c8ff          or      eax,0FFFFFFFFh
004030e9 e9370b0000      jmp     image00400000+0x3c25 (00403c25)
004030ee f6460c40        test    byte ptr [esi+0Ch],40h
004030f2 755e            jne     image00400000+0x3152 (00403152)
004030f4 56              push    esi
004030f5 e8cc560000      call    image00400000+0x87c6 (004087c6)
004030fa 59              pop     ecx
004030fb ba20094100      mov     edx,offset image00400000+0x10920 (00410920)
00403100 83f8ff          cmp     eax,0FFFFFFFFh
00403103 741b            je      image00400000+0x3120 (00403120)
00403105 83f8fe          cmp     eax,0FFFFFFFEh
00403108 7416            je      image00400000+0x3120 (00403120)
0040310a 8bc8            mov     ecx,eax
0040310c 83e11f          and     ecx,1Fh
0040310f 8bf0            mov     esi,eax
00403111 c1fe05          sar     esi,5
00403114 c1e106          shl     ecx,6
00403117 030cb5a02b4100  add     ecx,dword ptr image00400000+0x12ba0 (00412ba0)[esi*4]
0040311e eb02            jmp     image00400000+0x3122 (00403122)
00403120 8bca            mov     ecx,edx
00403122 f641247f        test    byte ptr [ecx+24h],7Fh
00403126 759b            jne     image00400000+0x30c3 (004030c3)
00403128 83f8ff          cmp     eax,0FFFFFFFFh
0040312b 7419            je      image00400000+0x3146 (00403146)
0040312d 83f8fe          cmp     eax,0FFFFFFFEh
00403130 7414            je      image00400000+0x3146 (00403146)
00403132 8bc8            mov     ecx,eax
00403134 83e01f          and     eax,1Fh
00403137 c1f905          sar     ecx,5
0040313a c1e006          shl     eax,6
0040313d 03048da02b4100  add     eax,dword ptr image00400000+0x12ba0 (00412ba0)[ecx*4]
00403144 eb02            jmp     image00400000+0x3148 (00403148)
00403146 8bc2            mov     eax,edx
00403148 f6402480        test    byte ptr [eax+24h],80h
0040314c 0f8571ffffff    jne     image00400000+0x30c3 (004030c3)
00403152 33c9            xor     ecx,ecx
00403154 3bd9            cmp     ebx,ecx
00403156 0f8467ffffff    je      image00400000+0x30c3 (004030c3)
0040315c 8a13            mov     dl,byte ptr [ebx]
0040315e 898ddcfdffff    mov     dword ptr [ebp-224h],ecx
00403164 898dd8fdffff    mov     dword ptr [ebp-228h],ecx
0040316a 898db8fdffff    mov     dword ptr [ebp-248h],ecx
00403170 8895effdffff    mov     byte ptr [ebp-211h],dl
00403176 84d2            test    dl,dl
00403178 0f848e0a0000    je      image00400000+0x3c0c (00403c0c)
0040317e 43              inc     ebx
0040317f 33f6            xor     esi,esi
00403181 899dc0fdffff    mov     dword ptr [ebp-240h],ebx
00403187 39b5dcfdffff    cmp     dword ptr [ebp-224h],esi
0040318d 0f8c790a0000    jl      image00400000+0x3c0c (00403c0c)
00403193 8d42e0          lea     eax,[edx-20h]
00403196 3c58            cmp     al,58h
00403198 770f            ja      image00400000+0x31a9 (004031a9)
0040319a 0fbec2          movsx   eax,dl
0040319d 0fbe80c0d14000  movsx   eax,byte ptr image00400000+0xd1c0 (0040d1c0)[eax]
004031a4 83e00f          and     eax,0Fh
004031a7 eb02            jmp     image00400000+0x31ab (004031ab)
004031a9 33c0            xor     eax,eax
004031ab 0fbe84c1e0d14000 movsx   eax,byte ptr image00400000+0xd1e0 (0040d1e0)[ecx+eax*8]
004031b3 6a07            push    7
004031b5 c1f804          sar     eax,4
004031b8 59              pop     ecx
004031b9 89858cfdffff    mov     dword ptr [ebp-274h],eax
004031bf 3bc1            cmp     eax,ecx
004031c1 0f87200a0000    ja      image00400000+0x3be7 (00403be7)
004031c7 ff2485353c4000  jmp     dword ptr image00400000+0x3c35 (00403c35)[eax*4]
004031ce 838de8fdffffff  or      dword ptr [ebp-218h],0FFFFFFFFh
004031d5 89b588fdffff    mov     dword ptr [ebp-278h],esi
004031db 89b5bcfdffff    mov     dword ptr [ebp-244h],esi
004031e1 89b5c8fdffff    mov     dword ptr [ebp-238h],esi
004031e7 89b5ccfdffff    mov     dword ptr [ebp-234h],esi
004031ed 89b5f0fdffff    mov     dword ptr [ebp-210h],esi
004031f3 89b5c4fdffff    mov     dword ptr [ebp-23Ch],esi
004031f9 e9e9090000      jmp     image00400000+0x3be7 (00403be7)
004031fe 0fbec2          movsx   eax,dl
00403201 83e820          sub     eax,20h
00403204 744a            je      image00400000+0x3250 (00403250)
00403206 83e803          sub     eax,3
00403209 7436            je      image00400000+0x3241 (00403241)
0040320b 83e808          sub     eax,8
0040320e 7425            je      image00400000+0x3235 (00403235)
00403210 48              dec     eax
00403211 48              dec     eax
00403212 7415            je      image00400000+0x3229 (00403229)
00403214 83e803          sub     eax,3
00403217 0f85ca090000    jne     image00400000+0x3be7 (00403be7)
0040321d 838df0fdffff08  or      dword ptr [ebp-210h],8
00403224 e9be090000      jmp     image00400000+0x3be7 (00403be7)
00403229 838df0fdffff04  or      dword ptr [ebp-210h],4
00403230 e9b2090000      jmp     image00400000+0x3be7 (00403be7)
00403235 838df0fdffff01  or      dword ptr [ebp-210h],1
0040323c e9a6090000      jmp     image00400000+0x3be7 (00403be7)
00403241 818df0fdffff80000000 or  dword ptr [ebp-210h],80h
0040324b e997090000      jmp     image00400000+0x3be7 (00403be7)
00403250 838df0fdffff02  or      dword ptr [ebp-210h],2
00403257 e98b090000      jmp     image00400000+0x3be7 (00403be7)
0040325c 80fa2a          cmp     dl,2Ah
0040325f 752c            jne     image00400000+0x328d (0040328d)
00403261 83c704          add     edi,4
00403264 89bde4fdffff    mov     dword ptr [ebp-21Ch],edi
0040326a 8b7ffc          mov     edi,dword ptr [edi-4]
0040326d 89bdc8fdffff    mov     dword ptr [ebp-238h],edi
00403273 3bfe            cmp     edi,esi
00403275 0f8d6c090000    jge     image00400000+0x3be7 (00403be7)
0040327b 838df0fdffff04  or      dword ptr [ebp-210h],4
00403282 f79dc8fdffff    neg     dword ptr [ebp-238h]
00403288 e95a090000      jmp     image00400000+0x3be7 (00403be7)
0040328d 8b85c8fdffff    mov     eax,dword ptr [ebp-238h]
00403293 6bc00a          imul    eax,eax,0Ah
00403296 0fbeca          movsx   ecx,dl
00403299 8d4408d0        lea     eax,[eax+ecx-30h]
0040329d 8985c8fdffff    mov     dword ptr [ebp-238h],eax
004032a3 e93f090000      jmp     image00400000+0x3be7 (00403be7)
004032a8 89b5e8fdffff    mov     dword ptr [ebp-218h],esi
004032ae e934090000      jmp     image00400000+0x3be7 (00403be7)
004032b3 80fa2a          cmp     dl,2Ah
004032b6 7526            jne     image00400000+0x32de (004032de)
004032b8 83c704          add     edi,4
004032bb 89bde4fdffff    mov     dword ptr [ebp-21Ch],edi
004032c1 8b7ffc          mov     edi,dword ptr [edi-4]
004032c4 89bde8fdffff    mov     dword ptr [ebp-218h],edi
004032ca 3bfe            cmp     edi,esi
004032cc 0f8d15090000    jge     image00400000+0x3be7 (00403be7)
004032d2 838de8fdffffff  or      dword ptr [ebp-218h],0FFFFFFFFh
004032d9 e909090000      jmp     image00400000+0x3be7 (00403be7)
004032de 8b85e8fdffff    mov     eax,dword ptr [ebp-218h]
004032e4 6bc00a          imul    eax,eax,0Ah
004032e7 0fbeca          movsx   ecx,dl
004032ea 8d4408d0        lea     eax,[eax+ecx-30h]
004032ee 8985e8fdffff    mov     dword ptr [ebp-218h],eax
004032f4 e9ee080000      jmp     image00400000+0x3be7 (00403be7)
004032f9 80fa49          cmp     dl,49h
004032fc 7455            je      image00400000+0x3353 (00403353)
004032fe 80fa68          cmp     dl,68h
00403301 7444            je      image00400000+0x3347 (00403347)
00403303 80fa6c          cmp     dl,6Ch
00403306 7418            je      image00400000+0x3320 (00403320)
00403308 80fa77          cmp     dl,77h
0040330b 0f85d6080000    jne     image00400000+0x3be7 (00403be7)
00403311 818df0fdffff00080000 or  dword ptr [ebp-210h],800h
0040331b e9c7080000      jmp     image00400000+0x3be7 (00403be7)
00403320 803b6c          cmp     byte ptr [ebx],6Ch
00403323 7516            jne     image00400000+0x333b (0040333b)
00403325 43              inc     ebx
00403326 818df0fdffff00100000 or  dword ptr [ebp-210h],1000h
00403330 899dc0fdffff    mov     dword ptr [ebp-240h],ebx
00403336 e9ac080000      jmp     image00400000+0x3be7 (00403be7)
0040333b 838df0fdffff10  or      dword ptr [ebp-210h],10h
00403342 e9a0080000      jmp     image00400000+0x3be7 (00403be7)
00403347 838df0fdffff20  or      dword ptr [ebp-210h],20h
0040334e e994080000      jmp     image00400000+0x3be7 (00403be7)
00403353 8a03            mov     al,byte ptr [ebx]
00403355 3c36            cmp     al,36h
00403357 751e            jne     image00400000+0x3377 (00403377)
00403359 807b0134        cmp     byte ptr [ebx+1],34h
0040335d 7518            jne     image00400000+0x3377 (00403377)
0040335f 83c302          add     ebx,2
00403362 818df0fdffff00800000 or  dword ptr [ebp-210h],8000h
0040336c 899dc0fdffff    mov     dword ptr [ebp-240h],ebx
00403372 e970080000      jmp     image00400000+0x3be7 (00403be7)
00403377 3c33            cmp     al,33h
00403379 751e            jne     image00400000+0x3399 (00403399)
0040337b 807b0132        cmp     byte ptr [ebx+1],32h
0040337f 7518            jne     image00400000+0x3399 (00403399)
00403381 83c302          add     ebx,2
00403384 81a5f0fdffffff7fffff and dword ptr [ebp-210h],0FFFF7FFFh
0040338e 899dc0fdffff    mov     dword ptr [ebp-240h],ebx
00403394 e94e080000      jmp     image00400000+0x3be7 (00403be7)
00403399 3c64            cmp     al,64h
0040339b 0f8446080000    je      image00400000+0x3be7 (00403be7)
004033a1 3c69            cmp     al,69h
004033a3 0f843e080000    je      image00400000+0x3be7 (00403be7)
004033a9 3c6f            cmp     al,6Fh
004033ab 0f8436080000    je      image00400000+0x3be7 (00403be7)
004033b1 3c75            cmp     al,75h
004033b3 0f842e080000    je      image00400000+0x3be7 (00403be7)
004033b9 3c78            cmp     al,78h
004033bb 0f8426080000    je      image00400000+0x3be7 (00403be7)
004033c1 3c58            cmp     al,58h
004033c3 0f841e080000    je      image00400000+0x3be7 (00403be7)
004033c9 89b58cfdffff    mov     dword ptr [ebp-274h],esi
004033cf 21b5c4fdffff    and     dword ptr [ebp-23Ch],esi
004033d5 8d85a4fdffff    lea     eax,[ebp-25Ch]
004033db 50              push    eax
004033dc 0fb6c2          movzx   eax,dl
004033df 50              push    eax
004033e0 e8e3560000      call    image00400000+0x8ac8 (00408ac8)
004033e5 59              pop     ecx
004033e6 85c0            test    eax,eax
004033e8 8a85effdffff    mov     al,byte ptr [ebp-211h]
004033ee 59              pop     ecx
004033ef 7422            je      image00400000+0x3413 (00403413)
004033f1 8b8dd0fdffff    mov     ecx,dword ptr [ebp-230h]
004033f7 8db5dcfdffff    lea     esi,[ebp-224h]
004033fd e8b6fbffff      call    image00400000+0x2fb8 (00402fb8)
00403402 8a03            mov     al,byte ptr [ebx]
00403404 43              inc     ebx
00403405 899dc0fdffff    mov     dword ptr [ebp-240h],ebx
0040340b 84c0            test    al,al
0040340d 0f84b0fcffff    je      image00400000+0x30c3 (004030c3)
00403413 8b8dd0fdffff    mov     ecx,dword ptr [ebp-230h]
00403419 8db5dcfdffff    lea     esi,[ebp-224h]
0040341f e894fbffff      call    image00400000+0x2fb8 (00402fb8)
00403424 e9be070000      jmp     image00400000+0x3be7 (00403be7)
00403429 0fbec2          movsx   eax,dl
0040342c 83f864          cmp     eax,64h
0040342f 0f8fb6010000    jg      image00400000+0x35eb (004035eb)
00403435 0f8458020000    je      image00400000+0x3693 (00403693)
0040343b 83f853          cmp     eax,53h
0040343e 0f8fba000000    jg      image00400000+0x34fe (004034fe)
00403444 744c            je      image00400000+0x3492 (00403492)
00403446 83e841          sub     eax,41h
00403449 7410            je      image00400000+0x345b (0040345b)
0040344b 48              dec     eax
0040344c 48              dec     eax
0040344d 7424            je      image00400000+0x3473 (00403473)
0040344f 48              dec     eax
00403450 48              dec     eax
00403451 7408            je      image00400000+0x345b (0040345b)
00403453 48              dec     eax
00403454 48              dec     eax
00403455 0f85ab050000    jne     image00400000+0x3a06 (00403a06)
0040345b 80c220          add     dl,20h
0040345e c78588fdffff01000000 mov dword ptr [ebp-278h],1
00403468 8895effdffff    mov     byte ptr [ebp-211h],dl
0040346e e956020000      jmp     image00400000+0x36c9 (004036c9)
00403473 f785f0fdffff30080000 test dword ptr [ebp-210h],830h
0040347d 0f859e000000    jne     image00400000+0x3521 (00403521)
00403483 818df0fdffff00080000 or  dword ptr [ebp-210h],800h
0040348d e98f000000      jmp     image00400000+0x3521 (00403521)
00403492 f785f0fdffff30080000 test dword ptr [ebp-210h],830h
0040349c 750a            jne     image00400000+0x34a8 (004034a8)
0040349e 818df0fdffff00080000 or  dword ptr [ebp-210h],800h
004034a8 8b8de8fdffff    mov     ecx,dword ptr [ebp-218h]
004034ae 83f9ff          cmp     ecx,0FFFFFFFFh
004034b1 7505            jne     image00400000+0x34b8 (004034b8)
004034b3 b9ffffff7f      mov     ecx,7FFFFFFFh
004034b8 83c704          add     edi,4
004034bb f785f0fdffff10080000 test dword ptr [ebp-210h],810h
004034c5 89bde4fdffff    mov     dword ptr [ebp-21Ch],edi
004034cb 8b7ffc          mov     edi,dword ptr [edi-4]
004034ce 89bde0fdffff    mov     dword ptr [ebp-220h],edi
004034d4 0f84fe040000    je      image00400000+0x39d8 (004039d8)
004034da 85ff            test    edi,edi
004034dc 750b            jne     image00400000+0x34e9 (004034e9)
004034de a110004100      mov     eax,dword ptr [image00400000+0x10010 (00410010)]
004034e3 8985e0fdffff    mov     dword ptr [ebp-220h],eax
004034e9 8b85e0fdffff    mov     eax,dword ptr [ebp-220h]
004034ef c785c4fdffff01000000 mov dword ptr [ebp-23Ch],1
004034f9 e9cc040000      jmp     image00400000+0x39ca (004039ca)
004034fe 83e858          sub     eax,58h
00403501 0f8422030000    je      image00400000+0x3829 (00403829)
00403507 48              dec     eax
00403508 48              dec     eax
00403509 747f            je      image00400000+0x358a (0040358a)
0040350b 2bc1            sub     eax,ecx
0040350d 0f84b6010000    je      image00400000+0x36c9 (004036c9)
00403513 48              dec     eax
00403514 48              dec     eax
00403515 0f85eb040000    jne     image00400000+0x3a06 (00403a06)
0040351b 8bbde4fdffff    mov     edi,dword ptr [ebp-21Ch]
00403521 83c704          add     edi,4
00403524 f785f0fdffff10080000 test dword ptr [ebp-210h],810h
0040352e 89bde4fdffff    mov     dword ptr [ebp-21Ch],edi
00403534 7430            je      image00400000+0x3566 (00403566)
00403536 0fb747fc        movzx   eax,word ptr [edi-4]
0040353a 50              push    eax
0040353b 6800020000      push    200h
00403540 8d85f4fdffff    lea     eax,[ebp-20Ch]
00403546 50              push    eax
00403547 8d85d8fdffff    lea     eax,[ebp-228h]
0040354d 50              push    eax
0040354e e858550000      call    image00400000+0x8aab (00408aab)
00403553 83c410          add     esp,10h
00403556 85c0            test    eax,eax
00403558 741f            je      image00400000+0x3579 (00403579)
0040355a c785bcfdffff01000000 mov dword ptr [ebp-244h],1
00403564 eb13            jmp     image00400000+0x3579 (00403579)
00403566 8a47fc          mov     al,byte ptr [edi-4]
00403569 8885f4fdffff    mov     byte ptr [ebp-20Ch],al
0040356f c785d8fdffff01000000 mov dword ptr [ebp-228h],1
00403579 8d85f4fdffff    lea     eax,[ebp-20Ch]
0040357f 8985e0fdffff    mov     dword ptr [ebp-220h],eax
00403585 e97c040000      jmp     image00400000+0x3a06 (00403a06)
0040358a 8b07            mov     eax,dword ptr [edi]
0040358c 83c704          add     edi,4
0040358f 89bde4fdffff    mov     dword ptr [ebp-21Ch],edi
00403595 85c0            test    eax,eax
00403597 743b            je      image00400000+0x35d4 (004035d4)
00403599 8b4804          mov     ecx,dword ptr [eax+4]
0040359c 85c9            test    ecx,ecx
0040359e 7434            je      image00400000+0x35d4 (004035d4)
004035a0 f785f0fdffff00080000 test dword ptr [ebp-210h],800h
004035aa 0fbf00          movsx   eax,word ptr [eax]
004035ad 898de0fdffff    mov     dword ptr [ebp-220h],ecx
004035b3 7414            je      image00400000+0x35c9 (004035c9)
004035b5 99              cdq
004035b6 2bc2            sub     eax,edx
004035b8 d1f8            sar     eax,1
004035ba c785c4fdffff01000000 mov dword ptr [ebp-23Ch],1
004035c4 e937040000      jmp     image00400000+0x3a00 (00403a00)
004035c9 21b5c4fdffff    and     dword ptr [ebp-23Ch],esi
004035cf e92c040000      jmp     image00400000+0x3a00 (00403a00)
004035d4 a10c004100      mov     eax,dword ptr [image00400000+0x1000c (0041000c)]
004035d9 8985e0fdffff    mov     dword ptr [ebp-220h],eax
004035df 50              push    eax
004035e0 e89b080000      call    image00400000+0x3e80 (00403e80)
004035e5 59              pop     ecx
004035e6 e915040000      jmp     image00400000+0x3a00 (00403a00)
004035eb 83f870          cmp     eax,70h
004035ee 0f8f3d020000    jg      image00400000+0x3831 (00403831)
004035f4 0f8425020000    je      image00400000+0x381f (0040381f)
004035fa 83f865          cmp     eax,65h
004035fd 0f8c03040000    jl      image00400000+0x3a06 (00403a06)
00403603 83f867          cmp     eax,67h
00403606 0f8eb7000000    jle     image00400000+0x36c3 (004036c3)
0040360c 83f869          cmp     eax,69h
0040360f 747c            je      image00400000+0x368d (0040368d)
00403611 83f86e          cmp     eax,6Eh
00403614 742e            je      image00400000+0x3644 (00403644)
00403616 83f86f          cmp     eax,6Fh
00403619 0f85e7030000    jne     image00400000+0x3a06 (00403a06)
0040361f f685f0fdffff80  test    byte ptr [ebp-210h],80h
00403626 8bbde4fdffff    mov     edi,dword ptr [ebp-21Ch]
0040362c c785d8fdffff08000000 mov dword ptr [ebp-228h],8
00403636 746c            je      image00400000+0x36a4 (004036a4)
00403638 818df0fdffff00020000 or  dword ptr [ebp-210h],200h
00403642 eb60            jmp     image00400000+0x36a4 (004036a4)
00403644 8385e4fdffff04  add     dword ptr [ebp-21Ch],4
0040364b 8b85e4fdffff    mov     eax,dword ptr [ebp-21Ch]
00403651 8b70fc          mov     esi,dword ptr [eax-4]
00403654 e8e7520000      call    image00400000+0x8940 (00408940)
00403659 85c0            test    eax,eax
0040365b 0f8462faffff    je      image00400000+0x30c3 (004030c3)
00403661 f685f0fdffff20  test    byte ptr [ebp-210h],20h
00403668 740c            je      image00400000+0x3676 (00403676)
0040366a 668b85dcfdffff  mov     ax,word ptr [ebp-224h]
00403671 668906          mov     word ptr [esi],ax
00403674 eb08            jmp     image00400000+0x367e (0040367e)
00403676 8b85dcfdffff    mov     eax,dword ptr [ebp-224h]
0040367c 8906            mov     dword ptr [esi],eax
0040367e c785bcfdffff01000000 mov dword ptr [ebp-244h],1
00403688 e93e050000      jmp     image00400000+0x3bcb (00403bcb)
0040368d 8bbde4fdffff    mov     edi,dword ptr [ebp-21Ch]
00403693 838df0fdffff40  or      dword ptr [ebp-210h],40h
0040369a c785d8fdffff0a000000 mov dword ptr [ebp-228h],0Ah
004036a4 8b8df0fdffff    mov     ecx,dword ptr [ebp-210h]
004036aa f7c100800000    test    ecx,8000h
004036b0 0f84e0010000    je      image00400000+0x3896 (00403896)
004036b6 8b07            mov     eax,dword ptr [edi]
004036b8 8b5704          mov     edx,dword ptr [edi+4]
004036bb 83c708          add     edi,8
004036be e90c020000      jmp     image00400000+0x38cf (004038cf)
004036c3 8bbde4fdffff    mov     edi,dword ptr [ebp-21Ch]
004036c9 838df0fdffff40  or      dword ptr [ebp-210h],40h
004036d0 8d9df4fdffff    lea     ebx,[ebp-20Ch]
004036d6 b800020000      mov     eax,200h
004036db 899de0fdffff    mov     dword ptr [ebp-220h],ebx
004036e1 8985a0fdffff    mov     dword ptr [ebp-260h],eax
004036e7 39b5e8fdffff    cmp     dword ptr [ebp-218h],esi
004036ed 7d0c            jge     image00400000+0x36fb (004036fb)
004036ef c785e8fdffff06000000 mov dword ptr [ebp-218h],6
004036f9 eb6a            jmp     image00400000+0x3765 (00403765)
004036fb 7511            jne     image00400000+0x370e (0040370e)
004036fd 80fa67          cmp     dl,67h
00403700 7563            jne     image00400000+0x3765 (00403765)
00403702 c785e8fdffff01000000 mov dword ptr [ebp-218h],1
0040370c eb57            jmp     image00400000+0x3765 (00403765)
0040370e 3985e8fdffff    cmp     dword ptr [ebp-218h],eax
00403714 7e06            jle     image00400000+0x371c (0040371c)
00403716 8985e8fdffff    mov     dword ptr [ebp-218h],eax
0040371c 81bde8fdffffa3000000 cmp dword ptr [ebp-218h],0A3h
00403726 7e3d            jle     image00400000+0x3765 (00403765)
00403728 8bb5e8fdffff    mov     esi,dword ptr [ebp-218h]
0040372e 81c65d010000    add     esi,15Dh
00403734 56              push    esi
00403735 e8d5500000      call    image00400000+0x880f (0040880f)
0040373a 8a95effdffff    mov     dl,byte ptr [ebp-211h]
00403740 59              pop     ecx
00403741 8985b8fdffff    mov     dword ptr [ebp-248h],eax
00403747 85c0            test    eax,eax
00403749 7410            je      image00400000+0x375b (0040375b)
0040374b 8985e0fdffff    mov     dword ptr [ebp-220h],eax
00403751 89b5a0fdffff    mov     dword ptr [ebp-260h],esi
00403757 8bd8            mov     ebx,eax
00403759 eb0a            jmp     image00400000+0x3765 (00403765)
0040375b c785e8fdffffa3000000 mov dword ptr [ebp-218h],0A3h
00403765 8b07            mov     eax,dword ptr [edi]
00403767 8b35b4d04000    mov     esi,dword ptr [image00400000+0xd0b4 (0040d0b4)]
0040376d 83c708          add     edi,8
00403770 898580fdffff    mov     dword ptr [ebp-280h],eax
00403776 8b47fc          mov     eax,dword ptr [edi-4]
00403779 898584fdffff    mov     dword ptr [ebp-27Ch],eax
0040377f 8d85a4fdffff    lea     eax,[ebp-25Ch]
00403785 50              push    eax
00403786 ffb588fdffff    push    dword ptr [ebp-278h]
0040378c 0fbec2          movsx   eax,dl
0040378f ffb5e8fdffff    push    dword ptr [ebp-218h]
00403795 89bde4fdffff    mov     dword ptr [ebp-21Ch],edi
0040379b 50              push    eax
0040379c ffb5a0fdffff    push    dword ptr [ebp-260h]
004037a2 8d8580fdffff    lea     eax,[ebp-280h]
004037a8 53              push    ebx
004037a9 50              push    eax
004037aa ff35f80b4100    push    dword ptr [image00400000+0x10bf8 (00410bf8)]
004037b0 ffd6            call    esi
004037b2 ffd0            call    eax
004037b4 8bbdf0fdffff    mov     edi,dword ptr [ebp-210h]
004037ba 83c41c          add     esp,1Ch
004037bd 81e780000000    and     edi,80h
004037c3 741d            je      image00400000+0x37e2 (004037e2)
004037c5 83bde8fdffff00  cmp     dword ptr [ebp-218h],0
004037cc 7514            jne     image00400000+0x37e2 (004037e2)
004037ce 8d85a4fdffff    lea     eax,[ebp-25Ch]
004037d4 50              push    eax
004037d5 53              push    ebx
004037d6 ff35040c4100    push    dword ptr [image00400000+0x10c04 (00410c04)]
004037dc ffd6            call    esi
004037de ffd0            call    eax
004037e0 59              pop     ecx
004037e1 59              pop     ecx
004037e2 80bdeffdffff67  cmp     byte ptr [ebp-211h],67h
004037e9 7518            jne     image00400000+0x3803 (00403803)
004037eb 85ff            test    edi,edi
004037ed 7514            jne     image00400000+0x3803 (00403803)
004037ef 8d85a4fdffff    lea     eax,[ebp-25Ch]
004037f5 50              push    eax
004037f6 53              push    ebx
004037f7 ff35000c4100    push    dword ptr [image00400000+0x10c00 (00410c00)]
004037fd ffd6            call    esi
004037ff ffd0            call    eax
00403801 59              pop     ecx
00403802 59              pop     ecx
00403803 803b2d          cmp     byte ptr [ebx],2Dh
00403806 7511            jne     image00400000+0x3819 (00403819)
00403808 818df0fdffff00010000 or  dword ptr [ebp-210h],100h
00403812 43              inc     ebx
00403813 899de0fdffff    mov     dword ptr [ebp-220h],ebx
00403819 53              push    ebx
0040381a e9c1fdffff      jmp     image00400000+0x35e0 (004035e0)
0040381f c785e8fdffff08000000 mov dword ptr [ebp-218h],8
00403829 898db4fdffff    mov     dword ptr [ebp-24Ch],ecx
0040382f eb2a            jmp     image00400000+0x385b (0040385b)
00403831 83e873          sub     eax,73h
00403834 0f846efcffff    je      image00400000+0x34a8 (004034a8)
0040383a 48              dec     eax
0040383b 48              dec     eax
0040383c 0f8458feffff    je      image00400000+0x369a (0040369a)
00403842 83e803          sub     eax,3
00403845 0f85bb010000    jne     image00400000+0x3a06 (00403a06)
0040384b 8bbde4fdffff    mov     edi,dword ptr [ebp-21Ch]
00403851 c785b4fdffff27000000 mov dword ptr [ebp-24Ch],27h
0040385b f685f0fdffff80  test    byte ptr [ebp-210h],80h
00403862 c785d8fdffff10000000 mov dword ptr [ebp-228h],10h
0040386c 0f8432feffff    je      image00400000+0x36a4 (004036a4)
00403872 8a85b4fdffff    mov     al,byte ptr [ebp-24Ch]
00403878 0451            add     al,51h
0040387a c685d4fdffff30  mov     byte ptr [ebp-22Ch],30h
00403881 8885d5fdffff    mov     byte ptr [ebp-22Bh],al
00403887 c785ccfdffff02000000 mov dword ptr [ebp-234h],2
00403891 e90efeffff      jmp     image00400000+0x36a4 (004036a4)
00403896 f7c100100000    test    ecx,1000h
0040389c 0f8514feffff    jne     image00400000+0x36b6 (004036b6)
004038a2 83c704          add     edi,4
004038a5 f6c120          test    cl,20h
004038a8 7418            je      image00400000+0x38c2 (004038c2)
004038aa 89bde4fdffff    mov     dword ptr [ebp-21Ch],edi
004038b0 f6c140          test    cl,40h
004038b3 7406            je      image00400000+0x38bb (004038bb)
004038b5 0fbf47fc        movsx   eax,word ptr [edi-4]
004038b9 eb04            jmp     image00400000+0x38bf (004038bf)
004038bb 0fb747fc        movzx   eax,word ptr [edi-4]
004038bf 99              cdq
004038c0 eb13            jmp     image00400000+0x38d5 (004038d5)
004038c2 8b47fc          mov     eax,dword ptr [edi-4]
004038c5 f6c140          test    cl,40h
004038c8 7403            je      image00400000+0x38cd (004038cd)
004038ca 99              cdq
004038cb eb02            jmp     image00400000+0x38cf (004038cf)
004038cd 33d2            xor     edx,edx
004038cf 89bde4fdffff    mov     dword ptr [ebp-21Ch],edi
004038d5 f6c140          test    cl,40h
004038d8 741a            je      image00400000+0x38f4 (004038f4)
004038da 85d2            test    edx,edx
004038dc 7f16            jg      image00400000+0x38f4 (004038f4)
004038de 7c04            jl      image00400000+0x38e4 (004038e4)
004038e0 85c0            test    eax,eax
004038e2 7310            jae     image00400000+0x38f4 (004038f4)
004038e4 f7d8            neg     eax
004038e6 13d6            adc     edx,esi
004038e8 f7da            neg     edx
004038ea 818df0fdffff00010000 or  dword ptr [ebp-210h],100h
004038f4 f785f0fdffff00900000 test dword ptr [ebp-210h],9000h
004038fe 8bfa            mov     edi,edx
00403900 8bd8            mov     ebx,eax
00403902 7502            jne     image00400000+0x3906 (00403906)
00403904 33ff            xor     edi,edi
00403906 39b5e8fdffff    cmp     dword ptr [ebp-218h],esi
0040390c 7d0c            jge     image00400000+0x391a (0040391a)
0040390e c785e8fdffff01000000 mov dword ptr [ebp-218h],1
00403918 eb1a            jmp     image00400000+0x3934 (00403934)
0040391a 83a5f0fdfffff7  and     dword ptr [ebp-210h],0FFFFFFF7h
00403921 b800020000      mov     eax,200h
00403926 3985e8fdffff    cmp     dword ptr [ebp-218h],eax
0040392c 7e06            jle     image00400000+0x3934 (00403934)
0040392e 8985e8fdffff    mov     dword ptr [ebp-218h],eax
00403934 8bc3            mov     eax,ebx
00403936 0bc7            or      eax,edi
00403938 7506            jne     image00400000+0x3940 (00403940)
0040393a 21b5ccfdffff    and     dword ptr [ebp-234h],esi
00403940 8d75f3          lea     esi,[ebp-0Dh]
00403943 8b85e8fdffff    mov     eax,dword ptr [ebp-218h]
00403949 ff8de8fdffff    dec     dword ptr [ebp-218h]
0040394f 85c0            test    eax,eax
00403951 7f06            jg      image00400000+0x3959 (00403959)
00403953 8bc3            mov     eax,ebx
00403955 0bc7            or      eax,edi
00403957 742d            je      image00400000+0x3986 (00403986)
00403959 8b85d8fdffff    mov     eax,dword ptr [ebp-228h]
0040395f 99              cdq
00403960 52              push    edx
00403961 50              push    eax
00403962 57              push    edi
00403963 53              push    ebx
00403964 e8b7510000      call    image00400000+0x8b20 (00408b20)
00403969 83c130          add     ecx,30h
0040396c 899da0fdffff    mov     dword ptr [ebp-260h],ebx
00403972 8bd8            mov     ebx,eax
00403974 8bfa            mov     edi,edx
00403976 83f939          cmp     ecx,39h
00403979 7e06            jle     image00400000+0x3981 (00403981)
0040397b 038db4fdffff    add     ecx,dword ptr [ebp-24Ch]
00403981 880e            mov     byte ptr [esi],cl
00403983 4e              dec     esi
00403984 ebbd            jmp     image00400000+0x3943 (00403943)
00403986 8d45f3          lea     eax,[ebp-0Dh]
00403989 2bc6            sub     eax,esi
0040398b 46              inc     esi
0040398c f785f0fdffff00020000 test dword ptr [ebp-210h],200h
00403996 8985d8fdffff    mov     dword ptr [ebp-228h],eax
0040399c 89b5e0fdffff    mov     dword ptr [ebp-220h],esi
004039a2 7462            je      image00400000+0x3a06 (00403a06)
004039a4 85c0            test    eax,eax
004039a6 7407            je      image00400000+0x39af (004039af)
004039a8 8bce            mov     ecx,esi
004039aa 803930          cmp     byte ptr [ecx],30h
004039ad 7457            je      image00400000+0x3a06 (00403a06)
004039af ff8de0fdffff    dec     dword ptr [ebp-220h]
004039b5 8b8de0fdffff    mov     ecx,dword ptr [ebp-220h]
004039bb c60130          mov     byte ptr [ecx],30h
004039be 40              inc     eax
004039bf eb3f            jmp     image00400000+0x3a00 (00403a00)
004039c1 49              dec     ecx
004039c2 663930          cmp     word ptr [eax],si
004039c5 7407            je      image00400000+0x39ce (004039ce)
004039c7 83c002          add     eax,2
004039ca 85c9            test    ecx,ecx
004039cc 75f3            jne     image00400000+0x39c1 (004039c1)
004039ce 2b85e0fdffff    sub     eax,dword ptr [ebp-220h]
004039d4 d1f8            sar     eax,1
004039d6 eb28            jmp     image00400000+0x3a00 (00403a00)
004039d8 85ff            test    edi,edi
004039da 750b            jne     image00400000+0x39e7 (004039e7)
004039dc a10c004100      mov     eax,dword ptr [image00400000+0x1000c (0041000c)]
004039e1 8985e0fdffff    mov     dword ptr [ebp-220h],eax
004039e7 8b85e0fdffff    mov     eax,dword ptr [ebp-220h]
004039ed eb07            jmp     image00400000+0x39f6 (004039f6)
004039ef 49              dec     ecx
004039f0 803800          cmp     byte ptr [eax],0
004039f3 7405            je      image00400000+0x39fa (004039fa)
004039f5 40              inc     eax
004039f6 85c9            test    ecx,ecx
004039f8 75f5            jne     image00400000+0x39ef (004039ef)
004039fa 2b85e0fdffff    sub     eax,dword ptr [ebp-220h]
00403a00 8985d8fdffff    mov     dword ptr [ebp-228h],eax
00403a06 83bdbcfdffff00  cmp     dword ptr [ebp-244h],0
00403a0d 0f85b8010000    jne     image00400000+0x3bcb (00403bcb)
00403a13 8b8df0fdffff    mov     ecx,dword ptr [ebp-210h]
00403a19 f6c140          test    cl,40h
00403a1c 7435            je      image00400000+0x3a53 (00403a53)
00403a1e f7c100010000    test    ecx,100h
00403a24 7409            je      image00400000+0x3a2f (00403a2f)
00403a26 c685d4fdffff2d  mov     byte ptr [ebp-22Ch],2Dh
00403a2d eb1a            jmp     image00400000+0x3a49 (00403a49)
00403a2f f6c101          test    cl,1
00403a32 7409            je      image00400000+0x3a3d (00403a3d)
00403a34 c685d4fdffff2b  mov     byte ptr [ebp-22Ch],2Bh
00403a3b eb0c            jmp     image00400000+0x3a49 (00403a49)
00403a3d f6c102          test    cl,2
00403a40 7411            je      image00400000+0x3a53 (00403a53)
00403a42 c685d4fdffff20  mov     byte ptr [ebp-22Ch],20h
00403a49 c785ccfdffff01000000 mov dword ptr [ebp-234h],1
00403a53 8b85c8fdffff    mov     eax,dword ptr [ebp-238h]
00403a59 2b85d8fdffff    sub     eax,dword ptr [ebp-228h]
00403a5f 2b85ccfdffff    sub     eax,dword ptr [ebp-234h]
00403a65 8985a0fdffff    mov     dword ptr [ebp-260h],eax
00403a6b f6c10c          test    cl,0Ch
00403a6e 7525            jne     image00400000+0x3a95 (00403a95)
00403a70 8bf8            mov     edi,eax
00403a72 eb1d            jmp     image00400000+0x3a91 (00403a91)
00403a74 8b8dd0fdffff    mov     ecx,dword ptr [ebp-230h]
00403a7a 8db5dcfdffff    lea     esi,[ebp-224h]
00403a80 b020            mov     al,20h
00403a82 4f              dec     edi
00403a83 e830f5ffff      call    image00400000+0x2fb8 (00402fb8)
00403a88 83bddcfdffffff  cmp     dword ptr [ebp-224h],0FFFFFFFFh
00403a8f 7404            je      image00400000+0x3a95 (00403a95)
00403a91 85ff            test    edi,edi
00403a93 7fdf            jg      image00400000+0x3a74 (00403a74)
00403a95 ffb5ccfdffff    push    dword ptr [ebp-234h]
00403a9b 8bbd94fdffff    mov     edi,dword ptr [ebp-26Ch]
00403aa1 8b9dd0fdffff    mov     ebx,dword ptr [ebp-230h]
00403aa7 8d85d4fdffff    lea     eax,[ebp-22Ch]
00403aad 50              push    eax
00403aae 8d85dcfdffff    lea     eax,[ebp-224h]
00403ab4 e832f5ffff      call    image00400000+0x2feb (00402feb)
00403ab9 f685f0fdffff08  test    byte ptr [ebp-210h],8
00403ac0 59              pop     ecx
00403ac1 59              pop     ecx
00403ac2 742e            je      image00400000+0x3af2 (00403af2)
00403ac4 f685f0fdffff04  test    byte ptr [ebp-210h],4
00403acb 7525            jne     image00400000+0x3af2 (00403af2)
00403acd 8bbda0fdffff    mov     edi,dword ptr [ebp-260h]
00403ad3 eb19            jmp     image00400000+0x3aee (00403aee)
00403ad5 8db5dcfdffff    lea     esi,[ebp-224h]
00403adb 8bcb            mov     ecx,ebx
00403add b030            mov     al,30h
00403adf 4f              dec     edi
00403ae0 e8d3f4ffff      call    image00400000+0x2fb8 (00402fb8)
00403ae5 83bddcfdffffff  cmp     dword ptr [ebp-224h],0FFFFFFFFh
00403aec 7404            je      image00400000+0x3af2 (00403af2)
00403aee 85ff            test    edi,edi
00403af0 7fe3            jg      image00400000+0x3ad5 (00403ad5)
00403af2 83bdc4fdffff00  cmp     dword ptr [ebp-23Ch],0
00403af9 8b85d8fdffff    mov     eax,dword ptr [ebp-228h]
00403aff 7475            je      image00400000+0x3b76 (00403b76)
00403b01 85c0            test    eax,eax
00403b03 7e71            jle     image00400000+0x3b76 (00403b76)
00403b05 8bb5e0fdffff    mov     esi,dword ptr [ebp-220h]
00403b0b 898598fdffff    mov     dword ptr [ebp-268h],eax
00403b11 0fb706          movzx   eax,word ptr [esi]
00403b14 ff8d98fdffff    dec     dword ptr [ebp-268h]
00403b1a 50              push    eax
00403b1b 6a06            push    6
00403b1d 8d45f4          lea     eax,[ebp-0Ch]
00403b20 50              push    eax
00403b21 8d8590fdffff    lea     eax,[ebp-270h]
00403b27 50              push    eax
00403b28 83c602          add     esi,2
00403b2b e87b4f0000      call    image00400000+0x8aab (00408aab)
00403b30 83c410          add     esp,10h
00403b33 85c0            test    eax,eax
00403b35 7536            jne     image00400000+0x3b6d (00403b6d)
00403b37 398590fdffff    cmp     dword ptr [ebp-270h],eax
00403b3d 742e            je      image00400000+0x3b6d (00403b6d)
00403b3f ffb590fdffff    push    dword ptr [ebp-270h]
00403b45 8bbd94fdffff    mov     edi,dword ptr [ebp-26Ch]
00403b4b 8b9dd0fdffff    mov     ebx,dword ptr [ebp-230h]
00403b51 8d45f4          lea     eax,[ebp-0Ch]
00403b54 50              push    eax
00403b55 8d85dcfdffff    lea     eax,[ebp-224h]
00403b5b e88bf4ffff      call    image00400000+0x2feb (00402feb)
00403b60 83bd98fdffff00  cmp     dword ptr [ebp-268h],0
00403b67 59              pop     ecx
00403b68 59              pop     ecx
00403b69 75a6            jne     image00400000+0x3b11 (00403b11)
00403b6b eb23            jmp     image00400000+0x3b90 (00403b90)
00403b6d 838ddcfdffffff  or      dword ptr [ebp-224h],0FFFFFFFFh
00403b74 eb1a            jmp     image00400000+0x3b90 (00403b90)
00403b76 8bbd94fdffff    mov     edi,dword ptr [ebp-26Ch]
00403b7c 50              push    eax
00403b7d ffb5e0fdffff    push    dword ptr [ebp-220h]
00403b83 8d85dcfdffff    lea     eax,[ebp-224h]
00403b89 e85df4ffff      call    image00400000+0x2feb (00402feb)
00403b8e 59              pop     ecx
00403b8f 59              pop     ecx
00403b90 83bddcfdffff00  cmp     dword ptr [ebp-224h],0
00403b97 7c32            jl      image00400000+0x3bcb (00403bcb)
00403b99 f685f0fdffff04  test    byte ptr [ebp-210h],4
00403ba0 7429            je      image00400000+0x3bcb (00403bcb)
00403ba2 8bbda0fdffff    mov     edi,dword ptr [ebp-260h]
00403ba8 eb1d            jmp     image00400000+0x3bc7 (00403bc7)
00403baa 8b8dd0fdffff    mov     ecx,dword ptr [ebp-230h]
00403bb0 8db5dcfdffff    lea     esi,[ebp-224h]
00403bb6 b020            mov     al,20h
00403bb8 4f              dec     edi
00403bb9 e8faf3ffff      call    image00400000+0x2fb8 (00402fb8)
00403bbe 83bddcfdffffff  cmp     dword ptr [ebp-224h],0FFFFFFFFh
00403bc5 7404            je      image00400000+0x3bcb (00403bcb)
00403bc7 85ff            test    edi,edi
00403bc9 7fdf            jg      image00400000+0x3baa (00403baa)
00403bcb 83bdb8fdffff00  cmp     dword ptr [ebp-248h],0
00403bd2 7413            je      image00400000+0x3be7 (00403be7)
00403bd4 ffb5b8fdffff    push    dword ptr [ebp-248h]
00403bda e83feaffff      call    image00400000+0x261e (0040261e)
00403bdf 83a5b8fdffff00  and     dword ptr [ebp-248h],0
00403be6 59              pop     ecx
00403be7 8b9dc0fdffff    mov     ebx,dword ptr [ebp-240h]
00403bed 8a03            mov     al,byte ptr [ebx]
00403bef 8885effdffff    mov     byte ptr [ebp-211h],al
00403bf5 84c0            test    al,al
00403bf7 7413            je      image00400000+0x3c0c (00403c0c)
00403bf9 8b8d8cfdffff    mov     ecx,dword ptr [ebp-274h]
00403bff 8bbde4fdffff    mov     edi,dword ptr [ebp-21Ch]
00403c05 8ad0            mov     dl,al
00403c07 e972f5ffff      jmp     image00400000+0x317e (0040317e)
00403c0c 80bdb0fdffff00  cmp     byte ptr [ebp-250h],0
00403c13 740a            je      image00400000+0x3c1f (00403c1f)
00403c15 8b85acfdffff    mov     eax,dword ptr [ebp-254h]
00403c1b 836070fd        and     dword ptr [eax+70h],0FFFFFFFDh
00403c1f 8b85dcfdffff    mov     eax,dword ptr [ebp-224h]
00403c25 8b4dfc          mov     ecx,dword ptr [ebp-4]
00403c28 5f              pop     edi
00403c29 5e              pop     esi
00403c2a 33cd            xor     ecx,ebp
00403c2c 5b              pop     ebx
00403c2d e8c9e8ffff      call    image00400000+0x24fb (004024fb)
00403c32 c9              leave
00403c33 c3              ret
00403c34 90              nop
00403c35 cf              iretd
00403c36 334000          xor     eax,dword ptr [eax]
00403c39 ce              into
00403c3a 314000          xor     dword ptr [eax],eax
00403c3d fe              ???
00403c3e 314000          xor     dword ptr [eax],eax
00403c41 5c              pop     esp
00403c42 324000          xor     al,byte ptr [eax]
00403c45 a832            test    al,32h
00403c47 40              inc     eax
00403c48 00b3324000f9    add     byte ptr [ebx-6FFBFCEh],dh
00403c4e 324000          xor     al,byte ptr [eax]
00403c51 293440          sub     dword ptr [eax+eax*2],esi
00403c54 008bff558bec    add     byte ptr [ebx-1374AA01h],cl
00403c5a 8b4508          mov     eax,dword ptr [ebp+8]
00403c5d a314124100      mov     dword ptr [image00400000+0x11214 (00411214)],eax
00403c62 5d              pop     ebp
00403c63 c3              ret
00403c64 8bff            mov     edi,edi
00403c66 55              push    ebp
00403c67 8bec            mov     ebp,esp
00403c69 81ec28030000    sub     esp,328h
00403c6f a104004100      mov     eax,dword ptr [image00400000+0x10004 (00410004)]
00403c74 33c5            xor     eax,ebp
00403c76 8945fc          mov     dword ptr [ebp-4],eax
00403c79 53              push    ebx
00403c7a 8b5d08          mov     ebx,dword ptr [ebp+8]
00403c7d 57              push    edi
00403c7e 83fbff          cmp     ebx,0FFFFFFFFh
00403c81 7407            je      image00400000+0x3c8a (00403c8a)
00403c83 53              push    ebx
00403c84 e8a13f0000      call    image00400000+0x7c2a (00407c2a)
00403c89 59              pop     ecx
00403c8a 83a5e0fcffff00  and     dword ptr [ebp-320h],0
00403c91 6a4c            push    4Ch
00403c93 8d85e4fcffff    lea     eax,[ebp-31Ch]
00403c99 6a00            push    0
00403c9b 50              push    eax
00403c9c e81f4f0000      call    image00400000+0x8bc0 (00408bc0)
00403ca1 8d85e0fcffff    lea     eax,[ebp-320h]
00403ca7 8985d8fcffff    mov     dword ptr [ebp-328h],eax
00403cad 8d8530fdffff    lea     eax,[ebp-2D0h]
00403cb3 83c40c          add     esp,0Ch
00403cb6 8985dcfcffff    mov     dword ptr [ebp-324h],eax
00403cbc 8985e0fdffff    mov     dword ptr [ebp-220h],eax
00403cc2 898ddcfdffff    mov     dword ptr [ebp-224h],ecx
00403cc8 8995d8fdffff    mov     dword ptr [ebp-228h],edx
00403cce 899dd4fdffff    mov     dword ptr [ebp-22Ch],ebx
00403cd4 89b5d0fdffff    mov     dword ptr [ebp-230h],esi
00403cda 89bdccfdffff    mov     dword ptr [ebp-234h],edi
00403ce0 668c95f8fdffff  mov     word ptr [ebp-208h],ss
00403ce7 668c8decfdffff  mov     word ptr [ebp-214h],cs
00403cee 668c9dc8fdffff  mov     word ptr [ebp-238h],ds
00403cf5 668c85c4fdffff  mov     word ptr [ebp-23Ch],es
00403cfc 668ca5c0fdffff  mov     word ptr [ebp-240h],fs
00403d03 668cadbcfdffff  mov     word ptr [ebp-244h],gs
00403d0a 9c              pushfd
00403d0b 8f85f0fdffff    pop     dword ptr [ebp-210h]
00403d11 8b4504          mov     eax,dword ptr [ebp+4]
00403d14 8d4d04          lea     ecx,[ebp+4]
00403d17 898df4fdffff    mov     dword ptr [ebp-20Ch],ecx
00403d1d c78530fdffff01000100 mov dword ptr [ebp-2D0h],10001h
00403d27 8985e8fdffff    mov     dword ptr [ebp-218h],eax
00403d2d 8b49fc          mov     ecx,dword ptr [ecx-4]
00403d30 898de4fdffff    mov     dword ptr [ebp-21Ch],ecx
00403d36 8b4d0c          mov     ecx,dword ptr [ebp+0Ch]
00403d39 898de0fcffff    mov     dword ptr [ebp-320h],ecx
00403d3f 8b4d10          mov     ecx,dword ptr [ebp+10h]
00403d42 898de4fcffff    mov     dword ptr [ebp-31Ch],ecx
00403d48 8985ecfcffff    mov     dword ptr [ebp-314h],eax
00403d4e ff15b0d04000    call    dword ptr [image00400000+0xd0b0 (0040d0b0)]
00403d54 6a00            push    0
00403d56 8bf8            mov     edi,eax
00403d58 ff15acd04000    call    dword ptr [image00400000+0xd0ac (0040d0ac)]
00403d5e 8d85d8fcffff    lea     eax,[ebp-328h]
00403d64 50              push    eax
00403d65 ff15a8d04000    call    dword ptr [image00400000+0xd0a8 (0040d0a8)]
00403d6b 85c0            test    eax,eax
00403d6d 7510            jne     image00400000+0x3d7f (00403d7f)
00403d6f 85ff            test    edi,edi
00403d71 750c            jne     image00400000+0x3d7f (00403d7f)
00403d73 83fbff          cmp     ebx,0FFFFFFFFh
00403d76 7407            je      image00400000+0x3d7f (00403d7f)
00403d78 53              push    ebx
00403d79 e8ac3e0000      call    image00400000+0x7c2a (00407c2a)
00403d7e 59              pop     ecx
00403d7f 8b4dfc          mov     ecx,dword ptr [ebp-4]
00403d82 5f              pop     edi
00403d83 33cd            xor     ecx,ebp
00403d85 5b              pop     ebx
00403d86 e870e7ffff      call    image00400000+0x24fb (004024fb)
00403d8b c9              leave
00403d8c c3              ret
00403d8d 8bff            mov     edi,edi
00403d8f 56              push    esi
00403d90 6a01            push    1
00403d92 be170400c0      mov     esi,0C0000417h
00403d97 56              push    esi
00403d98 6a02            push    2
00403d9a e8c5feffff      call    image00400000+0x3c64 (00403c64)
00403d9f 83c40c          add     esp,0Ch
00403da2 56              push    esi
00403da3 ff15a4d04000    call    dword ptr [image00400000+0xd0a4 (0040d0a4)]
00403da9 50              push    eax
00403daa ff15a0d04000    call    dword ptr [image00400000+0xd0a0 (0040d0a0)]
00403db0 5e              pop     esi
00403db1 c3              ret
00403db2 8bff            mov     edi,edi
00403db4 55              push    ebp
00403db5 8bec            mov     ebp,esp
00403db7 ff3514124100    push    dword ptr [image00400000+0x11214 (00411214)]
00403dbd ff15b4d04000    call    dword ptr [image00400000+0xd0b4 (0040d0b4)]
00403dc3 85c0            test    eax,eax
00403dc5 7403            je      image00400000+0x3dca (00403dca)
00403dc7 5d              pop     ebp
00403dc8 ffe0            jmp     eax
00403dca ff7518          push    dword ptr [ebp+18h]
00403dcd ff7514          push    dword ptr [ebp+14h]
00403dd0 ff7510          push    dword ptr [ebp+10h]
00403dd3 ff750c          push    dword ptr [ebp+0Ch]
00403dd6 ff7508          push    dword ptr [ebp+8]
00403dd9 e8afffffff      call    image00400000+0x3d8d (00403d8d)
00403dde cc              int     3
00403ddf 33c0            xor     eax,eax
00403de1 50              push    eax
00403de2 50              push    eax
00403de3 50              push    eax
00403de4 50              push    eax
00403de5 50              push    eax
00403de6 e8c7ffffff      call    image00400000+0x3db2 (00403db2)
00403deb 83c414          add     esp,14h
00403dee c3              ret
00403def 8bff            mov     edi,edi
00403df1 55              push    ebp
00403df2 8bec            mov     ebp,esp
00403df4 8b4508          mov     eax,dword ptr [ebp+8]
00403df7 33c9            xor     ecx,ecx
00403df9 3b04cd18004100  cmp     eax,dword ptr image00400000+0x10018 (00410018)[ecx*8]
00403e00 7413            je      image00400000+0x3e15 (00403e15)
00403e02 41              inc     ecx
00403e03 83f92d          cmp     ecx,2Dh
00403e06 72f1            jb      image00400000+0x3df9 (00403df9)
00403e08 8d48ed          lea     ecx,[eax-13h]
00403e0b 83f911          cmp     ecx,11h
00403e0e 770e            ja      image00400000+0x3e1e (00403e1e)
00403e10 6a0d            push    0Dh
00403e12 58              pop     eax
00403e13 5d              pop     ebp
00403e14 c3              ret
00403e15 8b04cd1c004100  mov     eax,dword ptr image00400000+0x1001c (0041001c)[ecx*8]
00403e1c 5d              pop     ebp
00403e1d c3              ret
00403e1e 0544ffffff      add     eax,0FFFFFF44h
00403e23 6a0e            push    0Eh
00403e25 59              pop     ecx
00403e26 3bc8            cmp     ecx,eax
00403e28 1bc0            sbb     eax,eax
00403e2a 23c1            and     eax,ecx
00403e2c 83c008          add     eax,8
00403e2f 5d              pop     ebp
00403e30 c3              ret
00403e31 e86b240000      call    image00400000+0x62a1 (004062a1)
00403e36 85c0            test    eax,eax
00403e38 7506            jne     image00400000+0x3e40 (00403e40)
00403e3a b880014100      mov     eax,offset image00400000+0x10180 (00410180)
00403e3f c3              ret
00403e40 83c008          add     eax,8
00403e43 c3              ret
00403e44 e858240000      call    image00400000+0x62a1 (004062a1)
00403e49 85c0            test    eax,eax
00403e4b 7506            jne     image00400000+0x3e53 (00403e53)
00403e4d b884014100      mov     eax,offset image00400000+0x10184 (00410184)
00403e52 c3              ret
00403e53 83c00c          add     eax,0Ch
00403e56 c3              ret
00403e57 8bff            mov     edi,edi
00403e59 55              push    ebp
00403e5a 8bec            mov     ebp,esp
00403e5c 56              push    esi
00403e5d e8e2ffffff      call    image00400000+0x3e44 (00403e44)
00403e62 8b4d08          mov     ecx,dword ptr [ebp+8]
00403e65 51              push    ecx
00403e66 8908            mov     dword ptr [eax],ecx
00403e68 e882ffffff      call    image00400000+0x3def (00403def)
00403e6d 59              pop     ecx
00403e6e 8bf0            mov     esi,eax
00403e70 e8bcffffff      call    image00400000+0x3e31 (00403e31)
00403e75 8930            mov     dword ptr [eax],esi
00403e77 5e              pop     esi
00403e78 5d              pop     ebp
00403e79 c3              ret
00403e7a cc              int     3
00403e7b cc              int     3
00403e7c cc              int     3
00403e7d cc              int     3
00403e7e cc              int     3
00403e7f cc              int     3
00403e80 8b4c2404        mov     ecx,dword ptr [esp+4]
00403e84 f7c103000000    test    ecx,3
00403e8a 7424            je      image00400000+0x3eb0 (00403eb0)
00403e8c 8a01            mov     al,byte ptr [ecx]
00403e8e 83c101          add     ecx,1
00403e91 84c0            test    al,al
00403e93 744e            je      image00400000+0x3ee3 (00403ee3)
00403e95 f7c103000000    test    ecx,3
00403e9b 75ef            jne     image00400000+0x3e8c (00403e8c)
00403e9d 0500000000      add     eax,0
00403ea2 8da42400000000  lea     esp,[esp]
00403ea9 8da42400000000  lea     esp,[esp]
00403eb0 8b01            mov     eax,dword ptr [ecx]
00403eb2 bafffefe7e      mov     edx,7EFEFEFFh
00403eb7 03d0            add     edx,eax
00403eb9 83f0ff          xor     eax,0FFFFFFFFh
00403ebc 33c2            xor     eax,edx
00403ebe 83c104          add     ecx,4
00403ec1 a900010181      test    eax,81010100h
00403ec6 74e8            je      image00400000+0x3eb0 (00403eb0)
00403ec8 8b41fc          mov     eax,dword ptr [ecx-4]
00403ecb 84c0            test    al,al
00403ecd 7432            je      image00400000+0x3f01 (00403f01)
00403ecf 84e4            test    ah,ah
00403ed1 7424            je      image00400000+0x3ef7 (00403ef7)
00403ed3 a90000ff00      test    eax,0FF0000h
00403ed8 7413            je      image00400000+0x3eed (00403eed)
00403eda a9000000ff      test    eax,0FF000000h
00403edf 7402            je      image00400000+0x3ee3 (00403ee3)
00403ee1 ebcd            jmp     image00400000+0x3eb0 (00403eb0)
00403ee3 8d41ff          lea     eax,[ecx-1]
00403ee6 8b4c2404        mov     ecx,dword ptr [esp+4]
00403eea 2bc1            sub     eax,ecx
00403eec c3              ret
00403eed 8d41fe          lea     eax,[ecx-2]
00403ef0 8b4c2404        mov     ecx,dword ptr [esp+4]
00403ef4 2bc1            sub     eax,ecx
00403ef6 c3              ret
00403ef7 8d41fd          lea     eax,[ecx-3]
00403efa 8b4c2404        mov     ecx,dword ptr [esp+4]
00403efe 2bc1            sub     eax,ecx
00403f00 c3              ret
00403f01 8d41fc          lea     eax,[ecx-4]
00403f04 8b4c2404        mov     ecx,dword ptr [esp+4]
00403f08 2bc1            sub     eax,ecx
00403f0a c3              ret
00403f0b 8bff            mov     edi,edi
00403f0d 55              push    ebp
00403f0e 8bec            mov     ebp,esp
00403f10 8b06            mov     eax,dword ptr [esi]
00403f12 394508          cmp     dword ptr [ebp+8],eax
00403f15 7546            jne     image00400000+0x3f5d (00403f5d)
00403f17 8b0f            mov     ecx,dword ptr [edi]
00403f19 6a02            push    2
00403f1b 50              push    eax
00403f1c 3b4d0c          cmp     ecx,dword ptr [ebp+0Ch]
00403f1f 752b            jne     image00400000+0x3f4c (00403f4c)
00403f21 e82e490000      call    image00400000+0x8854 (00408854)
00403f26 59              pop     ecx
00403f27 59              pop     ecx
00403f28 8907            mov     dword ptr [edi],eax
00403f2a 85c0            test    eax,eax
00403f2c 7504            jne     image00400000+0x3f32 (00403f32)
00403f2e 33c0            xor     eax,eax
00403f30 5d              pop     ebp
00403f31 c3              ret
00403f32 8b4510          mov     eax,dword ptr [ebp+10h]
00403f35 c70001000000    mov     dword ptr [eax],1
00403f3b ff36            push    dword ptr [esi]
00403f3d ff750c          push    dword ptr [ebp+0Ch]
00403f40 ff37            push    dword ptr [edi]
00403f42 e8f94c0000      call    image00400000+0x8c40 (00408c40)
00403f47 83c40c          add     esp,0Ch
00403f4a eb0f            jmp     image00400000+0x3f5b (00403f5b)
00403f4c 51              push    ecx
00403f4d e89c490000      call    image00400000+0x88ee (004088ee)
00403f52 83c40c          add     esp,0Ch
00403f55 85c0            test    eax,eax
00403f57 74d5            je      image00400000+0x3f2e (00403f2e)
00403f59 8907            mov     dword ptr [edi],eax
00403f5b d126            shl     dword ptr [esi],1
00403f5d 33c0            xor     eax,eax
00403f5f 40              inc     eax
00403f60 5d              pop     ebp
00403f61 c3              ret
00403f62 8bff            mov     edi,edi
00403f64 55              push    ebp
00403f65 8bec            mov     ebp,esp
00403f67 0fb64508        movzx   eax,byte ptr [ebp+8]
00403f6b 50              push    eax
00403f6c e881500000      call    image00400000+0x8ff2 (00408ff2)
00403f71 85c0            test    eax,eax
00403f73 0fbe4508        movsx   eax,byte ptr [ebp+8]
00403f77 59              pop     ecx
00403f78 7506            jne     image00400000+0x3f80 (00403f80)
00403f7a 83e0df          and     eax,0FFFFFFDFh
00403f7d 83e807          sub     eax,7
00403f80 5d              pop     ebp
00403f81 c3              ret
00403f82 ff4a04          dec     dword ptr [edx+4]
00403f85 7809            js      image00400000+0x3f90 (00403f90)
00403f87 8b0a            mov     ecx,dword ptr [edx]
00403f89 0fb601          movzx   eax,byte ptr [ecx]
00403f8c 41              inc     ecx
00403f8d 890a            mov     dword ptr [edx],ecx
00403f8f c3              ret
00403f90 52              push    edx
00403f91 e88f510000      call    image00400000+0x9125 (00409125)
00403f96 59              pop     ecx
00403f97 c3              ret
00403f98 8bff            mov     edi,edi
00403f9a 55              push    ebp
00403f9b 8bec            mov     ebp,esp
00403f9d 53              push    ebx
00403f9e 8b5508          mov     edx,dword ptr [ebp+8]
00403fa1 ff06            inc     dword ptr [esi]
00403fa3 e8daffffff      call    image00400000+0x3f82 (00403f82)
00403fa8 8bd8            mov     ebx,eax
00403faa 83fbff          cmp     ebx,0FFFFFFFFh
00403fad 740e            je      image00400000+0x3fbd (00403fbd)
00403faf 0fb6c3          movzx   eax,bl
00403fb2 50              push    eax
00403fb3 e83f510000      call    image00400000+0x90f7 (004090f7)
00403fb8 59              pop     ecx
00403fb9 85c0            test    eax,eax
00403fbb 75e1            jne     image00400000+0x3f9e (00403f9e)
00403fbd 8bc3            mov     eax,ebx
00403fbf 5b              pop     ebx
00403fc0 5d              pop     ebp
00403fc1 c3              ret
00403fc2 8bff            mov     edi,edi
00403fc4 55              push    ebp
00403fc5 8bec            mov     ebp,esp
00403fc7 81ec00020000    sub     esp,200h
00403fcd a104004100      mov     eax,dword ptr [image00400000+0x10004 (00410004)]
00403fd2 33c5            xor     eax,ebp
00403fd4 8945fc          mov     dword ptr [ebp-4],eax
00403fd7 8b4d14          mov     ecx,dword ptr [ebp+14h]
00403fda 8b4508          mov     eax,dword ptr [ebp+8]
00403fdd 56              push    esi
00403fde 8b750c          mov     esi,dword ptr [ebp+0Ch]
00403fe1 57              push    edi
00403fe2 33ff            xor     edi,edi
00403fe4 898d18feffff    mov     dword ptr [ebp-1E8h],ecx
00403fea 8d8d7cfeffff    lea     ecx,[ebp-184h]
00403ff0 89855cfeffff    mov     dword ptr [ebp-1A4h],eax
00403ff6 898d50feffff    mov     dword ptr [ebp-1B0h],ecx
00403ffc c78524feffff5e010000 mov dword ptr [ebp-1DCh],15Eh
00404006 89bd30feffff    mov     dword ptr [ebp-1D0h],edi
0040400c 89bd14feffff    mov     dword ptr [ebp-1ECh],edi
00404012 89bd6cfeffff    mov     dword ptr [ebp-194h],edi
00404018 3bf7            cmp     esi,edi
0040401a 7518            jne     image00400000+0x4034 (00404034)
0040401c e810feffff      call    image00400000+0x3e31 (00403e31)
00404021 c70016000000    mov     dword ptr [eax],16h
00404027 e8b3fdffff      call    image00400000+0x3ddf (00403ddf)
0040402c 83c8ff          or      eax,0FFFFFFFFh
0040402f e9840f0000      jmp     image00400000+0x4fb8 (00404fb8)
00404034 3bc7            cmp     eax,edi
00404036 74e4            je      image00400000+0x401c (0040401c)
00404038 f6400c40        test    byte ptr [eax+0Ch],40h
0040403c 53              push    ebx
0040403d 7572            jne     image00400000+0x40b1 (004040b1)
0040403f 50              push    eax
00404040 e881470000      call    image00400000+0x87c6 (004087c6)
00404045 59              pop     ecx
00404046 ba20094100      mov     edx,offset image00400000+0x10920 (00410920)
0040404b 83f8ff          cmp     eax,0FFFFFFFFh
0040404e 741b            je      image00400000+0x406b (0040406b)
00404050 83f8fe          cmp     eax,0FFFFFFFEh
00404053 7416            je      image00400000+0x406b (0040406b)
00404055 8bc8            mov     ecx,eax
00404057 83e11f          and     ecx,1Fh
0040405a 8bd8            mov     ebx,eax
0040405c c1fb05          sar     ebx,5
0040405f c1e106          shl     ecx,6
00404062 030c9da02b4100  add     ecx,dword ptr image00400000+0x12ba0 (00412ba0)[ebx*4]
00404069 eb02            jmp     image00400000+0x406d (0040406d)
0040406b 8bca            mov     ecx,edx
0040406d f641247f        test    byte ptr [ecx+24h],7Fh
00404071 7526            jne     image00400000+0x4099 (00404099)
00404073 83f8ff          cmp     eax,0FFFFFFFFh
00404076 7419            je      image00400000+0x4091 (00404091)
00404078 83f8fe          cmp     eax,0FFFFFFFEh
0040407b 7414            je      image00400000+0x4091 (00404091)
0040407d 8bc8            mov     ecx,eax
0040407f 83e01f          and     eax,1Fh
00404082 c1f905          sar     ecx,5
00404085 c1e006          shl     eax,6
00404088 03048da02b4100  add     eax,dword ptr image00400000+0x12ba0 (00412ba0)[ecx*4]
0040408f eb02            jmp     image00400000+0x4093 (00404093)
00404091 8bc2            mov     eax,edx
00404093 f6402480        test    byte ptr [eax+24h],80h
00404097 7418            je      image00400000+0x40b1 (004040b1)
00404099 e893fdffff      call    image00400000+0x3e31 (00403e31)
0040409e c70016000000    mov     dword ptr [eax],16h
004040a4 e836fdffff      call    image00400000+0x3ddf (00403ddf)
004040a9 83c8ff          or      eax,0FFFFFFFFh
004040ac e9060f0000      jmp     image00400000+0x4fb7 (00404fb7)
004040b1 ff7510          push    dword ptr [ebp+10h]
004040b4 8d8d04feffff    lea     ecx,[ebp-1FCh]
004040ba e80ce8ffff      call    image00400000+0x28cb (004028cb)
004040bf 8a06            mov     al,byte ptr [esi]
004040c1 c6855bfeffff00  mov     byte ptr [ebp-1A5h],0
004040c8 89bd74feffff    mov     dword ptr [ebp-18Ch],edi
004040ce 89bd34feffff    mov     dword ptr [ebp-1CCh],edi
004040d4 84c0            test    al,al
004040d6 0f84c20e0000    je      image00400000+0x4f9e (00404f9e)
004040dc 8bfe            mov     edi,esi
004040de 0fb6c0          movzx   eax,al
004040e1 50              push    eax
004040e2 e810500000      call    image00400000+0x90f7 (004090f7)
004040e7 59              pop     ecx
004040e8 85c0            test    eax,eax
004040ea 743f            je      image00400000+0x412b (0040412b)
004040ec ffb55cfeffff    push    dword ptr [ebp-1A4h]
004040f2 ff8d74feffff    dec     dword ptr [ebp-18Ch]
004040f8 8db574feffff    lea     esi,[ebp-18Ch]
004040fe e895feffff      call    image00400000+0x3f98 (00403f98)
00404103 59              pop     ecx
00404104 83f8ff          cmp     eax,0FFFFFFFFh
00404107 740e            je      image00400000+0x4117 (00404117)
00404109 ffb55cfeffff    push    dword ptr [ebp-1A4h]
0040410f 50              push    eax
00404110 e832510000      call    image00400000+0x9247 (00409247)
00404115 59              pop     ecx
00404116 59              pop     ecx
00404117 47              inc     edi
00404118 0fb607          movzx   eax,byte ptr [edi]
0040411b 50              push    eax
0040411c e8d64f0000      call    image00400000+0x90f7 (004090f7)
00404121 59              pop     ecx
00404122 85c0            test    eax,eax
00404124 75f1            jne     image00400000+0x4117 (00404117)
00404126 e9eb0d0000      jmp     image00400000+0x4f16 (00404f16)
0040412b 8a07            mov     al,byte ptr [edi]
0040412d 3c25            cmp     al,25h
0040412f 0f856b0d0000    jne     image00400000+0x4ea0 (00404ea0)
00404135 384701          cmp     byte ptr [edi+1],al
00404138 0f84580d0000    je      image00400000+0x4e96 (00404e96)
0040413e 33c0            xor     eax,eax
00404140 89851cfeffff    mov     dword ptr [ebp-1E4h],eax
00404146 88852ffeffff    mov     byte ptr [ebp-1D1h],al
0040414c 898554feffff    mov     dword ptr [ebp-1ACh],eax
00404152 898548feffff    mov     dword ptr [ebp-1B8h],eax
00404158 898564feffff    mov     dword ptr [ebp-19Ch],eax
0040415e 888558feffff    mov     byte ptr [ebp-1A8h],al
00404164 888559feffff    mov     byte ptr [ebp-1A7h],al
0040416a 888563feffff    mov     byte ptr [ebp-19Dh],al
00404170 888573feffff    mov     byte ptr [ebp-18Dh],al
00404176 88855afeffff    mov     byte ptr [ebp-1A6h],al
0040417c 88856bfeffff    mov     byte ptr [ebp-195h],al
00404182 c6857bfeffff01  mov     byte ptr [ebp-185h],1
00404189 898528feffff    mov     dword ptr [ebp-1D8h],eax
0040418f 33f6            xor     esi,esi
00404191 47              inc     edi
00404192 0fb61f          movzx   ebx,byte ptr [edi]
00404195 0fb6c3          movzx   eax,bl
00404198 50              push    eax
00404199 e8544e0000      call    image00400000+0x8ff2 (00408ff2)
0040419e 59              pop     ecx
0040419f 85c0            test    eax,eax
004041a1 741e            je      image00400000+0x41c1 (004041c1)
004041a3 8b8564feffff    mov     eax,dword ptr [ebp-19Ch]
004041a9 ff8548feffff    inc     dword ptr [ebp-1B8h]
004041af 6bc00a          imul    eax,eax,0Ah
004041b2 8d4418d0        lea     eax,[eax+ebx-30h]
004041b6 898564feffff    mov     dword ptr [ebp-19Ch],eax
004041bc e9c5000000      jmp     image00400000+0x4286 (00404286)
004041c1 83fb4e          cmp     ebx,4Eh
004041c4 0f8f83000000    jg      image00400000+0x424d (0040424d)
004041ca 0f84b6000000    je      image00400000+0x4286 (00404286)
004041d0 83fb2a          cmp     ebx,2Ah
004041d3 7470            je      image00400000+0x4245 (00404245)
004041d5 83fb46          cmp     ebx,46h
004041d8 0f84a8000000    je      image00400000+0x4286 (00404286)
004041de 83fb49          cmp     ebx,49h
004041e1 7410            je      image00400000+0x41f3 (004041f3)
004041e3 83fb4c          cmp     ebx,4Ch
004041e6 7574            jne     image00400000+0x425c (0040425c)
004041e8 fe857bfeffff    inc     byte ptr [ebp-185h]
004041ee e993000000      jmp     image00400000+0x4286 (00404286)
004041f3 8a4f01          mov     cl,byte ptr [edi+1]
004041f6 80f936          cmp     cl,36h
004041f9 751e            jne     image00400000+0x4219 (00404219)
004041fb 8d4702          lea     eax,[edi+2]
004041fe 803834          cmp     byte ptr [eax],34h
00404201 7516            jne     image00400000+0x4219 (00404219)
00404203 ff8528feffff    inc     dword ptr [ebp-1D8h]
00404209 8bf8            mov     edi,eax
0040420b 89b538feffff    mov     dword ptr [ebp-1C8h],esi
00404211 89b53cfeffff    mov     dword ptr [ebp-1C4h],esi
00404217 eb6d            jmp     image00400000+0x4286 (00404286)
00404219 80f933          cmp     cl,33h
0040421c 750c            jne     image00400000+0x422a (0040422a)
0040421e 8d4702          lea     eax,[edi+2]
00404221 803832          cmp     byte ptr [eax],32h
00404224 7504            jne     image00400000+0x422a (0040422a)
00404226 8bf8            mov     edi,eax
00404228 eb5c            jmp     image00400000+0x4286 (00404286)
0040422a 80f964          cmp     cl,64h
0040422d 7457            je      image00400000+0x4286 (00404286)
0040422f 80f969          cmp     cl,69h
00404232 7452            je      image00400000+0x4286 (00404286)
00404234 80f96f          cmp     cl,6Fh
00404237 744d            je      image00400000+0x4286 (00404286)
00404239 80f978          cmp     cl,78h
0040423c 7448            je      image00400000+0x4286 (00404286)
0040423e 80f958          cmp     cl,58h
00404241 7519            jne     image00400000+0x425c (0040425c)
00404243 eb41            jmp     image00400000+0x4286 (00404286)
00404245 fe8563feffff    inc     byte ptr [ebp-19Dh]
0040424b eb39            jmp     image00400000+0x4286 (00404286)
0040424d 83fb68          cmp     ebx,68h
00404250 7428            je      image00400000+0x427a (0040427a)
00404252 83fb6c          cmp     ebx,6Ch
00404255 740d            je      image00400000+0x4264 (00404264)
00404257 83fb77          cmp     ebx,77h
0040425a 7416            je      image00400000+0x4272 (00404272)
0040425c fe8573feffff    inc     byte ptr [ebp-18Dh]
00404262 eb22            jmp     image00400000+0x4286 (00404286)
00404264 8d4701          lea     eax,[edi+1]
00404267 80386c          cmp     byte ptr [eax],6Ch
0040426a 7497            je      image00400000+0x4203 (00404203)
0040426c fe857bfeffff    inc     byte ptr [ebp-185h]
00404272 fe856bfeffff    inc     byte ptr [ebp-195h]
00404278 eb0c            jmp     image00400000+0x4286 (00404286)
0040427a fe8d7bfeffff    dec     byte ptr [ebp-185h]
00404280 fe8d6bfeffff    dec     byte ptr [ebp-195h]
00404286 80bd73feffff00  cmp     byte ptr [ebp-18Dh],0
0040428d 0f84fefeffff    je      image00400000+0x4191 (00404191)
00404293 80bd63feffff00  cmp     byte ptr [ebp-19Dh],0
0040429a 89bd44feffff    mov     dword ptr [ebp-1BCh],edi
004042a0 7519            jne     image00400000+0x42bb (004042bb)
004042a2 8b8518feffff    mov     eax,dword ptr [ebp-1E8h]
004042a8 8b30            mov     esi,dword ptr [eax]
004042aa 898500feffff    mov     dword ptr [ebp-200h],eax
004042b0 83c004          add     eax,4
004042b3 898518feffff    mov     dword ptr [ebp-1E8h],eax
004042b9 eb02            jmp     image00400000+0x42bd (004042bd)
004042bb 33f6            xor     esi,esi
004042bd 80bd6bfeffff00  cmp     byte ptr [ebp-195h],0
004042c4 89b540feffff    mov     dword ptr [ebp-1C0h],esi
004042ca c68573feffff00  mov     byte ptr [ebp-18Dh],0
004042d1 7518            jne     image00400000+0x42eb (004042eb)
004042d3 8a07            mov     al,byte ptr [edi]
004042d5 3c53            cmp     al,53h
004042d7 740b            je      image00400000+0x42e4 (004042e4)
004042d9 c6856bfeffffff  mov     byte ptr [ebp-195h],0FFh
004042e0 3c43            cmp     al,43h
004042e2 7507            jne     image00400000+0x42eb (004042eb)
004042e4 c6856bfeffff01  mov     byte ptr [ebp-195h],1
004042eb 0fb61f          movzx   ebx,byte ptr [edi]
004042ee 83cb20          or      ebx,20h
004042f1 899d4cfeffff    mov     dword ptr [ebp-1B4h],ebx
004042f7 83fb6e          cmp     ebx,6Eh
004042fa 744a            je      image00400000+0x4346 (00404346)
004042fc 83fb63          cmp     ebx,63h
004042ff 7419            je      image00400000+0x431a (0040431a)
00404301 83fb7b          cmp     ebx,7Bh
00404304 7414            je      image00400000+0x431a (0040431a)
00404306 ffb55cfeffff    push    dword ptr [ebp-1A4h]
0040430c 8db574feffff    lea     esi,[ebp-18Ch]
00404312 e881fcffff      call    image00400000+0x3f98 (00403f98)
00404317 59              pop     ecx
00404318 eb11            jmp     image00400000+0x432b (0040432b)
0040431a 8b955cfeffff    mov     edx,dword ptr [ebp-1A4h]
00404320 ff8574feffff    inc     dword ptr [ebp-18Ch]
00404326 e857fcffff      call    image00400000+0x3f82 (00403f82)
0040432b 89856cfeffff    mov     dword ptr [ebp-194h],eax
00404331 83f8ff          cmp     eax,0FFFFFFFFh
00404334 0f841c0c0000    je      image00400000+0x4f56 (00404f56)
0040433a 8bb540feffff    mov     esi,dword ptr [ebp-1C0h]
00404340 8bbd44feffff    mov     edi,dword ptr [ebp-1BCh]
00404346 8b8d48feffff    mov     ecx,dword ptr [ebp-1B8h]
0040434c 85c9            test    ecx,ecx
0040434e 740d            je      image00400000+0x435d (0040435d)
00404350 83bd64feffff00  cmp     dword ptr [ebp-19Ch],0
00404357 0f84c50b0000    je      image00400000+0x4f22 (00404f22)
0040435d 83fb6f          cmp     ebx,6Fh
00404360 0f8f84050000    jg      image00400000+0x48ea (004048ea)
00404366 0f845f080000    je      image00400000+0x4bcb (00404bcb)
0040436c 83fb63          cmp     ebx,63h
0040436f 0f8415040000    je      image00400000+0x478a (0040478a)
00404375 6a64            push    64h
00404377 58              pop     eax
00404378 3bd8            cmp     ebx,eax
0040437a 0f844b080000    je      image00400000+0x4bcb (00404bcb)
00404380 0f8e8e050000    jle     image00400000+0x4914 (00404914)
00404386 83fb67          cmp     ebx,67h
00404389 7e47            jle     image00400000+0x43d2 (004043d2)
0040438b 83fb69          cmp     ebx,69h
0040438e 7421            je      image00400000+0x43b1 (004043b1)
00404390 83fb6e          cmp     ebx,6Eh
00404393 0f857b050000    jne     image00400000+0x4914 (00404914)
00404399 80bd63feffff00  cmp     byte ptr [ebp-19Dh],0
004043a0 8bbd74feffff    mov     edi,dword ptr [ebp-18Ch]
004043a6 0f84a90a0000    je      image00400000+0x4e55 (00404e55)
004043ac e9d00a0000      jmp     image00400000+0x4e81 (00404e81)
004043b1 89854cfeffff    mov     dword ptr [ebp-1B4h],eax
004043b7 8b9d6cfeffff    mov     ebx,dword ptr [ebp-194h]
004043bd 83fb2d          cmp     ebx,2Dh
004043c0 0f8586060000    jne     image00400000+0x4a4c (00404a4c)
004043c6 c68559feffff01  mov     byte ptr [ebp-1A7h],1
004043cd e97f060000      jmp     image00400000+0x4a51 (00404a51)
004043d2 33db            xor     ebx,ebx
004043d4 83bd6cfeffff2d  cmp     dword ptr [ebp-194h],2Dh
004043db 750c            jne     image00400000+0x43e9 (004043e9)
004043dd 8b8550feffff    mov     eax,dword ptr [ebp-1B0h]
004043e3 c6002d          mov     byte ptr [eax],2Dh
004043e6 43              inc     ebx
004043e7 eb09            jmp     image00400000+0x43f2 (004043f2)
004043e9 83bd6cfeffff2b  cmp     dword ptr [ebp-194h],2Bh
004043f0 751d            jne     image00400000+0x440f (0040440f)
004043f2 ff8d64feffff    dec     dword ptr [ebp-19Ch]
004043f8 8b955cfeffff    mov     edx,dword ptr [ebp-1A4h]
004043fe ff8574feffff    inc     dword ptr [ebp-18Ch]
00404404 e879fbffff      call    image00400000+0x3f82 (00403f82)
00404409 89856cfeffff    mov     dword ptr [ebp-194h],eax
0040440f 83bd48feffff00  cmp     dword ptr [ebp-1B8h],0
00404416 7507            jne     image00400000+0x441f (0040441f)
00404418 838d64feffffff  or      dword ptr [ebp-19Ch],0FFFFFFFFh
0040441f 0fb6856cfeffff  movzx   eax,byte ptr [ebp-194h]
00404426 eb6b            jmp     image00400000+0x4493 (00404493)
00404428 8b8564feffff    mov     eax,dword ptr [ebp-19Ch]
0040442e ff8d64feffff    dec     dword ptr [ebp-19Ch]
00404434 85c0            test    eax,eax
00404436 7466            je      image00400000+0x449e (0040449e)
00404438 8a856cfeffff    mov     al,byte ptr [ebp-194h]
0040443e 8b8d50feffff    mov     ecx,dword ptr [ebp-1B0h]
00404444 ff8554feffff    inc     dword ptr [ebp-1ACh]
0040444a 88040b          mov     byte ptr [ebx+ecx],al
0040444d 8d8530feffff    lea     eax,[ebp-1D0h]
00404453 50              push    eax
00404454 8d857cfeffff    lea     eax,[ebp-184h]
0040445a 50              push    eax
0040445b 43              inc     ebx
0040445c 53              push    ebx
0040445d 8dbd50feffff    lea     edi,[ebp-1B0h]
00404463 8db524feffff    lea     esi,[ebp-1DCh]
00404469 e89dfaffff      call    image00400000+0x3f0b (00403f0b)
0040446e 83c40c          add     esp,0Ch
00404471 85c0            test    eax,eax
00404473 0f84dd0a0000    je      image00400000+0x4f56 (00404f56)
00404479 8b955cfeffff    mov     edx,dword ptr [ebp-1A4h]
0040447f ff8574feffff    inc     dword ptr [ebp-18Ch]
00404485 e8f8faffff      call    image00400000+0x3f82 (00403f82)
0040448a 89856cfeffff    mov     dword ptr [ebp-194h],eax
00404490 0fb6c0          movzx   eax,al
00404493 50              push    eax
00404494 e8594b0000      call    image00400000+0x8ff2 (00408ff2)
00404499 59              pop     ecx
0040449a 85c0            test    eax,eax
0040449c 758a            jne     image00400000+0x4428 (00404428)
0040449e 8b8504feffff    mov     eax,dword ptr [ebp-1FCh]
004044a4 8b80bc000000    mov     eax,dword ptr [eax+0BCh]
004044aa 8b00            mov     eax,dword ptr [eax]
004044ac 8a00            mov     al,byte ptr [eax]
004044ae 888558feffff    mov     byte ptr [ebp-1A8h],al
004044b4 3a856cfeffff    cmp     al,byte ptr [ebp-194h]
004044ba 0f85e5000000    jne     image00400000+0x45a5 (004045a5)
004044c0 8b8564feffff    mov     eax,dword ptr [ebp-19Ch]
004044c6 ff8d64feffff    dec     dword ptr [ebp-19Ch]
004044cc 85c0            test    eax,eax
004044ce 0f84d1000000    je      image00400000+0x45a5 (004045a5)
004044d4 8b955cfeffff    mov     edx,dword ptr [ebp-1A4h]
004044da ff8574feffff    inc     dword ptr [ebp-18Ch]
004044e0 e89dfaffff      call    image00400000+0x3f82 (00403f82)
004044e5 8b8d50feffff    mov     ecx,dword ptr [ebp-1B0h]
004044eb 89856cfeffff    mov     dword ptr [ebp-194h],eax
004044f1 8a8558feffff    mov     al,byte ptr [ebp-1A8h]
004044f7 88040b          mov     byte ptr [ebx+ecx],al
004044fa 8d8530feffff    lea     eax,[ebp-1D0h]
00404500 50              push    eax
00404501 8d857cfeffff    lea     eax,[ebp-184h]
00404507 50              push    eax
00404508 43              inc     ebx
00404509 53              push    ebx
0040450a 8dbd50feffff    lea     edi,[ebp-1B0h]
00404510 8db524feffff    lea     esi,[ebp-1DCh]
00404516 e8f0f9ffff      call    image00400000+0x3f0b (00403f0b)
0040451b 83c40c          add     esp,0Ch
0040451e 85c0            test    eax,eax
00404520 0f84300a0000    je      image00400000+0x4f56 (00404f56)
00404526 0fb6856cfeffff  movzx   eax,byte ptr [ebp-194h]
0040452d eb6b            jmp     image00400000+0x459a (0040459a)
0040452f 8b8564feffff    mov     eax,dword ptr [ebp-19Ch]
00404535 ff8d64feffff    dec     dword ptr [ebp-19Ch]
0040453b 85c0            test    eax,eax
0040453d 7466            je      image00400000+0x45a5 (004045a5)
0040453f 8b8550feffff    mov     eax,dword ptr [ebp-1B0h]
00404545 8a8d6cfeffff    mov     cl,byte ptr [ebp-194h]
0040454b ff8554feffff    inc     dword ptr [ebp-1ACh]
00404551 880c03          mov     byte ptr [ebx+eax],cl
00404554 8d8530feffff    lea     eax,[ebp-1D0h]
0040455a 50              push    eax
0040455b 8d857cfeffff    lea     eax,[ebp-184h]
00404561 50              push    eax
00404562 43              inc     ebx
00404563 53              push    ebx
00404564 8dbd50feffff    lea     edi,[ebp-1B0h]
0040456a 8db524feffff    lea     esi,[ebp-1DCh]
00404570 e896f9ffff      call    image00400000+0x3f0b (00403f0b)
00404575 83c40c          add     esp,0Ch
00404578 85c0            test    eax,eax
0040457a 0f84d6090000    je      image00400000+0x4f56 (00404f56)
00404580 8b955cfeffff    mov     edx,dword ptr [ebp-1A4h]
00404586 ff8574feffff    inc     dword ptr [ebp-18Ch]
0040458c e8f1f9ffff      call    image00400000+0x3f82 (00403f82)
00404591 89856cfeffff    mov     dword ptr [ebp-194h],eax
00404597 0fb6c0          movzx   eax,al
0040459a 50              push    eax
0040459b e8524a0000      call    image00400000+0x8ff2 (00408ff2)
004045a0 59              pop     ecx
004045a1 85c0            test    eax,eax
004045a3 758a            jne     image00400000+0x452f (0040452f)
004045a5 83bd54feffff00  cmp     dword ptr [ebp-1ACh],0
004045ac 0f845f010000    je      image00400000+0x4711 (00404711)
004045b2 83bd6cfeffff65  cmp     dword ptr [ebp-194h],65h
004045b9 740d            je      image00400000+0x45c8 (004045c8)
004045bb 83bd6cfeffff45  cmp     dword ptr [ebp-194h],45h
004045c2 0f8549010000    jne     image00400000+0x4711 (00404711)
004045c8 8b8564feffff    mov     eax,dword ptr [ebp-19Ch]
004045ce ff8d64feffff    dec     dword ptr [ebp-19Ch]
004045d4 85c0            test    eax,eax
004045d6 0f8435010000    je      image00400000+0x4711 (00404711)
004045dc 8b8550feffff    mov     eax,dword ptr [ebp-1B0h]
004045e2 c6040365        mov     byte ptr [ebx+eax],65h
004045e6 8d8530feffff    lea     eax,[ebp-1D0h]
004045ec 50              push    eax
004045ed 8d857cfeffff    lea     eax,[ebp-184h]
004045f3 50              push    eax
004045f4 43              inc     ebx
004045f5 53              push    ebx
004045f6 8dbd50feffff    lea     edi,[ebp-1B0h]
004045fc 8db524feffff    lea     esi,[ebp-1DCh]
00404602 e804f9ffff      call    image00400000+0x3f0b (00403f0b)
00404607 83c40c          add     esp,0Ch
0040460a 85c0            test    eax,eax
0040460c 0f8444090000    je      image00400000+0x4f56 (00404f56)
00404612 8b955cfeffff    mov     edx,dword ptr [ebp-1A4h]
00404618 ff8574feffff    inc     dword ptr [ebp-18Ch]
0040461e e85ff9ffff      call    image00400000+0x3f82 (00403f82)
00404623 89856cfeffff    mov     dword ptr [ebp-194h],eax
00404629 83f82d          cmp     eax,2Dh
0040462c 752c            jne     image00400000+0x465a (0040465a)
0040462e 8b8550feffff    mov     eax,dword ptr [ebp-1B0h]
00404634 c604032d        mov     byte ptr [ebx+eax],2Dh
00404638 8d8530feffff    lea     eax,[ebp-1D0h]
0040463e 50              push    eax
0040463f 8d857cfeffff    lea     eax,[ebp-184h]
00404645 50              push    eax
00404646 43              inc     ebx
00404647 53              push    ebx
00404648 e8bef8ffff      call    image00400000+0x3f0b (00403f0b)
0040464d 83c40c          add     esp,0Ch
00404650 85c0            test    eax,eax
00404652 0f84fe080000    je      image00400000+0x4f56 (00404f56)
00404658 eb09            jmp     image00400000+0x4663 (00404663)
0040465a 83bd6cfeffff2b  cmp     dword ptr [ebp-194h],2Bh
00404661 752f            jne     image00400000+0x4692 (00404692)
00404663 8b8564feffff    mov     eax,dword ptr [ebp-19Ch]
00404669 ff8d64feffff    dec     dword ptr [ebp-19Ch]
0040466f 85c0            test    eax,eax
00404671 7508            jne     image00400000+0x467b (0040467b)
00404673 218564feffff    and     dword ptr [ebp-19Ch],eax
00404679 eb17            jmp     image00400000+0x4692 (00404692)
0040467b 8b955cfeffff    mov     edx,dword ptr [ebp-1A4h]
00404681 ff8574feffff    inc     dword ptr [ebp-18Ch]
00404687 e8f6f8ffff      call    image00400000+0x3f82 (00403f82)
0040468c 89856cfeffff    mov     dword ptr [ebp-194h],eax
00404692 0fb6856cfeffff  movzx   eax,byte ptr [ebp-194h]
00404699 eb6b            jmp     image00400000+0x4706 (00404706)
0040469b 8b8564feffff    mov     eax,dword ptr [ebp-19Ch]
004046a1 ff8d64feffff    dec     dword ptr [ebp-19Ch]
004046a7 85c0            test    eax,eax
004046a9 7466            je      image00400000+0x4711 (00404711)
004046ab 8b8550feffff    mov     eax,dword ptr [ebp-1B0h]
004046b1 8a8d6cfeffff    mov     cl,byte ptr [ebp-194h]
004046b7 ff8554feffff    inc     dword ptr [ebp-1ACh]
004046bd 880c03          mov     byte ptr [ebx+eax],cl
004046c0 8d8530feffff    lea     eax,[ebp-1D0h]
004046c6 50              push    eax
004046c7 8d857cfeffff    lea     eax,[ebp-184h]
004046cd 50              push    eax
004046ce 43              inc     ebx
004046cf 53              push    ebx
004046d0 8dbd50feffff    lea     edi,[ebp-1B0h]
004046d6 8db524feffff    lea     esi,[ebp-1DCh]
004046dc e82af8ffff      call    image00400000+0x3f0b (00403f0b)
004046e1 83c40c          add     esp,0Ch
004046e4 85c0            test    eax,eax
004046e6 0f846a080000    je      image00400000+0x4f56 (00404f56)
004046ec 8b955cfeffff    mov     edx,dword ptr [ebp-1A4h]
004046f2 ff8574feffff    inc     dword ptr [ebp-18Ch]
004046f8 e885f8ffff      call    image00400000+0x3f82 (00403f82)
004046fd 89856cfeffff    mov     dword ptr [ebp-194h],eax
00404703 0fb6c0          movzx   eax,al
00404706 50              push    eax
00404707 e8e6480000      call    image00400000+0x8ff2 (00408ff2)
0040470c 59              pop     ecx
0040470d 85c0            test    eax,eax
0040470f 758a            jne     image00400000+0x469b (0040469b)
00404711 ff8d74feffff    dec     dword ptr [ebp-18Ch]
00404717 83bd6cfeffffff  cmp     dword ptr [ebp-194h],0FFFFFFFFh
0040471e 7413            je      image00400000+0x4733 (00404733)
00404720 ffb55cfeffff    push    dword ptr [ebp-1A4h]
00404726 ffb56cfeffff    push    dword ptr [ebp-194h]
0040472c e8164b0000      call    image00400000+0x9247 (00409247)
00404731 59              pop     ecx
00404732 59              pop     ecx
00404733 83bd54feffff00  cmp     dword ptr [ebp-1ACh],0
0040473a 0f8416080000    je      image00400000+0x4f56 (00404f56)
00404740 80bd63feffff00  cmp     byte ptr [ebp-19Dh],0
00404747 0f8534070000    jne     image00400000+0x4e81 (00404e81)
0040474d 8b8550feffff    mov     eax,dword ptr [ebp-1B0h]
00404753 ff8534feffff    inc     dword ptr [ebp-1CCh]
00404759 8d8d04feffff    lea     ecx,[ebp-1FCh]
0040475f 51              push    ecx
00404760 50              push    eax
00404761 ffb540feffff    push    dword ptr [ebp-1C0h]
00404767 c6040300        mov     byte ptr [ebx+eax],0
0040476b 0fbe857bfeffff  movsx   eax,byte ptr [ebp-185h]
00404772 48              dec     eax
00404773 50              push    eax
00404774 ff35fc0b4100    push    dword ptr [image00400000+0x10bfc (00410bfc)]
0040477a ff15b4d04000    call    dword ptr [image00400000+0xd0b4 (0040d0b4)]
00404780 ffd0            call    eax
00404782 83c410          add     esp,10h
00404785 e9f7060000      jmp     image00400000+0x4e81 (00404e81)
0040478a 85c9            test    ecx,ecx
0040478c 7510            jne     image00400000+0x479e (0040479e)
0040478e ff8564feffff    inc     dword ptr [ebp-19Ch]
00404794 c78548feffff01000000 mov dword ptr [ebp-1B8h],1
0040479e 80bd6bfeffff00  cmp     byte ptr [ebp-195h],0
004047a5 7e07            jle     image00400000+0x47ae (004047ae)
004047a7 c6855afeffff01  mov     byte ptr [ebp-1A6h],1
004047ae ff8d74feffff    dec     dword ptr [ebp-18Ch]
004047b4 83bd6cfeffffff  cmp     dword ptr [ebp-194h],0FFFFFFFFh
004047bb 8bfe            mov     edi,esi
004047bd 7413            je      image00400000+0x47d2 (004047d2)
004047bf ffb55cfeffff    push    dword ptr [ebp-1A4h]
004047c5 ffb56cfeffff    push    dword ptr [ebp-194h]
004047cb e8774a0000      call    image00400000+0x9247 (00409247)
004047d0 59              pop     ecx
004047d1 59              pop     ecx
004047d2 83bd48feffff00  cmp     dword ptr [ebp-1B8h],0
004047d9 7414            je      image00400000+0x47ef (004047ef)
004047db 8b8564feffff    mov     eax,dword ptr [ebp-19Ch]
004047e1 ff8d64feffff    dec     dword ptr [ebp-19Ch]
004047e7 85c0            test    eax,eax
004047e9 0f848a030000    je      image00400000+0x4b79 (00404b79)
004047ef 8b955cfeffff    mov     edx,dword ptr [ebp-1A4h]
004047f5 ff8574feffff    inc     dword ptr [ebp-18Ch]
004047fb e882f7ffff      call    image00400000+0x3f82 (00403f82)
00404800 89856cfeffff    mov     dword ptr [ebp-194h],eax
00404806 83f8ff          cmp     eax,0FFFFFFFFh
00404809 0f8451030000    je      image00400000+0x4b60 (00404b60)
0040480f 83fb63          cmp     ebx,63h
00404812 744c            je      image00400000+0x4860 (00404860)
00404814 83fb73          cmp     ebx,73h
00404817 7513            jne     image00400000+0x482c (0040482c)
00404819 83f809          cmp     eax,9
0040481c 7c09            jl      image00400000+0x4827 (00404827)
0040481e 83f80d          cmp     eax,0Dh
00404821 0f8e39030000    jle     image00400000+0x4b60 (00404b60)
00404827 83f820          cmp     eax,20h
0040482a 7534            jne     image00400000+0x4860 (00404860)
0040482c 83fb7b          cmp     ebx,7Bh
0040482f 0f852b030000    jne     image00400000+0x4b60 (00404b60)
00404835 0fbe9d58feffff  movsx   ebx,byte ptr [ebp-1A8h]
0040483c 33d2            xor     edx,edx
0040483e 8bc8            mov     ecx,eax
00404840 83e107          and     ecx,7
00404843 42              inc     edx
00404844 d3e2            shl     edx,cl
00404846 8bc8            mov     ecx,eax
00404848 c1f903          sar     ecx,3
0040484b 0fbe4c0ddc      movsx   ecx,byte ptr [ebp+ecx-24h]
00404850 33cb            xor     ecx,ebx
00404852 8b9d4cfeffff    mov     ebx,dword ptr [ebp-1B4h]
00404858 85d1            test    ecx,edx
0040485a 0f8400030000    je      image00400000+0x4b60 (00404b60)
00404860 80bd63feffff00  cmp     byte ptr [ebp-19Dh],0
00404867 0f85ed020000    jne     image00400000+0x4b5a (00404b5a)
0040486d 80bd5afeffff00  cmp     byte ptr [ebp-1A6h],0
00404874 0f84d2020000    je      image00400000+0x4b4c (00404b4c)
0040487a 888520feffff    mov     byte ptr [ebp-1E0h],al
00404880 0fb6c0          movzx   eax,al
00404883 50              push    eax
00404884 e877420000      call    image00400000+0x8b00 (00408b00)
00404889 59              pop     ecx
0040488a 85c0            test    eax,eax
0040488c 7417            je      image00400000+0x48a5 (004048a5)
0040488e 8b955cfeffff    mov     edx,dword ptr [ebp-1A4h]
00404894 ff8574feffff    inc     dword ptr [ebp-18Ch]
0040489a e8e3f6ffff      call    image00400000+0x3f82 (00403f82)
0040489f 888521feffff    mov     byte ptr [ebp-1DFh],al
004048a5 8d8504feffff    lea     eax,[ebp-1FCh]
004048ab 50              push    eax
004048ac 8b8504feffff    mov     eax,dword ptr [ebp-1FCh]
004048b2 c78514feffff3f000000 mov dword ptr [ebp-1ECh],3Fh
004048bc ffb0ac000000    push    dword ptr [eax+0ACh]
004048c2 8d8520feffff    lea     eax,[ebp-1E0h]
004048c8 50              push    eax
004048c9 8d8514feffff    lea     eax,[ebp-1ECh]
004048cf 50              push    eax
004048d0 e8554a0000      call    image00400000+0x932a (0040932a)
004048d5 668b8514feffff  mov     ax,word ptr [ebp-1ECh]
004048dc 83c410          add     esp,10h
004048df 668906          mov     word ptr [esi],ax
004048e2 83c602          add     esi,2
004048e5 e965020000      jmp     image00400000+0x4b4f (00404b4f)
004048ea 8bc3            mov     eax,ebx
004048ec 83e870          sub     eax,70h
004048ef 0f84cf020000    je      image00400000+0x4bc4 (00404bc4)
004048f5 83e803          sub     eax,3
004048f8 0f84a0feffff    je      image00400000+0x479e (0040479e)
004048fe 48              dec     eax
004048ff 48              dec     eax
00404900 0f84c5020000    je      image00400000+0x4bcb (00404bcb)
00404906 83e803          sub     eax,3
00404909 0f84a8faffff    je      image00400000+0x43b7 (004043b7)
0040490f 83e803          sub     eax,3
00404912 7433            je      image00400000+0x4947 (00404947)
00404914 0fb607          movzx   eax,byte ptr [edi]
00404917 3b856cfeffff    cmp     eax,dword ptr [ebp-194h]
0040491d 0f85ff050000    jne     image00400000+0x4f22 (00404f22)
00404923 fe8d5bfeffff    dec     byte ptr [ebp-1A5h]
00404929 80bd63feffff00  cmp     byte ptr [ebp-19Dh],0
00404930 0f854b050000    jne     image00400000+0x4e81 (00404e81)
00404936 8b8500feffff    mov     eax,dword ptr [ebp-200h]
0040493c 898518feffff    mov     dword ptr [ebp-1E8h],eax
00404942 e93a050000      jmp     image00400000+0x4e81 (00404e81)
00404947 80bd6bfeffff00  cmp     byte ptr [ebp-195h],0
0040494e 7e07            jle     image00400000+0x4957 (00404957)
00404950 c6855afeffff01  mov     byte ptr [ebp-1A6h],1
00404957 807f015e        cmp     byte ptr [edi+1],5Eh
0040495b 8d7701          lea     esi,[edi+1]
0040495e 750a            jne     image00400000+0x496a (0040496a)
00404960 8d7702          lea     esi,[edi+2]
00404963 c68558feffffff  mov     byte ptr [ebp-1A8h],0FFh
0040496a 6a20            push    20h
0040496c 8d45dc          lea     eax,[ebp-24h]
0040496f 6a00            push    0
00404971 50              push    eax
00404972 e849420000      call    image00400000+0x8bc0 (00408bc0)
00404977 83c40c          add     esp,0Ch
0040497a 803e5d          cmp     byte ptr [esi],5Dh
0040497d 750c            jne     image00400000+0x498b (0040498b)
0040497f b25d            mov     dl,5Dh
00404981 46              inc     esi
00404982 c645e720        mov     byte ptr [ebp-19h],20h
00404986 e99e000000      jmp     image00400000+0x4a29 (00404a29)
0040498b 8a952ffeffff    mov     dl,byte ptr [ebp-1D1h]
00404991 e993000000      jmp     image00400000+0x4a29 (00404a29)
00404996 46              inc     esi
00404997 3c2d            cmp     al,2Dh
00404999 7571            jne     image00400000+0x4a0c (00404a0c)
0040499b 84d2            test    dl,dl
0040499d 746d            je      image00400000+0x4a0c (00404a0c)
0040499f 8a0e            mov     cl,byte ptr [esi]
004049a1 80f95d          cmp     cl,5Dh
004049a4 7466            je      image00400000+0x4a0c (00404a0c)
004049a6 46              inc     esi
004049a7 3ad1            cmp     dl,cl
004049a9 7308            jae     image00400000+0x49b3 (004049b3)
004049ab 888d7bfeffff    mov     byte ptr [ebp-185h],cl
004049b1 eb08            jmp     image00400000+0x49bb (004049bb)
004049b3 88957bfeffff    mov     byte ptr [ebp-185h],dl
004049b9 8ad1            mov     dl,cl
004049bb 3a957bfeffff    cmp     dl,byte ptr [ebp-185h]
004049c1 732c            jae     image00400000+0x49ef (004049ef)
004049c3 8a857bfeffff    mov     al,byte ptr [ebp-185h]
004049c9 2ac2            sub     al,dl
004049cb 0fb6fa          movzx   edi,dl
004049ce 0fb6d0          movzx   edx,al
004049d1 8bcf            mov     ecx,edi
004049d3 83e107          and     ecx,7
004049d6 8bc7            mov     eax,edi
004049d8 b301            mov     bl,1
004049da d2e3            shl     bl,cl
004049dc c1e803          shr     eax,3
004049df 8d4405dc        lea     eax,[ebp+eax-24h]
004049e3 0818            or      byte ptr [eax],bl
004049e5 47              inc     edi
004049e6 4a              dec     edx
004049e7 75e8            jne     image00400000+0x49d1 (004049d1)
004049e9 8b9d4cfeffff    mov     ebx,dword ptr [ebp-1B4h]
004049ef 0fb68d7bfeffff  movzx   ecx,byte ptr [ebp-185h]
004049f6 8bc1            mov     eax,ecx
004049f8 83e107          and     ecx,7
004049fb b201            mov     dl,1
004049fd d2e2            shl     dl,cl
004049ff c1e803          shr     eax,3
00404a02 8d4405dc        lea     eax,[ebp+eax-24h]
00404a06 0810            or      byte ptr [eax],dl
00404a08 32d2            xor     dl,dl
00404a0a eb1d            jmp     image00400000+0x4a29 (00404a29)
00404a0c 0fb6c8          movzx   ecx,al
00404a0f 8ad0            mov     dl,al
00404a11 8bc1            mov     eax,ecx
00404a13 83e107          and     ecx,7
00404a16 b301            mov     bl,1
00404a18 d2e3            shl     bl,cl
00404a1a c1e803          shr     eax,3
00404a1d 8d4405dc        lea     eax,[ebp+eax-24h]
00404a21 0818            or      byte ptr [eax],bl
00404a23 8b9d4cfeffff    mov     ebx,dword ptr [ebp-1B4h]
00404a29 8a06            mov     al,byte ptr [esi]
00404a2b 3c5d            cmp     al,5Dh
00404a2d 0f8563ffffff    jne     image00400000+0x4996 (00404996)
00404a33 84c0            test    al,al
00404a35 0f841b050000    je      image00400000+0x4f56 (00404f56)
00404a3b 89b544feffff    mov     dword ptr [ebp-1BCh],esi
00404a41 8bb540feffff    mov     esi,dword ptr [ebp-1C0h]
00404a47 e962fdffff      jmp     image00400000+0x47ae (004047ae)
00404a4c 83fb2b          cmp     ebx,2Bh
00404a4f 752e            jne     image00400000+0x4a7f (00404a7f)
00404a51 ff8d64feffff    dec     dword ptr [ebp-19Ch]
00404a57 750d            jne     image00400000+0x4a66 (00404a66)
00404a59 85c9            test    ecx,ecx
00404a5b 7409            je      image00400000+0x4a66 (00404a66)
00404a5d c68573feffff01  mov     byte ptr [ebp-18Dh],1
00404a64 eb19            jmp     image00400000+0x4a7f (00404a7f)
00404a66 8b955cfeffff    mov     edx,dword ptr [ebp-1A4h]
00404a6c ff8574feffff    inc     dword ptr [ebp-18Ch]
00404a72 e80bf5ffff      call    image00400000+0x3f82 (00403f82)
00404a77 8bd8            mov     ebx,eax
00404a79 899d6cfeffff    mov     dword ptr [ebp-194h],ebx
00404a7f 83fb30          cmp     ebx,30h
00404a82 0f858a010000    jne     image00400000+0x4c12 (00404c12)
00404a88 8b955cfeffff    mov     edx,dword ptr [ebp-1A4h]
00404a8e ff8574feffff    inc     dword ptr [ebp-18Ch]
00404a94 e8e9f4ffff      call    image00400000+0x3f82 (00403f82)
00404a99 8bd8            mov     ebx,eax
00404a9b 899d6cfeffff    mov     dword ptr [ebp-194h],ebx
00404aa1 80fb78          cmp     bl,78h
00404aa4 745f            je      image00400000+0x4b05 (00404b05)
00404aa6 80fb58          cmp     bl,58h
00404aa9 745a            je      image00400000+0x4b05 (00404b05)
00404aab 83bd4cfeffff78  cmp     dword ptr [ebp-1B4h],78h
00404ab2 c78554feffff01000000 mov dword ptr [ebp-1ACh],1
00404abc 7426            je      image00400000+0x4ae4 (00404ae4)
00404abe 83bd48feffff00  cmp     dword ptr [ebp-1B8h],0
00404ac5 740e            je      image00400000+0x4ad5 (00404ad5)
00404ac7 ff8d64feffff    dec     dword ptr [ebp-19Ch]
00404acd 7506            jne     image00400000+0x4ad5 (00404ad5)
00404acf fe8573feffff    inc     byte ptr [ebp-18Dh]
00404ad5 c7854cfeffff6f000000 mov dword ptr [ebp-1B4h],6Fh
00404adf e92e010000      jmp     image00400000+0x4c12 (00404c12)
00404ae4 ff8d74feffff    dec     dword ptr [ebp-18Ch]
00404aea 83fbff          cmp     ebx,0FFFFFFFFh
00404aed 740e            je      image00400000+0x4afd (00404afd)
00404aef ffb55cfeffff    push    dword ptr [ebp-1A4h]
00404af5 53              push    ebx
00404af6 e84c470000      call    image00400000+0x9247 (00409247)
00404afb 59              pop     ecx
00404afc 59              pop     ecx
00404afd 6a30            push    30h
00404aff 5b              pop     ebx
00404b00 e907010000      jmp     image00400000+0x4c0c (00404c0c)
00404b05 8b955cfeffff    mov     edx,dword ptr [ebp-1A4h]
00404b0b ff8574feffff    inc     dword ptr [ebp-18Ch]
00404b11 e86cf4ffff      call    image00400000+0x3f82 (00403f82)
00404b16 83bd48feffff00  cmp     dword ptr [ebp-1B8h],0
00404b1d 8bd8            mov     ebx,eax
00404b1f 899d6cfeffff    mov     dword ptr [ebp-194h],ebx
00404b25 7416            je      image00400000+0x4b3d (00404b3d)
00404b27 83ad64feffff02  sub     dword ptr [ebp-19Ch],2
00404b2e 83bd64feffff01  cmp     dword ptr [ebp-19Ch],1
00404b35 7d06            jge     image00400000+0x4b3d (00404b3d)
00404b37 fe8573feffff    inc     byte ptr [ebp-18Dh]
00404b3d c7854cfeffff78000000 mov dword ptr [ebp-1B4h],78h
00404b47 e9c6000000      jmp     image00400000+0x4c12 (00404c12)
00404b4c 8806            mov     byte ptr [esi],al
00404b4e 46              inc     esi
00404b4f 89b540feffff    mov     dword ptr [ebp-1C0h],esi
00404b55 e978fcffff      jmp     image00400000+0x47d2 (004047d2)
00404b5a 47              inc     edi
00404b5b e972fcffff      jmp     image00400000+0x47d2 (004047d2)
00404b60 ff8d74feffff    dec     dword ptr [ebp-18Ch]
00404b66 83f8ff          cmp     eax,0FFFFFFFFh
00404b69 740e            je      image00400000+0x4b79 (00404b79)
00404b6b ffb55cfeffff    push    dword ptr [ebp-1A4h]
00404b71 50              push    eax
00404b72 e8d0460000      call    image00400000+0x9247 (00409247)
00404b77 59              pop     ecx
00404b78 59              pop     ecx
00404b79 3bfe            cmp     edi,esi
00404b7b 0f84d5030000    je      image00400000+0x4f56 (00404f56)
00404b81 80bd63feffff00  cmp     byte ptr [ebp-19Dh],0
00404b88 0f85f3020000    jne     image00400000+0x4e81 (00404e81)
00404b8e ff8534feffff    inc     dword ptr [ebp-1CCh]
00404b94 83fb63          cmp     ebx,63h
00404b97 0f84e4020000    je      image00400000+0x4e81 (00404e81)
00404b9d 80bd5afeffff00  cmp     byte ptr [ebp-1A6h],0
00404ba4 7410            je      image00400000+0x4bb6 (00404bb6)
00404ba6 8b8d40feffff    mov     ecx,dword ptr [ebp-1C0h]
00404bac 33c0            xor     eax,eax
00404bae 668901          mov     word ptr [ecx],ax
00404bb1 e9cb020000      jmp     image00400000+0x4e81 (00404e81)
00404bb6 8b8540feffff    mov     eax,dword ptr [ebp-1C0h]
00404bbc c60000          mov     byte ptr [eax],0
00404bbf e9bd020000      jmp     image00400000+0x4e81 (00404e81)
00404bc4 c6857bfeffff01  mov     byte ptr [ebp-185h],1
00404bcb 8b9d6cfeffff    mov     ebx,dword ptr [ebp-194h]
00404bd1 83fb2d          cmp     ebx,2Dh
00404bd4 7509            jne     image00400000+0x4bdf (00404bdf)
00404bd6 c68559feffff01  mov     byte ptr [ebp-1A7h],1
00404bdd eb05            jmp     image00400000+0x4be4 (00404be4)
00404bdf 83fb2b          cmp     ebx,2Bh
00404be2 752e            jne     image00400000+0x4c12 (00404c12)
00404be4 ff8d64feffff    dec     dword ptr [ebp-19Ch]
00404bea 750d            jne     image00400000+0x4bf9 (00404bf9)
00404bec 85c9            test    ecx,ecx
00404bee 7409            je      image00400000+0x4bf9 (00404bf9)
00404bf0 c68573feffff01  mov     byte ptr [ebp-18Dh],1
00404bf7 eb19            jmp     image00400000+0x4c12 (00404c12)
00404bf9 8b955cfeffff    mov     edx,dword ptr [ebp-1A4h]
00404bff ff8574feffff    inc     dword ptr [ebp-18Ch]
00404c05 e878f3ffff      call    image00400000+0x3f82 (00403f82)
00404c0a 8bd8            mov     ebx,eax
00404c0c 899d6cfeffff    mov     dword ptr [ebp-194h],ebx
00404c12 83bd28feffff00  cmp     dword ptr [ebp-1D8h],0
00404c19 0f843c010000    je      image00400000+0x4d5b (00404d5b)
00404c1f 80bd73feffff00  cmp     byte ptr [ebp-18Dh],0
00404c26 0f85f8000000    jne     image00400000+0x4d24 (00404d24)
00404c2c 83bd4cfeffff78  cmp     dword ptr [ebp-1B4h],78h
00404c33 745d            je      image00400000+0x4c92 (00404c92)
00404c35 83bd4cfeffff70  cmp     dword ptr [ebp-1B4h],70h
00404c3c 7454            je      image00400000+0x4c92 (00404c92)
00404c3e 0fb6c3          movzx   eax,bl
00404c41 50              push    eax
00404c42 e8ab430000      call    image00400000+0x8ff2 (00408ff2)
00404c47 59              pop     ecx
00404c48 85c0            test    eax,eax
00404c4a 0f84bb000000    je      image00400000+0x4d0b (00404d0b)
00404c50 83bd4cfeffff6f  cmp     dword ptr [ebp-1B4h],6Fh
00404c57 751e            jne     image00400000+0x4c77 (00404c77)
00404c59 83fb38          cmp     ebx,38h
00404c5c 0f8da9000000    jge     image00400000+0x4d0b (00404d0b)
00404c62 8bb538feffff    mov     esi,dword ptr [ebp-1C8h]
00404c68 8bbd3cfeffff    mov     edi,dword ptr [ebp-1C4h]
00404c6e 0fa4f703        shld    edi,esi,3
00404c72 c1e603          shl     esi,3
00404c75 eb4b            jmp     image00400000+0x4cc2 (00404cc2)
00404c77 6a00            push    0
00404c79 6a0a            push    0Ah
00404c7b ffb53cfeffff    push    dword ptr [ebp-1C4h]
00404c81 ffb538feffff    push    dword ptr [ebp-1C8h]
00404c87 e8d4470000      call    image00400000+0x9460 (00409460)
00404c8c 8bf0            mov     esi,eax
00404c8e 8bfa            mov     edi,edx
00404c90 eb30            jmp     image00400000+0x4cc2 (00404cc2)
00404c92 0fb6c3          movzx   eax,bl
00404c95 50              push    eax
00404c96 e8db430000      call    image00400000+0x9076 (00409076)
00404c9b 59              pop     ecx
00404c9c 85c0            test    eax,eax
00404c9e 746b            je      image00400000+0x4d0b (00404d0b)
00404ca0 8bb538feffff    mov     esi,dword ptr [ebp-1C8h]
00404ca6 8bbd3cfeffff    mov     edi,dword ptr [ebp-1C4h]
00404cac 0fa4f704        shld    edi,esi,4
00404cb0 53              push    ebx
00404cb1 c1e604          shl     esi,4
00404cb4 e8a9f2ffff      call    image00400000+0x3f62 (00403f62)
00404cb9 8bd8            mov     ebx,eax
00404cbb 59              pop     ecx
00404cbc 899d6cfeffff    mov     dword ptr [ebp-194h],ebx
00404cc2 ff8554feffff    inc     dword ptr [ebp-1ACh]
00404cc8 8d43d0          lea     eax,[ebx-30h]
00404ccb 99              cdq
00404ccc 03f0            add     esi,eax
00404cce 13fa            adc     edi,edx
00404cd0 83bd48feffff00  cmp     dword ptr [ebp-1B8h],0
00404cd7 89b538feffff    mov     dword ptr [ebp-1C8h],esi
00404cdd 89bd3cfeffff    mov     dword ptr [ebp-1C4h],edi
00404ce3 7408            je      image00400000+0x4ced (00404ced)
00404ce5 ff8d64feffff    dec     dword ptr [ebp-19Ch]
00404ceb 7437            je      image00400000+0x4d24 (00404d24)
00404ced 8b955cfeffff    mov     edx,dword ptr [ebp-1A4h]
00404cf3 ff8574feffff    inc     dword ptr [ebp-18Ch]
00404cf9 e884f2ffff      call    image00400000+0x3f82 (00403f82)
00404cfe 8bd8            mov     ebx,eax
00404d00 899d6cfeffff    mov     dword ptr [ebp-194h],ebx
00404d06 e921ffffff      jmp     image00400000+0x4c2c (00404c2c)
00404d0b ff8d74feffff    dec     dword ptr [ebp-18Ch]
00404d11 83fbff          cmp     ebx,0FFFFFFFFh
00404d14 740e            je      image00400000+0x4d24 (00404d24)
00404d16 ffb55cfeffff    push    dword ptr [ebp-1A4h]
00404d1c 53              push    ebx
00404d1d e825450000      call    image00400000+0x9247 (00409247)
00404d22 59              pop     ecx
00404d23 59              pop     ecx
00404d24 80bd59feffff00  cmp     byte ptr [ebp-1A7h],0
00404d2b 8bbd1cfeffff    mov     edi,dword ptr [ebp-1E4h]
00404d31 0f84ec000000    je      image00400000+0x4e23 (00404e23)
00404d37 8b8538feffff    mov     eax,dword ptr [ebp-1C8h]
00404d3d 8b8d3cfeffff    mov     ecx,dword ptr [ebp-1C4h]
00404d43 f7d8            neg     eax
00404d45 83d100          adc     ecx,0
00404d48 f7d9            neg     ecx
00404d4a 898538feffff    mov     dword ptr [ebp-1C8h],eax
00404d50 898d3cfeffff    mov     dword ptr [ebp-1C4h],ecx
00404d56 e9c8000000      jmp     image00400000+0x4e23 (00404e23)
00404d5b 80bd73feffff00  cmp     byte ptr [ebp-18Dh],0
00404d62 8bbd1cfeffff    mov     edi,dword ptr [ebp-1E4h]
00404d68 0f85aa000000    jne     image00400000+0x4e18 (00404e18)
00404d6e 83bd4cfeffff78  cmp     dword ptr [ebp-1B4h],78h
00404d75 742f            je      image00400000+0x4da6 (00404da6)
00404d77 83bd4cfeffff70  cmp     dword ptr [ebp-1B4h],70h
00404d7e 7426            je      image00400000+0x4da6 (00404da6)
00404d80 0fb6c3          movzx   eax,bl
00404d83 50              push    eax
00404d84 e869420000      call    image00400000+0x8ff2 (00408ff2)
00404d89 59              pop     ecx
00404d8a 85c0            test    eax,eax
00404d8c 7471            je      image00400000+0x4dff (00404dff)
00404d8e 83bd4cfeffff6f  cmp     dword ptr [ebp-1B4h],6Fh
00404d95 750a            jne     image00400000+0x4da1 (00404da1)
00404d97 83fb38          cmp     ebx,38h
00404d9a 7d63            jge     image00400000+0x4dff (00404dff)
00404d9c c1e703          shl     edi,3
00404d9f eb25            jmp     image00400000+0x4dc6 (00404dc6)
00404da1 6bff0a          imul    edi,edi,0Ah
00404da4 eb20            jmp     image00400000+0x4dc6 (00404dc6)
00404da6 0fb6c3          movzx   eax,bl
00404da9 50              push    eax
00404daa e8c7420000      call    image00400000+0x9076 (00409076)
00404daf 59              pop     ecx
00404db0 85c0            test    eax,eax
00404db2 744b            je      image00400000+0x4dff (00404dff)
00404db4 53              push    ebx
00404db5 c1e704          shl     edi,4
00404db8 e8a5f1ffff      call    image00400000+0x3f62 (00403f62)
00404dbd 8bd8            mov     ebx,eax
00404dbf 59              pop     ecx
00404dc0 899d6cfeffff    mov     dword ptr [ebp-194h],ebx
00404dc6 ff8554feffff    inc     dword ptr [ebp-1ACh]
00404dcc 83bd48feffff00  cmp     dword ptr [ebp-1B8h],0
00404dd3 8d7c1fd0        lea     edi,[edi+ebx-30h]
00404dd7 7408            je      image00400000+0x4de1 (00404de1)
00404dd9 ff8d64feffff    dec     dword ptr [ebp-19Ch]
00404ddf 7437            je      image00400000+0x4e18 (00404e18)
00404de1 8b955cfeffff    mov     edx,dword ptr [ebp-1A4h]
00404de7 ff8574feffff    inc     dword ptr [ebp-18Ch]
00404ded e890f1ffff      call    image00400000+0x3f82 (00403f82)
00404df2 8bd8            mov     ebx,eax
00404df4 899d6cfeffff    mov     dword ptr [ebp-194h],ebx
00404dfa e96fffffff      jmp     image00400000+0x4d6e (00404d6e)
00404dff ff8d74feffff    dec     dword ptr [ebp-18Ch]
00404e05 83fbff          cmp     ebx,0FFFFFFFFh
00404e08 740e            je      image00400000+0x4e18 (00404e18)
00404e0a ffb55cfeffff    push    dword ptr [ebp-1A4h]
00404e10 53              push    ebx
00404e11 e831440000      call    image00400000+0x9247 (00409247)
00404e16 59              pop     ecx
00404e17 59              pop     ecx
00404e18 80bd59feffff00  cmp     byte ptr [ebp-1A7h],0
00404e1f 7402            je      image00400000+0x4e23 (00404e23)
00404e21 f7df            neg     edi
00404e23 83bd4cfeffff46  cmp     dword ptr [ebp-1B4h],46h
00404e2a 7507            jne     image00400000+0x4e33 (00404e33)
00404e2c 83a554feffff00  and     dword ptr [ebp-1ACh],0
00404e33 83bd54feffff00  cmp     dword ptr [ebp-1ACh],0
00404e3a 0f8416010000    je      image00400000+0x4f56 (00404f56)
00404e40 80bd63feffff00  cmp     byte ptr [ebp-19Dh],0
00404e47 7538            jne     image00400000+0x4e81 (00404e81)
00404e49 ff8534feffff    inc     dword ptr [ebp-1CCh]
00404e4f 8bb540feffff    mov     esi,dword ptr [ebp-1C0h]
00404e55 83bd28feffff00  cmp     dword ptr [ebp-1D8h],0
00404e5c 7413            je      image00400000+0x4e71 (00404e71)
00404e5e 8b8538feffff    mov     eax,dword ptr [ebp-1C8h]
00404e64 8906            mov     dword ptr [esi],eax
00404e66 8b853cfeffff    mov     eax,dword ptr [ebp-1C4h]
00404e6c 894604          mov     dword ptr [esi+4],eax
00404e6f eb10            jmp     image00400000+0x4e81 (00404e81)
00404e71 80bd7bfeffff00  cmp     byte ptr [ebp-185h],0
00404e78 7404            je      image00400000+0x4e7e (00404e7e)
00404e7a 893e            mov     dword ptr [esi],edi
00404e7c eb03            jmp     image00400000+0x4e81 (00404e81)
00404e7e 66893e          mov     word ptr [esi],di
00404e81 8bbd44feffff    mov     edi,dword ptr [ebp-1BCh]
00404e87 fe855bfeffff    inc     byte ptr [ebp-1A5h]
00404e8d 47              inc     edi
00404e8e 89bd44feffff    mov     dword ptr [ebp-1BCh],edi
00404e94 eb64            jmp     image00400000+0x4efa (00404efa)
00404e96 3c25            cmp     al,25h
00404e98 7506            jne     image00400000+0x4ea0 (00404ea0)
00404e9a 384701          cmp     byte ptr [edi+1],al
00404e9d 7501            jne     image00400000+0x4ea0 (00404ea0)
00404e9f 47              inc     edi
00404ea0 8b955cfeffff    mov     edx,dword ptr [ebp-1A4h]
00404ea6 ff8574feffff    inc     dword ptr [ebp-18Ch]
00404eac e8d1f0ffff      call    image00400000+0x3f82 (00403f82)
00404eb1 8bd8            mov     ebx,eax
00404eb3 0fb607          movzx   eax,byte ptr [edi]
00404eb6 47              inc     edi
00404eb7 899d6cfeffff    mov     dword ptr [ebp-194h],ebx
00404ebd 89bd44feffff    mov     dword ptr [ebp-1BCh],edi
00404ec3 3bc3            cmp     eax,ebx
00404ec5 7577            jne     image00400000+0x4f3e (00404f3e)
00404ec7 0fb6c3          movzx   eax,bl
00404eca 50              push    eax
00404ecb e8303c0000      call    image00400000+0x8b00 (00408b00)
00404ed0 59              pop     ecx
00404ed1 85c0            test    eax,eax
00404ed3 7425            je      image00400000+0x4efa (00404efa)
00404ed5 8b955cfeffff    mov     edx,dword ptr [ebp-1A4h]
00404edb ff8574feffff    inc     dword ptr [ebp-18Ch]
00404ee1 e89cf0ffff      call    image00400000+0x3f82 (00403f82)
00404ee6 0fb60f          movzx   ecx,byte ptr [edi]
00404ee9 47              inc     edi
00404eea 89bd44feffff    mov     dword ptr [ebp-1BCh],edi
00404ef0 3bc8            cmp     ecx,eax
00404ef2 7537            jne     image00400000+0x4f2b (00404f2b)
00404ef4 ff8d74feffff    dec     dword ptr [ebp-18Ch]
00404efa 83bd6cfeffffff  cmp     dword ptr [ebp-194h],0FFFFFFFFh
00404f01 7513            jne     image00400000+0x4f16 (00404f16)
00404f03 803f25          cmp     byte ptr [edi],25h
00404f06 754e            jne     image00400000+0x4f56 (00404f56)
00404f08 8b8544feffff    mov     eax,dword ptr [ebp-1BCh]
00404f0e 8078016e        cmp     byte ptr [eax+1],6Eh
00404f12 7542            jne     image00400000+0x4f56 (00404f56)
00404f14 8bf8            mov     edi,eax
00404f16 8a07            mov     al,byte ptr [edi]
00404f18 84c0            test    al,al
00404f1a 0f85bef1ffff    jne     image00400000+0x40de (004040de)
00404f20 eb34            jmp     image00400000+0x4f56 (00404f56)
00404f22 83bd6cfeffffff  cmp     dword ptr [ebp-194h],0FFFFFFFFh
00404f29 eb16            jmp     image00400000+0x4f41 (00404f41)
00404f2b 83f8ff          cmp     eax,0FFFFFFFFh
00404f2e 740e            je      image00400000+0x4f3e (00404f3e)
00404f30 ffb55cfeffff    push    dword ptr [ebp-1A4h]
00404f36 50              push    eax
00404f37 e80b430000      call    image00400000+0x9247 (00409247)
00404f3c 59              pop     ecx
00404f3d 59              pop     ecx
00404f3e 83fbff          cmp     ebx,0FFFFFFFFh
00404f41 7413            je      image00400000+0x4f56 (00404f56)
00404f43 ffb55cfeffff    push    dword ptr [ebp-1A4h]
00404f49 ffb56cfeffff    push    dword ptr [ebp-194h]
00404f4f e8f3420000      call    image00400000+0x9247 (00409247)
00404f54 59              pop     ecx
00404f55 59              pop     ecx
00404f56 83bd30feffff01  cmp     dword ptr [ebp-1D0h],1
00404f5d 750c            jne     image00400000+0x4f6b (00404f6b)
00404f5f ffb550feffff    push    dword ptr [ebp-1B0h]
00404f65 e8b4d6ffff      call    image00400000+0x261e (0040261e)
00404f6a 59              pop     ecx
00404f6b 83bd6cfeffffff  cmp     dword ptr [ebp-194h],0FFFFFFFFh
00404f72 752a            jne     image00400000+0x4f9e (00404f9e)
00404f74 8b8534feffff    mov     eax,dword ptr [ebp-1CCh]
00404f7a 85c0            test    eax,eax
00404f7c 750b            jne     image00400000+0x4f89 (00404f89)
00404f7e 38855bfeffff    cmp     byte ptr [ebp-1A5h],al
00404f84 7503            jne     image00400000+0x4f89 (00404f89)
00404f86 83c8ff          or      eax,0FFFFFFFFh
00404f89 80bd10feffff00  cmp     byte ptr [ebp-1F0h],0
00404f90 7425            je      image00400000+0x4fb7 (00404fb7)
00404f92 8b8d0cfeffff    mov     ecx,dword ptr [ebp-1F4h]
00404f98 836170fd        and     dword ptr [ecx+70h],0FFFFFFFDh
00404f9c eb19            jmp     image00400000+0x4fb7 (00404fb7)
00404f9e 80bd10feffff00  cmp     byte ptr [ebp-1F0h],0
00404fa5 740a            je      image00400000+0x4fb1 (00404fb1)
00404fa7 8b850cfeffff    mov     eax,dword ptr [ebp-1F4h]
00404fad 836070fd        and     dword ptr [eax+70h],0FFFFFFFDh
00404fb1 8b8534feffff    mov     eax,dword ptr [ebp-1CCh]
00404fb7 5b              pop     ebx
00404fb8 8b4dfc          mov     ecx,dword ptr [ebp-4]
00404fbb 5f              pop     edi
00404fbc 33cd            xor     ecx,ebp
00404fbe 5e              pop     esi
00404fbf e837d5ffff      call    image00400000+0x24fb (004024fb)
00404fc4 c9              leave
00404fc5 c3              ret
00404fc6 6a00            push    0
00404fc8 6800100000      push    1000h
00404fcd 6a00            push    0
00404fcf ff15bcd04000    call    dword ptr [image00400000+0xd0bc (0040d0bc)]
00404fd5 33c9            xor     ecx,ecx
00404fd7 85c0            test    eax,eax
00404fd9 0f95c1          setne   cl
00404fdc a318124100      mov     dword ptr [image00400000+0x11218 (00411218)],eax
00404fe1 8bc1            mov     eax,ecx
00404fe3 c3              ret
00404fe4 8bff            mov     edi,edi
00404fe6 55              push    ebp
00404fe7 8bec            mov     ebp,esp
00404fe9 684cd24000      push    offset image00400000+0xd24c (0040d24c)
00404fee ff15c0d04000    call    dword ptr [image00400000+0xd0c0 (0040d0c0)]
00404ff4 85c0            test    eax,eax
00404ff6 7415            je      image00400000+0x500d (0040500d)
00404ff8 683cd24000      push    offset image00400000+0xd23c (0040d23c)
00404ffd 50              push    eax
00404ffe ff1570d04000    call    dword ptr [image00400000+0xd070 (0040d070)]
00405004 85c0            test    eax,eax
00405006 7405            je      image00400000+0x500d (0040500d)
00405008 ff7508          push    dword ptr [ebp+8]
0040500b ffd0            call    eax
0040500d 5d              pop     ebp
0040500e c3              ret
0040500f 8bff            mov     edi,edi
00405011 55              push    ebp
00405012 8bec            mov     ebp,esp
00405014 ff7508          push    dword ptr [ebp+8]
00405017 e8c8ffffff      call    image00400000+0x4fe4 (00404fe4)
0040501c 59              pop     ecx
0040501d ff7508          push    dword ptr [ebp+8]
00405020 ff15c4d04000    call    dword ptr [image00400000+0xd0c4 (0040d0c4)]
00405026 cc              int     3
00405027 6a08            push    8
00405029 e8e0450000      call    image00400000+0x960e (0040960e)
0040502e 59              pop     ecx
0040502f c3              ret
00405030 6a08            push    8
00405032 e8fe440000      call    image00400000+0x9535 (00409535)
00405037 59              pop     ecx
00405038 c3              ret
00405039 8bff            mov     edi,edi
0040503b 56              push    esi
0040503c e829110000      call    image00400000+0x616a (0040616a)
00405041 8bf0            mov     esi,eax
00405043 56              push    esi
00405044 e894040000      call    image00400000+0x54dd (004054dd)
00405049 56              push    esi
0040504a e806ecffff      call    image00400000+0x3c55 (00403c55)
0040504f 56              push    esi
00405050 e84a480000      call    image00400000+0x989f (0040989f)
00405055 56              push    esi
00405056 e835480000      call    image00400000+0x9890 (00409890)
0040505b 56              push    esi
0040505c e82a460000      call    image00400000+0x968b (0040968b)
00405061 56              push    esi
00405062 e813460000      call    image00400000+0x967a (0040967a)
00405067 83c418          add     esp,18h
0040506a 5e              pop     esi
0040506b c3              ret
0040506c 8bff            mov     edi,edi
0040506e 55              push    ebp
0040506f 8bec            mov     ebp,esp
00405071 56              push    esi
00405072 8b7508          mov     esi,dword ptr [ebp+8]
00405075 33c0            xor     eax,eax
00405077 eb0f            jmp     image00400000+0x5088 (00405088)
00405079 85c0            test    eax,eax
0040507b 7510            jne     image00400000+0x508d (0040508d)
0040507d 8b0e            mov     ecx,dword ptr [esi]
0040507f 85c9            test    ecx,ecx
00405081 7402            je      image00400000+0x5085 (00405085)
00405083 ffd1            call    ecx
00405085 83c604          add     esi,4
00405088 3b750c          cmp     esi,dword ptr [ebp+0Ch]
0040508b 72ec            jb      image00400000+0x5079 (00405079)
0040508d 5e              pop     esi
0040508e 5d              pop     ebp
0040508f c3              ret
00405090 8bff            mov     edi,edi
00405092 55              push    ebp
00405093 8bec            mov     ebp,esp
00405095 833db02c410000  cmp     dword ptr [image00400000+0x12cb0 (00412cb0)],0
0040509c 7419            je      image00400000+0x50b7 (004050b7)
0040509e 68b02c4100      push    offset image00400000+0x12cb0 (00412cb0)
004050a3 e8d8490000      call    image00400000+0x9a80 (00409a80)
004050a8 59              pop     ecx
004050a9 85c0            test    eax,eax
004050ab 740a            je      image00400000+0x50b7 (004050b7)
004050ad ff7508          push    dword ptr [ebp+8]
004050b0 ff15b02c4100    call    dword ptr [image00400000+0x12cb0 (00412cb0)]
004050b6 59              pop     ecx
004050b7 e830370000      call    image00400000+0x87ec (004087ec)
004050bc 68a4d14000      push    offset image00400000+0xd1a4 (0040d1a4)
004050c1 688cd14000      push    offset image00400000+0xd18c (0040d18c)
004050c6 e8a1ffffff      call    image00400000+0x506c (0040506c)
004050cb 59              pop     ecx
004050cc 59              pop     ecx
004050cd 85c0            test    eax,eax
004050cf 7554            jne     image00400000+0x5125 (00405125)
004050d1 56              push    esi
004050d2 57              push    edi
004050d3 6874794000      push    offset image00400000+0x7974 (00407974)
004050d8 e8f4480000      call    image00400000+0x99d1 (004099d1)
004050dd b884d14000      mov     eax,offset image00400000+0xd184 (0040d184)
004050e2 be88d14000      mov     esi,offset image00400000+0xd188 (0040d188)
004050e7 59              pop     ecx
004050e8 8bf8            mov     edi,eax
004050ea 3bc6            cmp     eax,esi
004050ec 730f            jae     image00400000+0x50fd (004050fd)
004050ee 8b07            mov     eax,dword ptr [edi]
004050f0 85c0            test    eax,eax
004050f2 7402            je      image00400000+0x50f6 (004050f6)
004050f4 ffd0            call    eax
004050f6 83c704          add     edi,4
004050f9 3bfe            cmp     edi,esi
004050fb 72f1            jb      image00400000+0x50ee (004050ee)
004050fd 833db42c410000  cmp     dword ptr [image00400000+0x12cb4 (00412cb4)],0
00405104 5f              pop     edi
00405105 5e              pop     esi
00405106 741b            je      image00400000+0x5123 (00405123)
00405108 68b42c4100      push    offset image00400000+0x12cb4 (00412cb4)
0040510d e86e490000      call    image00400000+0x9a80 (00409a80)
00405112 59              pop     ecx
00405113 85c0            test    eax,eax
00405115 740c            je      image00400000+0x5123 (00405123)
00405117 6a00            push    0
00405119 6a02            push    2
0040511b 6a00            push    0
0040511d ff15b42c4100    call    dword ptr [image00400000+0x12cb4 (00412cb4)]
00405123 33c0            xor     eax,eax
00405125 5d              pop     ebp
00405126 c3              ret
00405127 6a20            push    20h
00405129 68e0ee4000      push    offset image00400000+0xeee0 (0040eee0)
0040512e e86d280000      call    image00400000+0x79a0 (004079a0)
00405133 6a08            push    8
00405135 e8d4440000      call    image00400000+0x960e (0040960e)
0040513a 59              pop     ecx
0040513b 8365fc00        and     dword ptr [ebp-4],0
0040513f 33c0            xor     eax,eax
00405141 40              inc     eax
00405142 39054c124100    cmp     dword ptr [image00400000+0x1124c (0041124c)],eax
00405148 0f84d8000000    je      image00400000+0x5226 (00405226)
0040514e a348124100      mov     dword ptr [image00400000+0x11248 (00411248)],eax
00405153 8a4510          mov     al,byte ptr [ebp+10h]
00405156 a244124100      mov     byte ptr [image00400000+0x11244 (00411244)],al
0040515b 837d0c00        cmp     dword ptr [ebp+0Ch],0
0040515f 0f85a0000000    jne     image00400000+0x5205 (00405205)
00405165 ff35a82c4100    push    dword ptr [image00400000+0x12ca8 (00412ca8)]
0040516b 8b35b4d04000    mov     esi,dword ptr [image00400000+0xd0b4 (0040d0b4)]
00405171 ffd6            call    esi
00405173 8bd8            mov     ebx,eax
00405175 895dd0          mov     dword ptr [ebp-30h],ebx
00405178 85db            test    ebx,ebx
0040517a 7468            je      image00400000+0x51e4 (004051e4)
0040517c ff35a42c4100    push    dword ptr [image00400000+0x12ca4 (00412ca4)]
00405182 ffd6            call    esi
00405184 8bf8            mov     edi,eax
00405186 897dd4          mov     dword ptr [ebp-2Ch],edi
00405189 895ddc          mov     dword ptr [ebp-24h],ebx
0040518c 897dd8          mov     dword ptr [ebp-28h],edi
0040518f 83ef04          sub     edi,4
00405192 897dd4          mov     dword ptr [ebp-2Ch],edi
00405195 3bfb            cmp     edi,ebx
00405197 724b            jb      image00400000+0x51e4 (004051e4)
00405199 e8cc0f0000      call    image00400000+0x616a (0040616a)
0040519e 3907            cmp     dword ptr [edi],eax
004051a0 74ed            je      image00400000+0x518f (0040518f)
004051a2 3bfb            cmp     edi,ebx
004051a4 723e            jb      image00400000+0x51e4 (004051e4)
004051a6 ff37            push    dword ptr [edi]
004051a8 ffd6            call    esi
004051aa 8bd8            mov     ebx,eax
004051ac e8b90f0000      call    image00400000+0x616a (0040616a)
004051b1 8907            mov     dword ptr [edi],eax
004051b3 ffd3            call    ebx
004051b5 ff35a82c4100    push    dword ptr [image00400000+0x12ca8 (00412ca8)]
004051bb ffd6            call    esi
004051bd 8bd8            mov     ebx,eax
004051bf ff35a42c4100    push    dword ptr [image00400000+0x12ca4 (00412ca4)]
004051c5 ffd6            call    esi
004051c7 395ddc          cmp     dword ptr [ebp-24h],ebx
004051ca 7505            jne     image00400000+0x51d1 (004051d1)
004051cc 3945d8          cmp     dword ptr [ebp-28h],eax
004051cf 740e            je      image00400000+0x51df (004051df)
004051d1 895ddc          mov     dword ptr [ebp-24h],ebx
004051d4 895dd0          mov     dword ptr [ebp-30h],ebx
004051d7 8945d8          mov     dword ptr [ebp-28h],eax
004051da 8bf8            mov     edi,eax
004051dc 897dd4          mov     dword ptr [ebp-2Ch],edi
004051df 8b5dd0          mov     ebx,dword ptr [ebp-30h]
004051e2 ebab            jmp     image00400000+0x518f (0040518f)
004051e4 c745e4a8d14000  mov     dword ptr [ebp-1Ch],offset image00400000+0xd1a8 (0040d1a8)
004051eb 817de4b4d14000  cmp     dword ptr [ebp-1Ch],offset image00400000+0xd1b4 (0040d1b4)
004051f2 7311            jae     image00400000+0x5205 (00405205)
004051f4 8b45e4          mov     eax,dword ptr [ebp-1Ch]
004051f7 8b00            mov     eax,dword ptr [eax]
004051f9 85c0            test    eax,eax
004051fb 7402            je      image00400000+0x51ff (004051ff)
004051fd ffd0            call    eax
004051ff 8345e404        add     dword ptr [ebp-1Ch],4
00405203 ebe6            jmp     image00400000+0x51eb (004051eb)
00405205 c745e0b8d14000  mov     dword ptr [ebp-20h],offset image00400000+0xd1b8 (0040d1b8)
0040520c 817de0bcd14000  cmp     dword ptr [ebp-20h],offset image00400000+0xd1bc (0040d1bc)
00405213 7311            jae     image00400000+0x5226 (00405226)
00405215 8b45e0          mov     eax,dword ptr [ebp-20h]
00405218 8b00            mov     eax,dword ptr [eax]
0040521a 85c0            test    eax,eax
0040521c 7402            je      image00400000+0x5220 (00405220)
0040521e ffd0            call    eax
00405220 8345e004        add     dword ptr [ebp-20h],4
00405224 ebe6            jmp     image00400000+0x520c (0040520c)
00405226 c745fcfeffffff  mov     dword ptr [ebp-4],0FFFFFFFEh
0040522d e820000000      call    image00400000+0x5252 (00405252)
00405232 837d1000        cmp     dword ptr [ebp+10h],0
00405236 7529            jne     image00400000+0x5261 (00405261)
00405238 c7054c12410001000000 mov dword ptr [image00400000+0x1124c (0041124c)],1
00405242 6a08            push    8
00405244 e8ec420000      call    image00400000+0x9535 (00409535)
00405249 59              pop     ecx
0040524a ff7508          push    dword ptr [ebp+8]
0040524d e8bdfdffff      call    image00400000+0x500f (0040500f)
00405252 837d1000        cmp     dword ptr [ebp+10h],0
00405256 7408            je      image00400000+0x5260 (00405260)
00405258 6a08            push    8
0040525a e8d6420000      call    image00400000+0x9535 (00409535)
0040525f 59              pop     ecx
00405260 c3              ret
00405261 e87f270000      call    image00400000+0x79e5 (004079e5)
00405266 c3              ret
00405267 8bff            mov     edi,edi
00405269 55              push    ebp
0040526a 8bec            mov     ebp,esp
0040526c 6a00            push    0
0040526e 6a00            push    0
00405270 ff7508          push    dword ptr [ebp+8]
00405273 e8affeffff      call    image00400000+0x5127 (00405127)
00405278 83c40c          add     esp,0Ch
0040527b 5d              pop     ebp
0040527c c3              ret
0040527d 8bff            mov     edi,edi
0040527f 55              push    ebp
00405280 8bec            mov     ebp,esp
00405282 6a00            push    0
00405284 6a01            push    1
00405286 ff7508          push    dword ptr [ebp+8]
00405289 e899feffff      call    image00400000+0x5127 (00405127)
0040528e 83c40c          add     esp,0Ch
00405291 5d              pop     ebp
00405292 c3              ret
00405293 6a01            push    1
00405295 6a00            push    0
00405297 6a00            push    0
00405299 e889feffff      call    image00400000+0x5127 (00405127)
0040529e 83c40c          add     esp,0Ch
004052a1 c3              ret
004052a2 6a01            push    1
004052a4 6a01            push    1
004052a6 6a00            push    0
004052a8 e87afeffff      call    image00400000+0x5127 (00405127)
004052ad 83c40c          add     esp,0Ch
004052b0 c3              ret
004052b1 8bff            mov     edi,edi
004052b3 55              push    ebp
004052b4 8bec            mov     ebp,esp
004052b6 e8e9010000      call    image00400000+0x54a4 (004054a4)
004052bb ff7508          push    dword ptr [ebp+8]
004052be e832000000      call    image00400000+0x52f5 (004052f5)
004052c3 59              pop     ecx
004052c4 68ff000000      push    0FFh
004052c9 e8afffffff      call    image00400000+0x527d (0040527d)
004052ce cc              int     3
004052cf 8bff            mov     edi,edi
004052d1 55              push    ebp
004052d2 8bec            mov     ebp,esp
004052d4 33c0            xor     eax,eax
004052d6 8b4d08          mov     ecx,dword ptr [ebp+8]
004052d9 3b0cc5e8da4000  cmp     ecx,dword ptr image00400000+0xdae8 (0040dae8)[eax*8]
004052e0 740a            je      image00400000+0x52ec (004052ec)
004052e2 40              inc     eax
004052e3 83f816          cmp     eax,16h
004052e6 72ee            jb      image00400000+0x52d6 (004052d6)
004052e8 33c0            xor     eax,eax
004052ea 5d              pop     ebp
004052eb c3              ret
004052ec 8b04c5ecda4000  mov     eax,dword ptr image00400000+0xdaec (0040daec)[eax*8]
004052f3 5d              pop     ebp
004052f4 c3              ret
004052f5 8bff            mov     edi,edi
004052f7 55              push    ebp
004052f8 8bec            mov     ebp,esp
004052fa 81ecfc010000    sub     esp,1FCh
00405300 a104004100      mov     eax,dword ptr [image00400000+0x10004 (00410004)]
00405305 33c5            xor     eax,ebp
00405307 8945fc          mov     dword ptr [ebp-4],eax
0040530a 53              push    ebx
0040530b 56              push    esi
0040530c 8b7508          mov     esi,dword ptr [ebp+8]
0040530f 57              push    edi
00405310 56              push    esi
00405311 e8b9ffffff      call    image00400000+0x52cf (004052cf)
00405316 8bf8            mov     edi,eax
00405318 33db            xor     ebx,ebx
0040531a 59              pop     ecx
0040531b 89bd04feffff    mov     dword ptr [ebp-1FCh],edi
00405321 3bfb            cmp     edi,ebx
00405323 0f846c010000    je      image00400000+0x5495 (00405495)
00405329 6a03            push    3
0040532b e8d54a0000      call    image00400000+0x9e05 (00409e05)
00405330 59              pop     ecx
00405331 83f801          cmp     eax,1
00405334 0f8407010000    je      image00400000+0x5441 (00405441)
0040533a 6a03            push    3
0040533c e8c44a0000      call    image00400000+0x9e05 (00409e05)
00405341 59              pop     ecx
00405342 85c0            test    eax,eax
00405344 750d            jne     image00400000+0x5353 (00405353)
00405346 833d0000410001  cmp     dword ptr [image00400000+0x10000 (00410000)],1
0040534d 0f84ee000000    je      image00400000+0x5441 (00405441)
00405353 81fefc000000    cmp     esi,0FCh
00405359 0f8436010000    je      image00400000+0x5495 (00405495)
0040535f 6824dc4000      push    offset image00400000+0xdc24 (0040dc24)
00405364 6814030000      push    314h
00405369 bf50124100      mov     edi,offset image00400000+0x11250 (00411250)
0040536e 57              push    edi
0040536f e8871c0000      call    image00400000+0x6ffb (00406ffb)
00405374 83c40c          add     esp,0Ch
00405377 85c0            test    eax,eax
00405379 0f85b8000000    jne     image00400000+0x5437 (00405437)
0040537f 6804010000      push    104h
00405384 be82124100      mov     esi,offset image00400000+0x11282 (00411282)
00405389 56              push    esi
0040538a 53              push    ebx
0040538b 66a38a144100    mov     word ptr [image00400000+0x1148a (0041148a)],ax
00405391 ff15d0d04000    call    dword ptr [image00400000+0xd0d0 (0040d0d0)]
00405397 bbfb020000      mov     ebx,2FBh
0040539c 85c0            test    eax,eax
0040539e 751f            jne     image00400000+0x53bf (004053bf)
004053a0 68f4db4000      push    offset image00400000+0xdbf4 (0040dbf4)
004053a5 53              push    ebx
004053a6 56              push    esi
004053a7 e84f1c0000      call    image00400000+0x6ffb (00406ffb)
004053ac 83c40c          add     esp,0Ch
004053af 85c0            test    eax,eax
004053b1 740c            je      image00400000+0x53bf (004053bf)
004053b3 33c0            xor     eax,eax
004053b5 50              push    eax
004053b6 50              push    eax
004053b7 50              push    eax
004053b8 50              push    eax
004053b9 50              push    eax
004053ba e8cee9ffff      call    image00400000+0x3d8d (00403d8d)
004053bf 56              push    esi
004053c0 e8254a0000      call    image00400000+0x9dea (00409dea)
004053c5 40              inc     eax
004053c6 59              pop     ecx
004053c7 83f83c          cmp     eax,3Ch
004053ca 762a            jbe     image00400000+0x53f6 (004053f6)
004053cc 56              push    esi
004053cd e8184a0000      call    image00400000+0x9dea (00409dea)
004053d2 8d04450c124100  lea     eax,image00400000+0x1120c (0041120c)[eax*2]
004053d9 8bc8            mov     ecx,eax
004053db 2bce            sub     ecx,esi
004053dd 6a03            push    3
004053df d1f9            sar     ecx,1
004053e1 68ecdb4000      push    offset image00400000+0xdbec (0040dbec)
004053e6 2bd9            sub     ebx,ecx
004053e8 53              push    ebx
004053e9 50              push    eax
004053ea e82e490000      call    image00400000+0x9d1d (00409d1d)
004053ef 83c414          add     esp,14h
004053f2 85c0            test    eax,eax
004053f4 75bd            jne     image00400000+0x53b3 (004053b3)
004053f6 68e4db4000      push    offset image00400000+0xdbe4 (0040dbe4)
004053fb be14030000      mov     esi,314h
00405400 56              push    esi
00405401 57              push    edi
00405402 e8a1480000      call    image00400000+0x9ca8 (00409ca8)
00405407 83c40c          add     esp,0Ch
0040540a 85c0            test    eax,eax
0040540c 75a5            jne     image00400000+0x53b3 (004053b3)
0040540e ffb504feffff    push    dword ptr [ebp-1FCh]
00405414 56              push    esi
00405415 57              push    edi
00405416 e88d480000      call    image00400000+0x9ca8 (00409ca8)
0040541b 83c40c          add     esp,0Ch
0040541e 85c0            test    eax,eax
00405420 7591            jne     image00400000+0x53b3 (004053b3)
00405422 6810200100      push    12010h
00405427 6898db4000      push    offset image00400000+0xdb98 (0040db98)
0040542c 57              push    edi
0040542d e80a470000      call    image00400000+0x9b3c (00409b3c)
00405432 83c40c          add     esp,0Ch
00405435 eb5e            jmp     image00400000+0x5495 (00405495)
00405437 53              push    ebx
00405438 53              push    ebx
00405439 53              push    ebx
0040543a 53              push    ebx
0040543b 53              push    ebx
0040543c e979ffffff      jmp     image00400000+0x53ba (004053ba)
00405441 6af4            push    0FFFFFFF4h
00405443 ff15ccd04000    call    dword ptr [image00400000+0xd0cc (0040d0cc)]
00405449 8bf0            mov     esi,eax
0040544b 3bf3            cmp     esi,ebx
0040544d 7446            je      image00400000+0x5495 (00405495)
0040544f 83feff          cmp     esi,0FFFFFFFFh
00405452 7441            je      image00400000+0x5495 (00405495)
00405454 33c0            xor     eax,eax
00405456 8a0c47          mov     cl,byte ptr [edi+eax*2]
00405459 888c0508feffff  mov     byte ptr [ebp+eax-1F8h],cl
00405460 66391c47        cmp     word ptr [edi+eax*2],bx
00405464 7408            je      image00400000+0x546e (0040546e)
00405466 40              inc     eax
00405467 3df4010000      cmp     eax,1F4h
0040546c 72e8            jb      image00400000+0x5456 (00405456)
0040546e 53              push    ebx
0040546f 8d8504feffff    lea     eax,[ebp-1FCh]
00405475 50              push    eax
00405476 8d8508feffff    lea     eax,[ebp-1F8h]
0040547c 50              push    eax
0040547d 885dfb          mov     byte ptr [ebp-5],bl
00405480 e8fbe9ffff      call    image00400000+0x3e80 (00403e80)
00405485 59              pop     ecx
00405486 50              push    eax
00405487 8d8508feffff    lea     eax,[ebp-1F8h]
0040548d 50              push    eax
0040548e 56              push    esi
0040548f ff15c8d04000    call    dword ptr [image00400000+0xd0c8 (0040d0c8)]
00405495 8b4dfc          mov     ecx,dword ptr [ebp-4]
00405498 5f              pop     edi
00405499 5e              pop     esi
0040549a 33cd            xor     ecx,ebp
0040549c 5b              pop     ebx
0040549d e859d0ffff      call    image00400000+0x24fb (004024fb)
004054a2 c9              leave
004054a3 c3              ret
004054a4 6a03            push    3
004054a6 e85a490000      call    image00400000+0x9e05 (00409e05)
004054ab 59              pop     ecx
004054ac 83f801          cmp     eax,1
004054af 7415            je      image00400000+0x54c6 (004054c6)
004054b1 6a03            push    3
004054b3 e84d490000      call    image00400000+0x9e05 (00409e05)
004054b8 59              pop     ecx
004054b9 85c0            test    eax,eax
004054bb 751f            jne     image00400000+0x54dc (004054dc)
004054bd 833d0000410001  cmp     dword ptr [image00400000+0x10000 (00410000)],1
004054c4 7516            jne     image00400000+0x54dc (004054dc)
004054c6 68fc000000      push    0FCh
004054cb e825feffff      call    image00400000+0x52f5 (004052f5)
004054d0 68ff000000      push    0FFh
004054d5 e81bfeffff      call    image00400000+0x52f5 (004052f5)
004054da 59              pop     ecx
004054db 59              pop     ecx
004054dc c3              ret
004054dd 8bff            mov     edi,edi
004054df 55              push    ebp
004054e0 8bec            mov     ebp,esp
004054e2 8b4508          mov     eax,dword ptr [ebp+8]
004054e5 a378184100      mov     dword ptr [image00400000+0x11878 (00411878)],eax
004054ea 5d              pop     ebp
004054eb c3              ret
004054ec 8bff            mov     edi,edi
004054ee 55              push    ebp
004054ef 8bec            mov     ebp,esp
004054f1 ff3578184100    push    dword ptr [image00400000+0x11878 (00411878)]
004054f7 ff15b4d04000    call    dword ptr [image00400000+0xd0b4 (0040d0b4)]
004054fd 85c0            test    eax,eax
004054ff 740f            je      image00400000+0x5510 (00405510)
00405501 ff7508          push    dword ptr [ebp+8]
00405504 ffd0            call    eax
00405506 59              pop     ecx
00405507 85c0            test    eax,eax
00405509 7405            je      image00400000+0x5510 (00405510)
0040550b 33c0            xor     eax,eax
0040550d 40              inc     eax
0040550e 5d              pop     ebp
0040550f c3              ret
00405510 33c0            xor     eax,eax
00405512 5d              pop     ebp
00405513 c3              ret
00405514 8bff            mov     edi,edi
00405516 55              push    ebp
00405517 8bec            mov     ebp,esp
00405519 f6400c40        test    byte ptr [eax+0Ch],40h
0040551d 7406            je      image00400000+0x5525 (00405525)
0040551f 83780800        cmp     dword ptr [eax+8],0
00405523 741a            je      image00400000+0x553f (0040553f)
00405525 50              push    eax
00405526 ff7508          push    dword ptr [ebp+8]
00405529 e816490000      call    image00400000+0x9e44 (00409e44)
0040552e 59              pop     ecx
0040552f 59              pop     ecx
00405530 b9ffff0000      mov     ecx,0FFFFh
00405535 663bc1          cmp     ax,cx
00405538 7505            jne     image00400000+0x553f (0040553f)
0040553a 830eff          or      dword ptr [esi],0FFFFFFFFh
0040553d 5d              pop     ebp
0040553e c3              ret
0040553f ff06            inc     dword ptr [esi]
00405541 5d              pop     ebp
00405542 c3              ret
00405543 8bff            mov     edi,edi
00405545 55              push    ebp
00405546 8bec            mov     ebp,esp
00405548 51              push    ecx
00405549 f6430c40        test    byte ptr [ebx+0Ch],40h
0040554d 56              push    esi
0040554e 8bf0            mov     esi,eax
00405550 8b07            mov     eax,dword ptr [edi]
00405552 8945fc          mov     dword ptr [ebp-4],eax
00405555 740d            je      image00400000+0x5564 (00405564)
00405557 837b0800        cmp     dword ptr [ebx+8],0
0040555b 7507            jne     image00400000+0x5564 (00405564)
0040555d 8b450c          mov     eax,dword ptr [ebp+0Ch]
00405560 0106            add     dword ptr [esi],eax
00405562 eb43            jmp     image00400000+0x55a7 (004055a7)
00405564 832700          and     dword ptr [edi],0
00405567 837d0c00        cmp     dword ptr [ebp+0Ch],0
0040556b 7e35            jle     image00400000+0x55a2 (004055a2)
0040556d 8b4508          mov     eax,dword ptr [ebp+8]
00405570 0fb700          movzx   eax,word ptr [eax]
00405573 ff4d0c          dec     dword ptr [ebp+0Ch]
00405576 50              push    eax
00405577 8bc3            mov     eax,ebx
00405579 e896ffffff      call    image00400000+0x5514 (00405514)
0040557e 83450802        add     dword ptr [ebp+8],2
00405582 833eff          cmp     dword ptr [esi],0FFFFFFFFh
00405585 59              pop     ecx
00405586 750f            jne     image00400000+0x5597 (00405597)
00405588 833f2a          cmp     dword ptr [edi],2Ah
0040558b 7510            jne     image00400000+0x559d (0040559d)
0040558d 6a3f            push    3Fh
0040558f 8bc3            mov     eax,ebx
00405591 e87effffff      call    image00400000+0x5514 (00405514)
00405596 59              pop     ecx
00405597 837d0c00        cmp     dword ptr [ebp+0Ch],0
0040559b 7fd0            jg      image00400000+0x556d (0040556d)
0040559d 833f00          cmp     dword ptr [edi],0
004055a0 7505            jne     image00400000+0x55a7 (004055a7)
004055a2 8b45fc          mov     eax,dword ptr [ebp-4]
004055a5 8907            mov     dword ptr [edi],eax
004055a7 5e              pop     esi
004055a8 c9              leave
004055a9 c3              ret
004055aa 8bff            mov     edi,edi
004055ac 55              push    ebp
004055ad 8bec            mov     ebp,esp
004055af 81ec78040000    sub     esp,478h
004055b5 a104004100      mov     eax,dword ptr [image00400000+0x10004 (00410004)]
004055ba 33c5            xor     eax,ebp
004055bc 8945fc          mov     dword ptr [ebp-4],eax
004055bf 53              push    ebx
004055c0 8b5d14          mov     ebx,dword ptr [ebp+14h]
004055c3 56              push    esi
004055c4 8b7508          mov     esi,dword ptr [ebp+8]
004055c7 33c0            xor     eax,eax
004055c9 57              push    edi
004055ca ff7510          push    dword ptr [ebp+10h]
004055cd 8b7d0c          mov     edi,dword ptr [ebp+0Ch]
004055d0 8d8db4fbffff    lea     ecx,[ebp-44Ch]
004055d6 89b5d4fbffff    mov     dword ptr [ebp-42Ch],esi
004055dc 899de4fbffff    mov     dword ptr [ebp-41Ch],ebx
004055e2 8985acfbffff    mov     dword ptr [ebp-454h],eax
004055e8 8985f8fbffff    mov     dword ptr [ebp-408h],eax
004055ee 8985d8fbffff    mov     dword ptr [ebp-428h],eax
004055f4 8985f4fbffff    mov     dword ptr [ebp-40Ch],eax
004055fa 8985dcfbffff    mov     dword ptr [ebp-424h],eax
00405600 8985b0fbffff    mov     dword ptr [ebp-450h],eax
00405606 8985d0fbffff    mov     dword ptr [ebp-430h],eax
0040560c e8bad2ffff      call    image00400000+0x28cb (004028cb)
00405611 e81be8ffff      call    image00400000+0x3e31 (00403e31)
00405616 89859cfbffff    mov     dword ptr [ebp-464h],eax
0040561c 85f6            test    esi,esi
0040561e 752b            jne     image00400000+0x564b (0040564b)
00405620 e80ce8ffff      call    image00400000+0x3e31 (00403e31)
00405625 c70016000000    mov     dword ptr [eax],16h
0040562b e8afe7ffff      call    image00400000+0x3ddf (00403ddf)
00405630 80bdc0fbffff00  cmp     byte ptr [ebp-440h],0
00405637 740a            je      image00400000+0x5643 (00405643)
00405639 8b85bcfbffff    mov     eax,dword ptr [ebp-444h]
0040563f 836070fd        and     dword ptr [eax+70h],0FFFFFFFDh
00405643 83c8ff          or      eax,0FFFFFFFFh
00405646 e9ed0a0000      jmp     image00400000+0x6138 (00406138)
0040564b 33f6            xor     esi,esi
0040564d 3bfe            cmp     edi,esi
0040564f 74cf            je      image00400000+0x5620 (00405620)
00405651 0fb717          movzx   edx,word ptr [edi]
00405654 89b5e8fbffff    mov     dword ptr [ebp-418h],esi
0040565a 89b5ecfbffff    mov     dword ptr [ebp-414h],esi
00405660 89b5c4fbffff    mov     dword ptr [ebp-43Ch],esi
00405666 89b5a8fbffff    mov     dword ptr [ebp-458h],esi
0040566c 8995e0fbffff    mov     dword ptr [ebp-420h],edx
00405672 663bd6          cmp     dx,si
00405675 0f84a40a0000    je      image00400000+0x611f (0040611f)
0040567b 6a02            push    2
0040567d 59              pop     ecx
0040567e 03f9            add     edi,ecx
00405680 89bda0fbffff    mov     dword ptr [ebp-460h],edi
00405686 39b5e8fbffff    cmp     dword ptr [ebp-418h],esi
0040568c 0f8c780a0000    jl      image00400000+0x610a (0040610a)
00405692 8d42e0          lea     eax,[edx-20h]
00405695 6683f858        cmp     ax,58h
00405699 770f            ja      image00400000+0x56aa (004056aa)
0040569b 0fb7c2          movzx   eax,dx
0040569e 0fb680f0e04000  movzx   eax,byte ptr image00400000+0xe0f0 (0040e0f0)[eax]
004056a5 83e00f          and     eax,0Fh
004056a8 eb02            jmp     image00400000+0x56ac (004056ac)
004056aa 33c0            xor     eax,eax
004056ac 8bb5c4fbffff    mov     esi,dword ptr [ebp-43Ch]
004056b2 6bc009          imul    eax,eax,9
004056b5 0fb6843010e14000 movzx   eax,byte ptr image00400000+0xe110 (0040e110)[eax+esi]
004056bd 6a08            push    8
004056bf c1e804          shr     eax,4
004056c2 5e              pop     esi
004056c3 8985c4fbffff    mov     dword ptr [ebp-43Ch],eax
004056c9 3bc6            cmp     eax,esi
004056cb 0f844fffffff    je      image00400000+0x5620 (00405620)
004056d1 83f807          cmp     eax,7
004056d4 0f870d0a0000    ja      image00400000+0x60e7 (004060e7)
004056da ff24854a614000  jmp     dword ptr image00400000+0x614a (0040614a)[eax*4]
004056e1 33c0            xor     eax,eax
004056e3 838df4fbffffff  or      dword ptr [ebp-40Ch],0FFFFFFFFh
004056ea 898598fbffff    mov     dword ptr [ebp-468h],eax
004056f0 8985b0fbffff    mov     dword ptr [ebp-450h],eax
004056f6 8985d8fbffff    mov     dword ptr [ebp-428h],eax
004056fc 8985dcfbffff    mov     dword ptr [ebp-424h],eax
00405702 8985f8fbffff    mov     dword ptr [ebp-408h],eax
00405708 8985d0fbffff    mov     dword ptr [ebp-430h],eax
0040570e e9e0090000      jmp     image00400000+0x60f3 (004060f3)
00405713 0fb7c2          movzx   eax,dx
00405716 83e820          sub     eax,20h
00405719 7448            je      image00400000+0x5763 (00405763)
0040571b 83e803          sub     eax,3
0040571e 7434            je      image00400000+0x5754 (00405754)
00405720 2bc6            sub     eax,esi
00405722 7424            je      image00400000+0x5748 (00405748)
00405724 2bc1            sub     eax,ecx
00405726 7414            je      image00400000+0x573c (0040573c)
00405728 83e803          sub     eax,3
0040572b 0f85b6090000    jne     image00400000+0x60e7 (004060e7)
00405731 09b5f8fbffff    or      dword ptr [ebp-408h],esi
00405737 e9b7090000      jmp     image00400000+0x60f3 (004060f3)
0040573c 838df8fbffff04  or      dword ptr [ebp-408h],4
00405743 e9ab090000      jmp     image00400000+0x60f3 (004060f3)
00405748 838df8fbffff01  or      dword ptr [ebp-408h],1
0040574f e99f090000      jmp     image00400000+0x60f3 (004060f3)
00405754 818df8fbffff80000000 or  dword ptr [ebp-408h],80h
0040575e e990090000      jmp     image00400000+0x60f3 (004060f3)
00405763 098df8fbffff    or      dword ptr [ebp-408h],ecx
00405769 e985090000      jmp     image00400000+0x60f3 (004060f3)
0040576e 6683fa2a        cmp     dx,2Ah
00405772 752b            jne     image00400000+0x579f (0040579f)
00405774 8b03            mov     eax,dword ptr [ebx]
00405776 83c304          add     ebx,4
00405779 899de4fbffff    mov     dword ptr [ebp-41Ch],ebx
0040577f 8985d8fbffff    mov     dword ptr [ebp-428h],eax
00405785 85c0            test    eax,eax
00405787 0f8966090000    jns     image00400000+0x60f3 (004060f3)
0040578d 838df8fbffff04  or      dword ptr [ebp-408h],4
00405794 f79dd8fbffff    neg     dword ptr [ebp-428h]
0040579a e954090000      jmp     image00400000+0x60f3 (004060f3)
0040579f 8b85d8fbffff    mov     eax,dword ptr [ebp-428h]
004057a5 6bc00a          imul    eax,eax,0Ah
004057a8 0fb7ca          movzx   ecx,dx
004057ab 8d4408d0        lea     eax,[eax+ecx-30h]
004057af 8985d8fbffff    mov     dword ptr [ebp-428h],eax
004057b5 e939090000      jmp     image00400000+0x60f3 (004060f3)
004057ba 83a5f4fbffff00  and     dword ptr [ebp-40Ch],0
004057c1 e92d090000      jmp     image00400000+0x60f3 (004060f3)
004057c6 6683fa2a        cmp     dx,2Ah
004057ca 7525            jne     image00400000+0x57f1 (004057f1)
004057cc 8b03            mov     eax,dword ptr [ebx]
004057ce 83c304          add     ebx,4
004057d1 899de4fbffff    mov     dword ptr [ebp-41Ch],ebx
004057d7 8985f4fbffff    mov     dword ptr [ebp-40Ch],eax
004057dd 85c0            test    eax,eax
004057df 0f890e090000    jns     image00400000+0x60f3 (004060f3)
004057e5 838df4fbffffff  or      dword ptr [ebp-40Ch],0FFFFFFFFh
004057ec e902090000      jmp     image00400000+0x60f3 (004060f3)
004057f1 8b85f4fbffff    mov     eax,dword ptr [ebp-40Ch]
004057f7 6bc00a          imul    eax,eax,0Ah
004057fa 0fb7ca          movzx   ecx,dx
004057fd 8d4408d0        lea     eax,[eax+ecx-30h]
00405801 8985f4fbffff    mov     dword ptr [ebp-40Ch],eax
00405807 e9e7080000      jmp     image00400000+0x60f3 (004060f3)
0040580c 0fb7c2          movzx   eax,dx
0040580f 83f849          cmp     eax,49h
00405812 7451            je      image00400000+0x5865 (00405865)
00405814 83f868          cmp     eax,68h
00405817 7440            je      image00400000+0x5859 (00405859)
00405819 83f86c          cmp     eax,6Ch
0040581c 7418            je      image00400000+0x5836 (00405836)
0040581e 83f877          cmp     eax,77h
00405821 0f85cc080000    jne     image00400000+0x60f3 (004060f3)
00405827 818df8fbffff00080000 or  dword ptr [ebp-408h],800h
00405831 e9bd080000      jmp     image00400000+0x60f3 (004060f3)
00405836 66833f6c        cmp     word ptr [edi],6Ch
0040583a 7511            jne     image00400000+0x584d (0040584d)
0040583c 03f9            add     edi,ecx
0040583e 818df8fbffff00100000 or  dword ptr [ebp-408h],1000h
00405848 e9a6080000      jmp     image00400000+0x60f3 (004060f3)
0040584d 838df8fbffff10  or      dword ptr [ebp-408h],10h
00405854 e99a080000      jmp     image00400000+0x60f3 (004060f3)
00405859 838df8fbffff20  or      dword ptr [ebp-408h],20h
00405860 e98e080000      jmp     image00400000+0x60f3 (004060f3)
00405865 0fb707          movzx   eax,word ptr [edi]
00405868 83f836          cmp     eax,36h
0040586b 7519            jne     image00400000+0x5886 (00405886)
0040586d 66837f0234      cmp     word ptr [edi+2],34h
00405872 7512            jne     image00400000+0x5886 (00405886)
00405874 83c704          add     edi,4
00405877 818df8fbffff00800000 or  dword ptr [ebp-408h],8000h
00405881 e96d080000      jmp     image00400000+0x60f3 (004060f3)
00405886 83f833          cmp     eax,33h
00405889 7519            jne     image00400000+0x58a4 (004058a4)
0040588b 66837f0232      cmp     word ptr [edi+2],32h
00405890 7512            jne     image00400000+0x58a4 (004058a4)
00405892 83c704          add     edi,4
00405895 81a5f8fbffffff7fffff and dword ptr [ebp-408h],0FFFF7FFFh
0040589f e94f080000      jmp     image00400000+0x60f3 (004060f3)
004058a4 83f864          cmp     eax,64h
004058a7 0f8446080000    je      image00400000+0x60f3 (004060f3)
004058ad 83f869          cmp     eax,69h
004058b0 0f843d080000    je      image00400000+0x60f3 (004060f3)
004058b6 83f86f          cmp     eax,6Fh
004058b9 0f8434080000    je      image00400000+0x60f3 (004060f3)
004058bf 83f875          cmp     eax,75h
004058c2 0f842b080000    je      image00400000+0x60f3 (004060f3)
004058c8 83f878          cmp     eax,78h
004058cb 0f8422080000    je      image00400000+0x60f3 (004060f3)
004058d1 83f858          cmp     eax,58h
004058d4 0f8419080000    je      image00400000+0x60f3 (004060f3)
004058da 83a5c4fbffff00  and     dword ptr [ebp-43Ch],0
004058e1 8b85d4fbffff    mov     eax,dword ptr [ebp-42Ch]
004058e7 52              push    edx
004058e8 8db5e8fbffff    lea     esi,[ebp-418h]
004058ee c785d0fbffff01000000 mov dword ptr [ebp-430h],1
004058f8 e817fcffff      call    image00400000+0x5514 (00405514)
004058fd 59              pop     ecx
004058fe e9f0070000      jmp     image00400000+0x60f3 (004060f3)
00405903 0fb7c2          movzx   eax,dx
00405906 83f864          cmp     eax,64h
00405909 0f8f31020000    jg      image00400000+0x5b40 (00405b40)
0040590f 0f84bf020000    je      image00400000+0x5bd4 (00405bd4)
00405915 83f853          cmp     eax,53h
00405918 0f8f1c010000    jg      image00400000+0x5a3a (00405a3a)
0040591e 747f            je      image00400000+0x599f (0040599f)
00405920 83e841          sub     eax,41h
00405923 7410            je      image00400000+0x5935 (00405935)
00405925 2bc1            sub     eax,ecx
00405927 745a            je      image00400000+0x5983 (00405983)
00405929 2bc1            sub     eax,ecx
0040592b 7408            je      image00400000+0x5935 (00405935)
0040592d 2bc1            sub     eax,ecx
0040592f 0f85e1050000    jne     image00400000+0x5f16 (00405f16)
00405935 83c220          add     edx,20h
00405938 c78598fbffff01000000 mov dword ptr [ebp-468h],1
00405942 8995e0fbffff    mov     dword ptr [ebp-420h],edx
00405948 8b8df4fbffff    mov     ecx,dword ptr [ebp-40Ch]
0040594e 838df8fbffff40  or      dword ptr [ebp-408h],40h
00405955 8dbdfcfbffff    lea     edi,[ebp-404h]
0040595b b800020000      mov     eax,200h
00405960 89bdf0fbffff    mov     dword ptr [ebp-410h],edi
00405966 8985ecfbffff    mov     dword ptr [ebp-414h],eax
0040596c 85c9            test    ecx,ecx
0040596e 0f898e020000    jns     image00400000+0x5c02 (00405c02)
00405974 c785f4fbffff06000000 mov dword ptr [ebp-40Ch],6
0040597e e9de020000      jmp     image00400000+0x5c61 (00405c61)
00405983 f785f8fbffff30080000 test dword ptr [ebp-408h],830h
0040598d 0f85c9000000    jne     image00400000+0x5a5c (00405a5c)
00405993 838df8fbffff20  or      dword ptr [ebp-408h],20h
0040599a e9bd000000      jmp     image00400000+0x5a5c (00405a5c)
0040599f f785f8fbffff30080000 test dword ptr [ebp-408h],830h
004059a9 7507            jne     image00400000+0x59b2 (004059b2)
004059ab 838df8fbffff20  or      dword ptr [ebp-408h],20h
004059b2 8bbdf4fbffff    mov     edi,dword ptr [ebp-40Ch]
004059b8 83ffff          cmp     edi,0FFFFFFFFh
004059bb 7505            jne     image00400000+0x59c2 (004059c2)
004059bd bfffffff7f      mov     edi,7FFFFFFFh
004059c2 83c304          add     ebx,4
004059c5 f685f8fbffff20  test    byte ptr [ebp-408h],20h
004059cc 899de4fbffff    mov     dword ptr [ebp-41Ch],ebx
004059d2 8b5bfc          mov     ebx,dword ptr [ebx-4]
004059d5 899df0fbffff    mov     dword ptr [ebp-410h],ebx
004059db 0f84f9040000    je      image00400000+0x5eda (00405eda)
004059e1 85db            test    ebx,ebx
004059e3 750b            jne     image00400000+0x59f0 (004059f0)
004059e5 a10c004100      mov     eax,dword ptr [image00400000+0x1000c (0041000c)]
004059ea 8985f0fbffff    mov     dword ptr [ebp-410h],eax
004059f0 83a5ecfbffff00  and     dword ptr [ebp-414h],0
004059f7 8bb5f0fbffff    mov     esi,dword ptr [ebp-410h]
004059fd 85ff            test    edi,edi
004059ff 0f8e11050000    jle     image00400000+0x5f16 (00405f16)
00405a05 8a06            mov     al,byte ptr [esi]
00405a07 84c0            test    al,al
00405a09 0f8407050000    je      image00400000+0x5f16 (00405f16)
00405a0f 8d8db4fbffff    lea     ecx,[ebp-44Ch]
00405a15 0fb6c0          movzx   eax,al
00405a18 51              push    ecx
00405a19 50              push    eax
00405a1a e8a9300000      call    image00400000+0x8ac8 (00408ac8)
00405a1f 59              pop     ecx
00405a20 59              pop     ecx
00405a21 85c0            test    eax,eax
00405a23 7401            je      image00400000+0x5a26 (00405a26)
00405a25 46              inc     esi
00405a26 46              inc     esi
00405a27 ff85ecfbffff    inc     dword ptr [ebp-414h]
00405a2d 39bdecfbffff    cmp     dword ptr [ebp-414h],edi
00405a33 7cd0            jl      image00400000+0x5a05 (00405a05)
00405a35 e9dc040000      jmp     image00400000+0x5f16 (00405f16)
00405a3a 83e858          sub     eax,58h
00405a3d 0f84df020000    je      image00400000+0x5d22 (00405d22)
00405a43 2bc1            sub     eax,ecx
00405a45 0f8495000000    je      image00400000+0x5ae0 (00405ae0)
00405a4b 83e807          sub     eax,7
00405a4e 0f84f4feffff    je      image00400000+0x5948 (00405948)
00405a54 2bc1            sub     eax,ecx
00405a56 0f85ba040000    jne     image00400000+0x5f16 (00405f16)
00405a5c 0fb703          movzx   eax,word ptr [ebx]
00405a5f 83c304          add     ebx,4
00405a62 33f6            xor     esi,esi
00405a64 46              inc     esi
00405a65 f685f8fbffff20  test    byte ptr [ebp-408h],20h
00405a6c 89b5d0fbffff    mov     dword ptr [ebp-430h],esi
00405a72 899de4fbffff    mov     dword ptr [ebp-41Ch],ebx
00405a78 8985a4fbffff    mov     dword ptr [ebp-45Ch],eax
00405a7e 7442            je      image00400000+0x5ac2 (00405ac2)
00405a80 8885c8fbffff    mov     byte ptr [ebp-438h],al
00405a86 8d85b4fbffff    lea     eax,[ebp-44Ch]
00405a8c 50              push    eax
00405a8d 8b85b4fbffff    mov     eax,dword ptr [ebp-44Ch]
00405a93 c685c9fbffff00  mov     byte ptr [ebp-437h],0
00405a9a ffb0ac000000    push    dword ptr [eax+0ACh]
00405aa0 8d85c8fbffff    lea     eax,[ebp-438h]
00405aa6 50              push    eax
00405aa7 8d85fcfbffff    lea     eax,[ebp-404h]
00405aad 50              push    eax
00405aae e877380000      call    image00400000+0x932a (0040932a)
00405ab3 83c410          add     esp,10h
00405ab6 85c0            test    eax,eax
00405ab8 790f            jns     image00400000+0x5ac9 (00405ac9)
00405aba 89b5b0fbffff    mov     dword ptr [ebp-450h],esi
00405ac0 eb07            jmp     image00400000+0x5ac9 (00405ac9)
00405ac2 668985fcfbffff  mov     word ptr [ebp-404h],ax
00405ac9 8d85fcfbffff    lea     eax,[ebp-404h]
00405acf 8985f0fbffff    mov     dword ptr [ebp-410h],eax
00405ad5 89b5ecfbffff    mov     dword ptr [ebp-414h],esi
00405adb e936040000      jmp     image00400000+0x5f16 (00405f16)
00405ae0 8b03            mov     eax,dword ptr [ebx]
00405ae2 83c304          add     ebx,4
00405ae5 899de4fbffff    mov     dword ptr [ebp-41Ch],ebx
00405aeb 85c0            test    eax,eax
00405aed 743a            je      image00400000+0x5b29 (00405b29)
00405aef 8b4804          mov     ecx,dword ptr [eax+4]
00405af2 85c9            test    ecx,ecx
00405af4 7433            je      image00400000+0x5b29 (00405b29)
00405af6 f785f8fbffff00080000 test dword ptr [ebp-408h],800h
00405b00 0fbf00          movsx   eax,word ptr [eax]
00405b03 898df0fbffff    mov     dword ptr [ebp-410h],ecx
00405b09 7412            je      image00400000+0x5b1d (00405b1d)
00405b0b 99              cdq
00405b0c 2bc2            sub     eax,edx
00405b0e c785d0fbffff01000000 mov dword ptr [ebp-430h],1
00405b18 e9f1030000      jmp     image00400000+0x5f0e (00405f0e)
00405b1d 83a5d0fbffff00  and     dword ptr [ebp-430h],0
00405b24 e9e7030000      jmp     image00400000+0x5f10 (00405f10)
00405b29 a10c004100      mov     eax,dword ptr [image00400000+0x1000c (0041000c)]
00405b2e 8985f0fbffff    mov     dword ptr [ebp-410h],eax
00405b34 50              push    eax
00405b35 e846e3ffff      call    image00400000+0x3e80 (00403e80)
00405b3a 59              pop     ecx
00405b3b e9d0030000      jmp     image00400000+0x5f10 (00405f10)
00405b40 83f870          cmp     eax,70h
00405b43 0f8fe5010000    jg      image00400000+0x5d2e (00405d2e)
00405b49 0f84cd010000    je      image00400000+0x5d1c (00405d1c)
00405b4f 83f865          cmp     eax,65h
00405b52 0f8cbe030000    jl      image00400000+0x5f16 (00405f16)
00405b58 83f867          cmp     eax,67h
00405b5b 0f8ee7fdffff    jle     image00400000+0x5948 (00405948)
00405b61 83f869          cmp     eax,69h
00405b64 746e            je      image00400000+0x5bd4 (00405bd4)
00405b66 83f86e          cmp     eax,6Eh
00405b69 7424            je      image00400000+0x5b8f (00405b8f)
00405b6b 83f86f          cmp     eax,6Fh
00405b6e 0f85a2030000    jne     image00400000+0x5f16 (00405f16)
00405b74 f685f8fbffff80  test    byte ptr [ebp-408h],80h
00405b7b 89b5e0fbffff    mov     dword ptr [ebp-420h],esi
00405b81 7462            je      image00400000+0x5be5 (00405be5)
00405b83 818df8fbffff00020000 or  dword ptr [ebp-408h],200h
00405b8d eb56            jmp     image00400000+0x5be5 (00405be5)
00405b8f 83c304          add     ebx,4
00405b92 899de4fbffff    mov     dword ptr [ebp-41Ch],ebx
00405b98 8b5bfc          mov     ebx,dword ptr [ebx-4]
00405b9b e8a02d0000      call    image00400000+0x8940 (00408940)
00405ba0 85c0            test    eax,eax
00405ba2 0f8478faffff    je      image00400000+0x5620 (00405620)
00405ba8 f685f8fbffff20  test    byte ptr [ebp-408h],20h
00405baf 740c            je      image00400000+0x5bbd (00405bbd)
00405bb1 668b85e8fbffff  mov     ax,word ptr [ebp-418h]
00405bb8 668903          mov     word ptr [ebx],ax
00405bbb eb08            jmp     image00400000+0x5bc5 (00405bc5)
00405bbd 8b85e8fbffff    mov     eax,dword ptr [ebp-418h]
00405bc3 8903            mov     dword ptr [ebx],eax
00405bc5 c785b0fbffff01000000 mov dword ptr [ebp-450h],1
00405bcf e9f7040000      jmp     image00400000+0x60cb (004060cb)
00405bd4 838df8fbffff40  or      dword ptr [ebp-408h],40h
00405bdb c785e0fbffff0a000000 mov dword ptr [ebp-420h],0Ah
00405be5 f785f8fbffff00800000 test dword ptr [ebp-408h],8000h
00405bef 0f8499010000    je      image00400000+0x5d8e (00405d8e)
00405bf5 03de            add     ebx,esi
00405bf7 8b43f8          mov     eax,dword ptr [ebx-8]
00405bfa 8b53fc          mov     edx,dword ptr [ebx-4]
00405bfd e9d5010000      jmp     image00400000+0x5dd7 (00405dd7)
00405c02 7512            jne     image00400000+0x5c16 (00405c16)
00405c04 6683fa67        cmp     dx,67h
00405c08 7557            jne     image00400000+0x5c61 (00405c61)
00405c0a c785f4fbffff01000000 mov dword ptr [ebp-40Ch],1
00405c14 eb4b            jmp     image00400000+0x5c61 (00405c61)
00405c16 3bc8            cmp     ecx,eax
00405c18 7e08            jle     image00400000+0x5c22 (00405c22)
00405c1a 8985f4fbffff    mov     dword ptr [ebp-40Ch],eax
00405c20 8bc8            mov     ecx,eax
00405c22 81f9a3000000    cmp     ecx,0A3h
00405c28 7e37            jle     image00400000+0x5c61 (00405c61)
00405c2a 8db15d010000    lea     esi,[ecx+15Dh]
00405c30 56              push    esi
00405c31 e8d92b0000      call    image00400000+0x880f (0040880f)
00405c36 8b95e0fbffff    mov     edx,dword ptr [ebp-420h]
00405c3c 59              pop     ecx
00405c3d 8985a8fbffff    mov     dword ptr [ebp-458h],eax
00405c43 85c0            test    eax,eax
00405c45 7410            je      image00400000+0x5c57 (00405c57)
00405c47 8985f0fbffff    mov     dword ptr [ebp-410h],eax
00405c4d 89b5ecfbffff    mov     dword ptr [ebp-414h],esi
00405c53 8bf8            mov     edi,eax
00405c55 eb0a            jmp     image00400000+0x5c61 (00405c61)
00405c57 c785f4fbffffa3000000 mov dword ptr [ebp-40Ch],0A3h
00405c61 8b03            mov     eax,dword ptr [ebx]
00405c63 8b35b4d04000    mov     esi,dword ptr [image00400000+0xd0b4 (0040d0b4)]
00405c69 83c308          add     ebx,8
00405c6c 898590fbffff    mov     dword ptr [ebp-470h],eax
00405c72 8b43fc          mov     eax,dword ptr [ebx-4]
00405c75 898594fbffff    mov     dword ptr [ebp-46Ch],eax
00405c7b 8d85b4fbffff    lea     eax,[ebp-44Ch]
00405c81 50              push    eax
00405c82 ffb598fbffff    push    dword ptr [ebp-468h]
00405c88 0fbec2          movsx   eax,dl
00405c8b ffb5f4fbffff    push    dword ptr [ebp-40Ch]
00405c91 899de4fbffff    mov     dword ptr [ebp-41Ch],ebx
00405c97 50              push    eax
00405c98 ffb5ecfbffff    push    dword ptr [ebp-414h]
00405c9e 8d8590fbffff    lea     eax,[ebp-470h]
00405ca4 57              push    edi
00405ca5 50              push    eax
00405ca6 ff35f80b4100    push    dword ptr [image00400000+0x10bf8 (00410bf8)]
00405cac ffd6            call    esi
00405cae ffd0            call    eax
00405cb0 8b9df8fbffff    mov     ebx,dword ptr [ebp-408h]
00405cb6 83c41c          add     esp,1Ch
00405cb9 81e380000000    and     ebx,80h
00405cbf 741d            je      image00400000+0x5cde (00405cde)
00405cc1 83bdf4fbffff00  cmp     dword ptr [ebp-40Ch],0
00405cc8 7514            jne     image00400000+0x5cde (00405cde)
00405cca 8d85b4fbffff    lea     eax,[ebp-44Ch]
00405cd0 50              push    eax
00405cd1 57              push    edi
00405cd2 ff35040c4100    push    dword ptr [image00400000+0x10c04 (00410c04)]
00405cd8 ffd6            call    esi
00405cda ffd0            call    eax
00405cdc 59              pop     ecx
00405cdd 59              pop     ecx
00405cde 6683bde0fbffff67 cmp     word ptr [ebp-420h],67h
00405ce6 7518            jne     image00400000+0x5d00 (00405d00)
00405ce8 85db            test    ebx,ebx
00405cea 7514            jne     image00400000+0x5d00 (00405d00)
00405cec 8d85b4fbffff    lea     eax,[ebp-44Ch]
00405cf2 50              push    eax
00405cf3 57              push    edi
00405cf4 ff35000c4100    push    dword ptr [image00400000+0x10c00 (00410c00)]
00405cfa ffd6            call    esi
00405cfc ffd0            call    eax
00405cfe 59              pop     ecx
00405cff 59              pop     ecx
00405d00 803f2d          cmp     byte ptr [edi],2Dh
00405d03 7511            jne     image00400000+0x5d16 (00405d16)
00405d05 818df8fbffff00010000 or  dword ptr [ebp-408h],100h
00405d0f 47              inc     edi
00405d10 89bdf0fbffff    mov     dword ptr [ebp-410h],edi
00405d16 57              push    edi
00405d17 e919feffff      jmp     image00400000+0x5b35 (00405b35)
00405d1c 89b5f4fbffff    mov     dword ptr [ebp-40Ch],esi
00405d22 c785acfbffff07000000 mov dword ptr [ebp-454h],7
00405d2c eb24            jmp     image00400000+0x5d52 (00405d52)
00405d2e 83e873          sub     eax,73h
00405d31 0f847bfcffff    je      image00400000+0x59b2 (004059b2)
00405d37 2bc1            sub     eax,ecx
00405d39 0f849cfeffff    je      image00400000+0x5bdb (00405bdb)
00405d3f 83e803          sub     eax,3
00405d42 0f85ce010000    jne     image00400000+0x5f16 (00405f16)
00405d48 c785acfbffff27000000 mov dword ptr [ebp-454h],27h
00405d52 f685f8fbffff80  test    byte ptr [ebp-408h],80h
00405d59 c785e0fbffff10000000 mov dword ptr [ebp-420h],10h
00405d63 0f847cfeffff    je      image00400000+0x5be5 (00405be5)
00405d69 6a30            push    30h
00405d6b 58              pop     eax
00405d6c 668985ccfbffff  mov     word ptr [ebp-434h],ax
00405d73 8b85acfbffff    mov     eax,dword ptr [ebp-454h]
00405d79 83c051          add     eax,51h
00405d7c 668985cefbffff  mov     word ptr [ebp-432h],ax
00405d83 898ddcfbffff    mov     dword ptr [ebp-424h],ecx
00405d89 e957feffff      jmp     image00400000+0x5be5 (00405be5)
00405d8e f785f8fbffff00100000 test dword ptr [ebp-408h],1000h
00405d98 0f8557feffff    jne     image00400000+0x5bf5 (00405bf5)
00405d9e 83c304          add     ebx,4
00405da1 f685f8fbffff20  test    byte ptr [ebp-408h],20h
00405da8 741c            je      image00400000+0x5dc6 (00405dc6)
00405daa f685f8fbffff40  test    byte ptr [ebp-408h],40h
00405db1 899de4fbffff    mov     dword ptr [ebp-41Ch],ebx
00405db7 7406            je      image00400000+0x5dbf (00405dbf)
00405db9 0fbf43fc        movsx   eax,word ptr [ebx-4]
00405dbd eb04            jmp     image00400000+0x5dc3 (00405dc3)
00405dbf 0fb743fc        movzx   eax,word ptr [ebx-4]
00405dc3 99              cdq
00405dc4 eb17            jmp     image00400000+0x5ddd (00405ddd)
00405dc6 f685f8fbffff40  test    byte ptr [ebp-408h],40h
00405dcd 8b43fc          mov     eax,dword ptr [ebx-4]
00405dd0 7403            je      image00400000+0x5dd5 (00405dd5)
00405dd2 99              cdq
00405dd3 eb02            jmp     image00400000+0x5dd7 (00405dd7)
00405dd5 33d2            xor     edx,edx
00405dd7 899de4fbffff    mov     dword ptr [ebp-41Ch],ebx
00405ddd f685f8fbffff40  test    byte ptr [ebp-408h],40h
00405de4 741b            je      image00400000+0x5e01 (00405e01)
00405de6 85d2            test    edx,edx
00405de8 7f17            jg      image00400000+0x5e01 (00405e01)
00405dea 7c04            jl      image00400000+0x5df0 (00405df0)
00405dec 85c0            test    eax,eax
00405dee 7311            jae     image00400000+0x5e01 (00405e01)
00405df0 f7d8            neg     eax
00405df2 83d200          adc     edx,0
00405df5 f7da            neg     edx
00405df7 818df8fbffff00010000 or  dword ptr [ebp-408h],100h
00405e01 f785f8fbffff00900000 test dword ptr [ebp-408h],9000h
00405e0b 8bfa            mov     edi,edx
00405e0d 8bd8            mov     ebx,eax
00405e0f 7502            jne     image00400000+0x5e13 (00405e13)
00405e11 33ff            xor     edi,edi
00405e13 83bdf4fbffff00  cmp     dword ptr [ebp-40Ch],0
00405e1a 7d0c            jge     image00400000+0x5e28 (00405e28)
00405e1c c785f4fbffff01000000 mov dword ptr [ebp-40Ch],1
00405e26 eb1a            jmp     image00400000+0x5e42 (00405e42)
00405e28 83a5f8fbfffff7  and     dword ptr [ebp-408h],0FFFFFFF7h
00405e2f b800020000      mov     eax,200h
00405e34 3985f4fbffff    cmp     dword ptr [ebp-40Ch],eax
00405e3a 7e06            jle     image00400000+0x5e42 (00405e42)
00405e3c 8985f4fbffff    mov     dword ptr [ebp-40Ch],eax
00405e42 8bc3            mov     eax,ebx
00405e44 0bc7            or      eax,edi
00405e46 7506            jne     image00400000+0x5e4e (00405e4e)
00405e48 2185dcfbffff    and     dword ptr [ebp-424h],eax
00405e4e 8db5fbfdffff    lea     esi,[ebp-205h]
00405e54 8b85f4fbffff    mov     eax,dword ptr [ebp-40Ch]
00405e5a ff8df4fbffff    dec     dword ptr [ebp-40Ch]
00405e60 85c0            test    eax,eax
00405e62 7f06            jg      image00400000+0x5e6a (00405e6a)
00405e64 8bc3            mov     eax,ebx
00405e66 0bc7            or      eax,edi
00405e68 742d            je      image00400000+0x5e97 (00405e97)
00405e6a 8b85e0fbffff    mov     eax,dword ptr [ebp-420h]
00405e70 99              cdq
00405e71 52              push    edx
00405e72 50              push    eax
00405e73 57              push    edi
00405e74 53              push    ebx
00405e75 e8a62c0000      call    image00400000+0x8b20 (00408b20)
00405e7a 83c130          add     ecx,30h
00405e7d 899d8cfbffff    mov     dword ptr [ebp-474h],ebx
00405e83 8bd8            mov     ebx,eax
00405e85 8bfa            mov     edi,edx
00405e87 83f939          cmp     ecx,39h
00405e8a 7e06            jle     image00400000+0x5e92 (00405e92)
00405e8c 038dacfbffff    add     ecx,dword ptr [ebp-454h]
00405e92 880e            mov     byte ptr [esi],cl
00405e94 4e              dec     esi
00405e95 ebbd            jmp     image00400000+0x5e54 (00405e54)
00405e97 8d85fbfdffff    lea     eax,[ebp-205h]
00405e9d 2bc6            sub     eax,esi
00405e9f 46              inc     esi
00405ea0 f785f8fbffff00020000 test dword ptr [ebp-408h],200h
00405eaa 8985ecfbffff    mov     dword ptr [ebp-414h],eax
00405eb0 89b5f0fbffff    mov     dword ptr [ebp-410h],esi
00405eb6 745e            je      image00400000+0x5f16 (00405f16)
00405eb8 85c0            test    eax,eax
00405eba 7407            je      image00400000+0x5ec3 (00405ec3)
00405ebc 8bc6            mov     eax,esi
00405ebe 803830          cmp     byte ptr [eax],30h
00405ec1 7453            je      image00400000+0x5f16 (00405f16)
00405ec3 ff8df0fbffff    dec     dword ptr [ebp-410h]
00405ec9 8b85f0fbffff    mov     eax,dword ptr [ebp-410h]
00405ecf ff85ecfbffff    inc     dword ptr [ebp-414h]
00405ed5 c60030          mov     byte ptr [eax],30h
00405ed8 eb3c            jmp     image00400000+0x5f16 (00405f16)
00405eda 85db            test    ebx,ebx
00405edc 750b            jne     image00400000+0x5ee9 (00405ee9)
00405ede a110004100      mov     eax,dword ptr [image00400000+0x10010 (00410010)]
00405ee3 8985f0fbffff    mov     dword ptr [ebp-410h],eax
00405ee9 8b85f0fbffff    mov     eax,dword ptr [ebp-410h]
00405eef c785d0fbffff01000000 mov dword ptr [ebp-430h],1
00405ef9 eb09            jmp     image00400000+0x5f04 (00405f04)
00405efb 4f              dec     edi
00405efc 66833800        cmp     word ptr [eax],0
00405f00 7406            je      image00400000+0x5f08 (00405f08)
00405f02 03c1            add     eax,ecx
00405f04 85ff            test    edi,edi
00405f06 75f3            jne     image00400000+0x5efb (00405efb)
00405f08 2b85f0fbffff    sub     eax,dword ptr [ebp-410h]
00405f0e d1f8            sar     eax,1
00405f10 8985ecfbffff    mov     dword ptr [ebp-414h],eax
00405f16 83bdb0fbffff00  cmp     dword ptr [ebp-450h],0
00405f1d 0f85a8010000    jne     image00400000+0x60cb (004060cb)
00405f23 8b85f8fbffff    mov     eax,dword ptr [ebp-408h]
00405f29 a840            test    al,40h
00405f2b 742b            je      image00400000+0x5f58 (00405f58)
00405f2d a900010000      test    eax,100h
00405f32 7404            je      image00400000+0x5f38 (00405f38)
00405f34 6a2d            push    2Dh
00405f36 eb0e            jmp     image00400000+0x5f46 (00405f46)
00405f38 a801            test    al,1
00405f3a 7404            je      image00400000+0x5f40 (00405f40)
00405f3c 6a2b            push    2Bh
00405f3e eb06            jmp     image00400000+0x5f46 (00405f46)
00405f40 a802            test    al,2
00405f42 7414            je      image00400000+0x5f58 (00405f58)
00405f44 6a20            push    20h
00405f46 59              pop     ecx
00405f47 66898dccfbffff  mov     word ptr [ebp-434h],cx
00405f4e c785dcfbffff01000000 mov dword ptr [ebp-424h],1
00405f58 8bbdd8fbffff    mov     edi,dword ptr [ebp-428h]
00405f5e 2bbdecfbffff    sub     edi,dword ptr [ebp-414h]
00405f64 2bbddcfbffff    sub     edi,dword ptr [ebp-424h]
00405f6a 89bde0fbffff    mov     dword ptr [ebp-420h],edi
00405f70 a80c            test    al,0Ch
00405f72 7524            jne     image00400000+0x5f98 (00405f98)
00405f74 eb1e            jmp     image00400000+0x5f94 (00405f94)
00405f76 8b85d4fbffff    mov     eax,dword ptr [ebp-42Ch]
00405f7c 6a20            push    20h
00405f7e 8db5e8fbffff    lea     esi,[ebp-418h]
00405f84 4f              dec     edi
00405f85 e88af5ffff      call    image00400000+0x5514 (00405514)
00405f8a 83bde8fbffffff  cmp     dword ptr [ebp-418h],0FFFFFFFFh
00405f91 59              pop     ecx
00405f92 7404            je      image00400000+0x5f98 (00405f98)
00405f94 85ff            test    edi,edi
00405f96 7fde            jg      image00400000+0x5f76 (00405f76)
00405f98 ffb5dcfbffff    push    dword ptr [ebp-424h]
00405f9e 8bbd9cfbffff    mov     edi,dword ptr [ebp-464h]
00405fa4 8b9dd4fbffff    mov     ebx,dword ptr [ebp-42Ch]
00405faa 8d85ccfbffff    lea     eax,[ebp-434h]
00405fb0 50              push    eax
00405fb1 8d85e8fbffff    lea     eax,[ebp-418h]
00405fb7 e887f5ffff      call    image00400000+0x5543 (00405543)
00405fbc f685f8fbffff08  test    byte ptr [ebp-408h],8
00405fc3 59              pop     ecx
00405fc4 59              pop     ecx
00405fc5 742f            je      image00400000+0x5ff6 (00405ff6)
00405fc7 f685f8fbffff04  test    byte ptr [ebp-408h],4
00405fce 7526            jne     image00400000+0x5ff6 (00405ff6)
00405fd0 8bbde0fbffff    mov     edi,dword ptr [ebp-420h]
00405fd6 eb1a            jmp     image00400000+0x5ff2 (00405ff2)
00405fd8 6a30            push    30h
00405fda 8db5e8fbffff    lea     esi,[ebp-418h]
00405fe0 8bc3            mov     eax,ebx
00405fe2 4f              dec     edi
00405fe3 e82cf5ffff      call    image00400000+0x5514 (00405514)
00405fe8 83bde8fbffffff  cmp     dword ptr [ebp-418h],0FFFFFFFFh
00405fef 59              pop     ecx
00405ff0 7404            je      image00400000+0x5ff6 (00405ff6)
00405ff2 85ff            test    edi,edi
00405ff4 7fe2            jg      image00400000+0x5fd8 (00405fd8)
00405ff6 83bdd0fbffff00  cmp     dword ptr [ebp-430h],0
00405ffd 756b            jne     image00400000+0x606a (0040606a)
00405fff 8b9decfbffff    mov     ebx,dword ptr [ebp-414h]
00406005 85db            test    ebx,ebx
00406007 7e61            jle     image00400000+0x606a (0040606a)
00406009 8bbdf0fbffff    mov     edi,dword ptr [ebp-410h]
0040600f 8d85b4fbffff    lea     eax,[ebp-44Ch]
00406015 50              push    eax
00406016 8b85b4fbffff    mov     eax,dword ptr [ebp-44Ch]
0040601c ffb0ac000000    push    dword ptr [eax+0ACh]
00406022 8d85a4fbffff    lea     eax,[ebp-45Ch]
00406028 57              push    edi
00406029 50              push    eax
0040602a 4b              dec     ebx
0040602b e8fa320000      call    image00400000+0x932a (0040932a)
00406030 83c410          add     esp,10h
00406033 89858cfbffff    mov     dword ptr [ebp-474h],eax
00406039 85c0            test    eax,eax
0040603b 7e24            jle     image00400000+0x6061 (00406061)
0040603d ffb5a4fbffff    push    dword ptr [ebp-45Ch]
00406043 8b85d4fbffff    mov     eax,dword ptr [ebp-42Ch]
00406049 8db5e8fbffff    lea     esi,[ebp-418h]
0040604f e8c0f4ffff      call    image00400000+0x5514 (00405514)
00406054 03bd8cfbffff    add     edi,dword ptr [ebp-474h]
0040605a 59              pop     ecx
0040605b 85db            test    ebx,ebx
0040605d 7fb0            jg      image00400000+0x600f (0040600f)
0040605f eb2e            jmp     image00400000+0x608f (0040608f)
00406061 838de8fbffffff  or      dword ptr [ebp-418h],0FFFFFFFFh
00406068 eb25            jmp     image00400000+0x608f (0040608f)
0040606a ffb5ecfbffff    push    dword ptr [ebp-414h]
00406070 8bbd9cfbffff    mov     edi,dword ptr [ebp-464h]
00406076 ffb5f0fbffff    push    dword ptr [ebp-410h]
0040607c 8b9dd4fbffff    mov     ebx,dword ptr [ebp-42Ch]
00406082 8d85e8fbffff    lea     eax,[ebp-418h]
00406088 e8b6f4ffff      call    image00400000+0x5543 (00405543)
0040608d 59              pop     ecx
0040608e 59              pop     ecx
0040608f 83bde8fbffff00  cmp     dword ptr [ebp-418h],0
00406096 7c33            jl      image00400000+0x60cb (004060cb)
00406098 f685f8fbffff04  test    byte ptr [ebp-408h],4
0040609f 742a            je      image00400000+0x60cb (004060cb)
004060a1 8bbde0fbffff    mov     edi,dword ptr [ebp-420h]
004060a7 eb1e            jmp     image00400000+0x60c7 (004060c7)
004060a9 8b85d4fbffff    mov     eax,dword ptr [ebp-42Ch]
004060af 6a20            push    20h
004060b1 8db5e8fbffff    lea     esi,[ebp-418h]
004060b7 4f              dec     edi
004060b8 e857f4ffff      call    image00400000+0x5514 (00405514)
004060bd 83bde8fbffffff  cmp     dword ptr [ebp-418h],0FFFFFFFFh
004060c4 59              pop     ecx
004060c5 7404            je      image00400000+0x60cb (004060cb)
004060c7 85ff            test    edi,edi
004060c9 7fde            jg      image00400000+0x60a9 (004060a9)
004060cb 83bda8fbffff00  cmp     dword ptr [ebp-458h],0
004060d2 7413            je      image00400000+0x60e7 (004060e7)
004060d4 ffb5a8fbffff    push    dword ptr [ebp-458h]
004060da e83fc5ffff      call    image00400000+0x261e (0040261e)
004060df 83a5a8fbffff00  and     dword ptr [ebp-458h],0
004060e6 59              pop     ecx
004060e7 8bbda0fbffff    mov     edi,dword ptr [ebp-460h]
004060ed 8b9de4fbffff    mov     ebx,dword ptr [ebp-41Ch]
004060f3 0fb707          movzx   eax,word ptr [edi]
004060f6 33f6            xor     esi,esi
004060f8 8985e0fbffff    mov     dword ptr [ebp-420h],eax
004060fe 663bc6          cmp     ax,si
00406101 7407            je      image00400000+0x610a (0040610a)
00406103 8bd0            mov     edx,eax
00406105 e971f5ffff      jmp     image00400000+0x567b (0040567b)
0040610a 39b5c4fbffff    cmp     dword ptr [ebp-43Ch],esi
00406110 740d            je      image00400000+0x611f (0040611f)
00406112 83bdc4fbffff07  cmp     dword ptr [ebp-43Ch],7
00406119 0f8501f5ffff    jne     image00400000+0x5620 (00405620)
0040611f 80bdc0fbffff00  cmp     byte ptr [ebp-440h],0
00406126 740a            je      image00400000+0x6132 (00406132)
00406128 8b85bcfbffff    mov     eax,dword ptr [ebp-444h]
0040612e 836070fd        and     dword ptr [eax+70h],0FFFFFFFDh
00406132 8b85e8fbffff    mov     eax,dword ptr [ebp-418h]
00406138 8b4dfc          mov     ecx,dword ptr [ebp-4]
0040613b 5f              pop     edi
0040613c 5e              pop     esi
0040613d 33cd            xor     ecx,ebp
0040613f 5b              pop     ebx
00406140 e8b6c3ffff      call    image00400000+0x24fb (004024fb)
00406145 c9              leave
00406146 c3              ret
00406147 8d4900          lea     ecx,[ecx]
0040614a e158            loope   image00400000+0x61a4 (004061a4)
0040614c 40              inc     eax
0040614d 00e1            add     cl,ah
0040614f 56              push    esi
00406150 40              inc     eax
00406151 0013            add     byte ptr [ebx],dl
00406153 57              push    edi
00406154 40              inc     eax
00406155 006e57          add     byte ptr [esi+57h],ch
00406158 40              inc     eax
00406159 00ba574000c6    add     byte ptr [edx-39FFBFA9h],bh
0040615f 57              push    edi
00406160 40              inc     eax
00406161 000c58          add     byte ptr [eax+ebx*2],cl
00406164 40              inc     eax
00406165 0003            add     byte ptr [ebx],al
00406167 59              pop     ecx
00406168 40              inc     eax
00406169 006a00          add     byte ptr [edx],ch
0040616c ff15b8d04000    call    dword ptr [image00400000+0xd0b8 (0040d0b8)]
00406172 c3              ret
00406173 ff15d4d04000    call    dword ptr [image00400000+0xd0d4 (0040d0d4)]
00406179 c20400          ret     4
0040617c 8bff            mov     edi,edi
0040617e 56              push    esi
0040617f ff3594014100    push    dword ptr [image00400000+0x10194 (00410194)]
00406185 ff15d8d04000    call    dword ptr [image00400000+0xd0d8 (0040d0d8)]
0040618b 8bf0            mov     esi,eax
0040618d 85f6            test    esi,esi
0040618f 751b            jne     image00400000+0x61ac (004061ac)
00406191 ff3584184100    push    dword ptr [image00400000+0x11884 (00411884)]
00406197 ff15b4d04000    call    dword ptr [image00400000+0xd0b4 (0040d0b4)]
0040619d 8bf0            mov     esi,eax
0040619f 56              push    esi
004061a0 ff3594014100    push    dword ptr [image00400000+0x10194 (00410194)]
004061a6 ff15dcd04000    call    dword ptr [image00400000+0xd0dc (0040d0dc)]
004061ac 8bc6            mov     eax,esi
004061ae 5e              pop     esi
004061af c3              ret
004061b0 a190014100      mov     eax,dword ptr [image00400000+0x10190 (00410190)]
004061b5 83f8ff          cmp     eax,0FFFFFFFFh
004061b8 7416            je      image00400000+0x61d0 (004061d0)
004061ba 50              push    eax
004061bb ff358c184100    push    dword ptr [image00400000+0x1188c (0041188c)]
004061c1 ff15b4d04000    call    dword ptr [image00400000+0xd0b4 (0040d0b4)]
004061c7 ffd0            call    eax
004061c9 830d90014100ff  or      dword ptr [image00400000+0x10190 (00410190)],0FFFFFFFFh
004061d0 a194014100      mov     eax,dword ptr [image00400000+0x10194 (00410194)]
004061d5 83f8ff          cmp     eax,0FFFFFFFFh
004061d8 740e            je      image00400000+0x61e8 (004061e8)
004061da 50              push    eax
004061db ff15e0d04000    call    dword ptr [image00400000+0xd0e0 (0040d0e0)]
004061e1 830d94014100ff  or      dword ptr [image00400000+0x10194 (00410194)],0FFFFFFFFh
004061e8 e9f1320000      jmp     image00400000+0x94de (004094de)
004061ed 6a08            push    8
004061ef 6800ef4000      push    offset image00400000+0xef00 (0040ef00)
004061f4 e8a7170000      call    image00400000+0x79a0 (004079a0)
004061f9 6858dc4000      push    offset image00400000+0xdc58 (0040dc58)
004061fe ff15c0d04000    call    dword ptr [image00400000+0xd0c0 (0040d0c0)]
00406204 8b7508          mov     esi,dword ptr [ebp+8]
00406207 c7465c70e04000  mov     dword ptr [esi+5Ch],offset image00400000+0xe070 (0040e070)
0040620e 83660800        and     dword ptr [esi+8],0
00406212 33ff            xor     edi,edi
00406214 47              inc     edi
00406215 897e14          mov     dword ptr [esi+14h],edi
00406218 897e70          mov     dword ptr [esi+70h],edi
0040621b c686c800000043  mov     byte ptr [esi+0C8h],43h
00406222 c6864b01000043  mov     byte ptr [esi+14Bh],43h
00406229 c7466898014100  mov     dword ptr [esi+68h],offset image00400000+0x10198 (00410198)
00406230 6a0d            push    0Dh
00406232 e8d7330000      call    image00400000+0x960e (0040960e)
00406237 59              pop     ecx
00406238 8365fc00        and     dword ptr [ebp-4],0
0040623c ff7668          push    dword ptr [esi+68h]
0040623f ff15e4d04000    call    dword ptr [image00400000+0xd0e4 (0040d0e4)]
00406245 c745fcfeffffff  mov     dword ptr [ebp-4],0FFFFFFFEh
0040624c e83e000000      call    image00400000+0x628f (0040628f)
00406251 6a0c            push    0Ch
00406253 e8b6330000      call    image00400000+0x960e (0040960e)
00406258 59              pop     ecx
00406259 897dfc          mov     dword ptr [ebp-4],edi
0040625c 8b450c          mov     eax,dword ptr [ebp+0Ch]
0040625f 89466c          mov     dword ptr [esi+6Ch],eax
00406262 85c0            test    eax,eax
00406264 7508            jne     image00400000+0x626e (0040626e)
00406266 a100094100      mov     eax,dword ptr [image00400000+0x10900 (00410900)]
0040626b 89466c          mov     dword ptr [esi+6Ch],eax
0040626e ff766c          push    dword ptr [esi+6Ch]
00406271 e84c0a0000      call    image00400000+0x6cc2 (00406cc2)
00406276 59              pop     ecx
00406277 c745fcfeffffff  mov     dword ptr [ebp-4],0FFFFFFFEh
0040627e e815000000      call    image00400000+0x6298 (00406298)
00406283 e85d170000      call    image00400000+0x79e5 (004079e5)
00406288 c3              ret
00406289 33ff            xor     edi,edi
0040628b 47              inc     edi
0040628c 8b7508          mov     esi,dword ptr [ebp+8]
0040628f 6a0d            push    0Dh
00406291 e89f320000      call    image00400000+0x9535 (00409535)
00406296 59              pop     ecx
00406297 c3              ret
00406298 6a0c            push    0Ch
0040629a e896320000      call    image00400000+0x9535 (00409535)
0040629f 59              pop     ecx
004062a0 c3              ret
004062a1 8bff            mov     edi,edi
004062a3 56              push    esi
004062a4 57              push    edi
004062a5 ff1584d04000    call    dword ptr [image00400000+0xd084 (0040d084)]
004062ab ff3590014100    push    dword ptr [image00400000+0x10190 (00410190)]
004062b1 8bf8            mov     edi,eax
004062b3 e8c4feffff      call    image00400000+0x617c (0040617c)
004062b8 ffd0            call    eax
004062ba 8bf0            mov     esi,eax
004062bc 85f6            test    esi,esi
004062be 754e            jne     image00400000+0x630e (0040630e)
004062c0 6814020000      push    214h
004062c5 6a01            push    1
004062c7 e888250000      call    image00400000+0x8854 (00408854)
004062cc 8bf0            mov     esi,eax
004062ce 59              pop     ecx
004062cf 59              pop     ecx
004062d0 85f6            test    esi,esi
004062d2 743a            je      image00400000+0x630e (0040630e)
004062d4 56              push    esi
004062d5 ff3590014100    push    dword ptr [image00400000+0x10190 (00410190)]
004062db ff3588184100    push    dword ptr [image00400000+0x11888 (00411888)]
004062e1 ff15b4d04000    call    dword ptr [image00400000+0xd0b4 (0040d0b4)]
004062e7 ffd0            call    eax
004062e9 85c0            test    eax,eax
004062eb 7418            je      image00400000+0x6305 (00406305)
004062ed 6a00            push    0
004062ef 56              push    esi
004062f0 e8f8feffff      call    image00400000+0x61ed (004061ed)
004062f5 59              pop     ecx
004062f6 59              pop     ecx
004062f7 ff15ecd04000    call    dword ptr [image00400000+0xd0ec (0040d0ec)]
004062fd 834e04ff        or      dword ptr [esi+4],0FFFFFFFFh
00406301 8906            mov     dword ptr [esi],eax
00406303 eb09            jmp     image00400000+0x630e (0040630e)
00406305 56              push    esi
00406306 e813c3ffff      call    image00400000+0x261e (0040261e)
0040630b 59              pop     ecx
0040630c 33f6            xor     esi,esi
0040630e 57              push    edi
0040630f ff15e8d04000    call    dword ptr [image00400000+0xd0e8 (0040d0e8)]
00406315 5f              pop     edi
00406316 8bc6            mov     eax,esi
00406318 5e              pop     esi
00406319 c3              ret
0040631a 8bff            mov     edi,edi
0040631c 56              push    esi
0040631d e87fffffff      call    image00400000+0x62a1 (004062a1)
00406322 8bf0            mov     esi,eax
00406324 85f6            test    esi,esi
00406326 7508            jne     image00400000+0x6330 (00406330)
00406328 6a10            push    10h
0040632a e882efffff      call    image00400000+0x52b1 (004052b1)
0040632f 59              pop     ecx
00406330 8bc6            mov     eax,esi
00406332 5e              pop     esi
00406333 c3              ret
00406334 6a08            push    8
00406336 6828ef4000      push    offset image00400000+0xef28 (0040ef28)
0040633b e860160000      call    image00400000+0x79a0 (004079a0)
00406340 8b7508          mov     esi,dword ptr [ebp+8]
00406343 85f6            test    esi,esi
00406345 0f84f8000000    je      image00400000+0x6443 (00406443)
0040634b 8b4624          mov     eax,dword ptr [esi+24h]
0040634e 85c0            test    eax,eax
00406350 7407            je      image00400000+0x6359 (00406359)
00406352 50              push    eax
00406353 e8c6c2ffff      call    image00400000+0x261e (0040261e)
00406358 59              pop     ecx
00406359 8b462c          mov     eax,dword ptr [esi+2Ch]
0040635c 85c0            test    eax,eax
0040635e 7407            je      image00400000+0x6367 (00406367)
00406360 50              push    eax
00406361 e8b8c2ffff      call    image00400000+0x261e (0040261e)
00406366 59              pop     ecx
00406367 8b4634          mov     eax,dword ptr [esi+34h]
0040636a 85c0            test    eax,eax
0040636c 7407            je      image00400000+0x6375 (00406375)
0040636e 50              push    eax
0040636f e8aac2ffff      call    image00400000+0x261e (0040261e)
00406374 59              pop     ecx
00406375 8b463c          mov     eax,dword ptr [esi+3Ch]
00406378 85c0            test    eax,eax
0040637a 7407            je      image00400000+0x6383 (00406383)
0040637c 50              push    eax
0040637d e89cc2ffff      call    image00400000+0x261e (0040261e)
00406382 59              pop     ecx
00406383 8b4640          mov     eax,dword ptr [esi+40h]
00406386 85c0            test    eax,eax
00406388 7407            je      image00400000+0x6391 (00406391)
0040638a 50              push    eax
0040638b e88ec2ffff      call    image00400000+0x261e (0040261e)
00406390 59              pop     ecx
00406391 8b4644          mov     eax,dword ptr [esi+44h]
00406394 85c0            test    eax,eax
00406396 7407            je      image00400000+0x639f (0040639f)
00406398 50              push    eax
00406399 e880c2ffff      call    image00400000+0x261e (0040261e)
0040639e 59              pop     ecx
0040639f 8b4648          mov     eax,dword ptr [esi+48h]
004063a2 85c0            test    eax,eax
004063a4 7407            je      image00400000+0x63ad (004063ad)
004063a6 50              push    eax
004063a7 e872c2ffff      call    image00400000+0x261e (0040261e)
004063ac 59              pop     ecx
004063ad 8b465c          mov     eax,dword ptr [esi+5Ch]
004063b0 3d70e04000      cmp     eax,offset image00400000+0xe070 (0040e070)
004063b5 7407            je      image00400000+0x63be (004063be)
004063b7 50              push    eax
004063b8 e861c2ffff      call    image00400000+0x261e (0040261e)
004063bd 59              pop     ecx
004063be 6a0d            push    0Dh
004063c0 e849320000      call    image00400000+0x960e (0040960e)
004063c5 59              pop     ecx
004063c6 8365fc00        and     dword ptr [ebp-4],0
004063ca 8b7e68          mov     edi,dword ptr [esi+68h]
004063cd 85ff            test    edi,edi
004063cf 741a            je      image00400000+0x63eb (004063eb)
004063d1 57              push    edi
004063d2 ff15f0d04000    call    dword ptr [image00400000+0xd0f0 (0040d0f0)]
004063d8 85c0            test    eax,eax
004063da 750f            jne     image00400000+0x63eb (004063eb)
004063dc 81ff98014100    cmp     edi,offset image00400000+0x10198 (00410198)
004063e2 7407            je      image00400000+0x63eb (004063eb)
004063e4 57              push    edi
004063e5 e834c2ffff      call    image00400000+0x261e (0040261e)
004063ea 59              pop     ecx
004063eb c745fcfeffffff  mov     dword ptr [ebp-4],0FFFFFFFEh
004063f2 e857000000      call    image00400000+0x644e (0040644e)
004063f7 6a0c            push    0Ch
004063f9 e810320000      call    image00400000+0x960e (0040960e)
004063fe 59              pop     ecx
004063ff c745fc01000000  mov     dword ptr [ebp-4],1
00406406 8b7e6c          mov     edi,dword ptr [esi+6Ch]
00406409 85ff            test    edi,edi
0040640b 7423            je      image00400000+0x6430 (00406430)
0040640d 57              push    edi
0040640e e83e090000      call    image00400000+0x6d51 (00406d51)
00406413 59              pop     ecx
00406414 3b3d00094100    cmp     edi,dword ptr [image00400000+0x10900 (00410900)]
0040641a 7414            je      image00400000+0x6430 (00406430)
0040641c 81ff28084100    cmp     edi,offset image00400000+0x10828 (00410828)
00406422 740c            je      image00400000+0x6430 (00406430)
00406424 833f00          cmp     dword ptr [edi],0
00406427 7507            jne     image00400000+0x6430 (00406430)
00406429 57              push    edi
0040642a e8bb090000      call    image00400000+0x6dea (00406dea)
0040642f 59              pop     ecx
00406430 c745fcfeffffff  mov     dword ptr [ebp-4],0FFFFFFFEh
00406437 e81e000000      call    image00400000+0x645a (0040645a)
0040643c 56              push    esi
0040643d e8dcc1ffff      call    image00400000+0x261e (0040261e)
00406442 59              pop     ecx
00406443 e89d150000      call    image00400000+0x79e5 (004079e5)
00406448 c20400          ret     4
0040644b 8b7508          mov     esi,dword ptr [ebp+8]
0040644e 6a0d            push    0Dh
00406450 e8e0300000      call    image00400000+0x9535 (00409535)
00406455 59              pop     ecx
00406456 c3              ret
00406457 8b7508          mov     esi,dword ptr [ebp+8]
0040645a 6a0c            push    0Ch
0040645c e8d4300000      call    image00400000+0x9535 (00409535)
00406461 59              pop     ecx
00406462 c3              ret
00406463 8bff            mov     edi,edi
00406465 57              push    edi
00406466 6858dc4000      push    offset image00400000+0xdc58 (0040dc58)
0040646b ff15c0d04000    call    dword ptr [image00400000+0xd0c0 (0040d0c0)]
00406471 8bf8            mov     edi,eax
00406473 85ff            test    edi,edi
00406475 7509            jne     image00400000+0x6480 (00406480)
00406477 e834fdffff      call    image00400000+0x61b0 (004061b0)
0040647c 33c0            xor     eax,eax
0040647e 5f              pop     edi
0040647f c3              ret
00406480 56              push    esi
00406481 8b3570d04000    mov     esi,dword ptr [image00400000+0xd070 (0040d070)]
00406487 6894dc4000      push    offset image00400000+0xdc94 (0040dc94)
0040648c 57              push    edi
0040648d ffd6            call    esi
0040648f 6888dc4000      push    offset image00400000+0xdc88 (0040dc88)
00406494 57              push    edi
00406495 a380184100      mov     dword ptr [image00400000+0x11880 (00411880)],eax
0040649a ffd6            call    esi
0040649c 687cdc4000      push    offset image00400000+0xdc7c (0040dc7c)
004064a1 57              push    edi
004064a2 a384184100      mov     dword ptr [image00400000+0x11884 (00411884)],eax
004064a7 ffd6            call    esi
004064a9 6874dc4000      push    offset image00400000+0xdc74 (0040dc74)
004064ae 57              push    edi
004064af a388184100      mov     dword ptr [image00400000+0x11888 (00411888)],eax
004064b4 ffd6            call    esi
004064b6 833d8018410000  cmp     dword ptr [image00400000+0x11880 (00411880)],0
004064bd 8b35dcd04000    mov     esi,dword ptr [image00400000+0xd0dc (0040d0dc)]
004064c3 a38c184100      mov     dword ptr [image00400000+0x1188c (0041188c)],eax
004064c8 7416            je      image00400000+0x64e0 (004064e0)
004064ca 833d8418410000  cmp     dword ptr [image00400000+0x11884 (00411884)],0
004064d1 740d            je      image00400000+0x64e0 (004064e0)
004064d3 833d8818410000  cmp     dword ptr [image00400000+0x11888 (00411888)],0
004064da 7404            je      image00400000+0x64e0 (004064e0)
004064dc 85c0            test    eax,eax
004064de 7524            jne     image00400000+0x6504 (00406504)
004064e0 a1d8d04000      mov     eax,dword ptr [image00400000+0xd0d8 (0040d0d8)]
004064e5 a384184100      mov     dword ptr [image00400000+0x11884 (00411884)],eax
004064ea a1e0d04000      mov     eax,dword ptr [image00400000+0xd0e0 (0040d0e0)]
004064ef c7058018410073614000 mov dword ptr [image00400000+0x11880 (00411880)],offset image00400000+0x6173 (00406173)
004064f9 893588184100    mov     dword ptr [image00400000+0x11888 (00411888)],esi
004064ff a38c184100      mov     dword ptr [image00400000+0x1188c (0041188c)],eax
00406504 ff15d4d04000    call    dword ptr [image00400000+0xd0d4 (0040d0d4)]
0040650a a394014100      mov     dword ptr [image00400000+0x10194 (00410194)],eax
0040650f 83f8ff          cmp     eax,0FFFFFFFFh
00406512 0f84c1000000    je      image00400000+0x65d9 (004065d9)
00406518 ff3584184100    push    dword ptr [image00400000+0x11884 (00411884)]
0040651e 50              push    eax
0040651f ffd6            call    esi
00406521 85c0            test    eax,eax
00406523 0f84b0000000    je      image00400000+0x65d9 (004065d9)
00406529 e80bebffff      call    image00400000+0x5039 (00405039)
0040652e ff3580184100    push    dword ptr [image00400000+0x11880 (00411880)]
00406534 8b35b8d04000    mov     esi,dword ptr [image00400000+0xd0b8 (0040d0b8)]
0040653a ffd6            call    esi
0040653c ff3584184100    push    dword ptr [image00400000+0x11884 (00411884)]
00406542 a380184100      mov     dword ptr [image00400000+0x11880 (00411880)],eax
00406547 ffd6            call    esi
00406549 ff3588184100    push    dword ptr [image00400000+0x11888 (00411888)]
0040654f a384184100      mov     dword ptr [image00400000+0x11884 (00411884)],eax
00406554 ffd6            call    esi
00406556 ff358c184100    push    dword ptr [image00400000+0x1188c (0041188c)]
0040655c a388184100      mov     dword ptr [image00400000+0x11888 (00411888)],eax
00406561 ffd6            call    esi
00406563 a38c184100      mov     dword ptr [image00400000+0x1188c (0041188c)],eax
00406568 e8272f0000      call    image00400000+0x9494 (00409494)
0040656d 85c0            test    eax,eax
0040656f 7463            je      image00400000+0x65d4 (004065d4)
00406571 8b3db4d04000    mov     edi,dword ptr [image00400000+0xd0b4 (0040d0b4)]
00406577 6834634000      push    offset image00400000+0x6334 (00406334)
0040657c ff3580184100    push    dword ptr [image00400000+0x11880 (00411880)]
00406582 ffd7            call    edi
00406584 ffd0            call    eax
00406586 a390014100      mov     dword ptr [image00400000+0x10190 (00410190)],eax
0040658b 83f8ff          cmp     eax,0FFFFFFFFh
0040658e 7444            je      image00400000+0x65d4 (004065d4)
00406590 6814020000      push    214h
00406595 6a01            push    1
00406597 e8b8220000      call    image00400000+0x8854 (00408854)
0040659c 8bf0            mov     esi,eax
0040659e 59              pop     ecx
0040659f 59              pop     ecx
004065a0 85f6            test    esi,esi
004065a2 7430            je      image00400000+0x65d4 (004065d4)
004065a4 56              push    esi
004065a5 ff3590014100    push    dword ptr [image00400000+0x10190 (00410190)]
004065ab ff3588184100    push    dword ptr [image00400000+0x11888 (00411888)]
004065b1 ffd7            call    edi
004065b3 ffd0            call    eax
004065b5 85c0            test    eax,eax
004065b7 741b            je      image00400000+0x65d4 (004065d4)
004065b9 6a00            push    0
004065bb 56              push    esi
004065bc e82cfcffff      call    image00400000+0x61ed (004061ed)
004065c1 59              pop     ecx
004065c2 59              pop     ecx
004065c3 ff15ecd04000    call    dword ptr [image00400000+0xd0ec (0040d0ec)]
004065c9 834e04ff        or      dword ptr [esi+4],0FFFFFFFFh
004065cd 8906            mov     dword ptr [esi],eax
004065cf 33c0            xor     eax,eax
004065d1 40              inc     eax
004065d2 eb07            jmp     image00400000+0x65db (004065db)
004065d4 e8d7fbffff      call    image00400000+0x61b0 (004061b0)
004065d9 33c0            xor     eax,eax
004065db 5e              pop     esi
004065dc 5f              pop     edi
004065dd c3              ret
004065de 2da4030000      sub     eax,3A4h
004065e3 7422            je      image00400000+0x6607 (00406607)
004065e5 83e804          sub     eax,4
004065e8 7417            je      image00400000+0x6601 (00406601)
004065ea 83e80d          sub     eax,0Dh
004065ed 740c            je      image00400000+0x65fb (004065fb)
004065ef 48              dec     eax
004065f0 7403            je      image00400000+0x65f5 (004065f5)
004065f2 33c0            xor     eax,eax
004065f4 c3              ret
004065f5 b804040000      mov     eax,404h
004065fa c3              ret
004065fb b812040000      mov     eax,412h
00406600 c3              ret
00406601 b804080000      mov     eax,804h
00406606 c3              ret
00406607 b811040000      mov     eax,411h
0040660c c3              ret
0040660d 8bff            mov     edi,edi
0040660f 56              push    esi
00406610 57              push    edi
00406611 8bf0            mov     esi,eax
00406613 6801010000      push    101h
00406618 33ff            xor     edi,edi
0040661a 8d461c          lea     eax,[esi+1Ch]
0040661d 57              push    edi
0040661e 50              push    eax
0040661f e89c250000      call    image00400000+0x8bc0 (00408bc0)
00406624 33c0            xor     eax,eax
00406626 0fb7c8          movzx   ecx,ax
00406629 8bc1            mov     eax,ecx
0040662b 897e04          mov     dword ptr [esi+4],edi
0040662e 897e08          mov     dword ptr [esi+8],edi
00406631 897e0c          mov     dword ptr [esi+0Ch],edi
00406634 c1e110          shl     ecx,10h
00406637 0bc1            or      eax,ecx
00406639 8d7e10          lea     edi,[esi+10h]
0040663c ab              stos    dword ptr es:[edi]
0040663d ab              stos    dword ptr es:[edi]
0040663e ab              stos    dword ptr es:[edi]
0040663f b998014100      mov     ecx,offset image00400000+0x10198 (00410198)
00406644 83c40c          add     esp,0Ch
00406647 8d461c          lea     eax,[esi+1Ch]
0040664a 2bce            sub     ecx,esi
0040664c bf01010000      mov     edi,101h
00406651 8a1401          mov     dl,byte ptr [ecx+eax]
00406654 8810            mov     byte ptr [eax],dl
00406656 40              inc     eax
00406657 4f              dec     edi
00406658 75f7            jne     image00400000+0x6651 (00406651)
0040665a 8d861d010000    lea     eax,[esi+11Dh]
00406660 be00010000      mov     esi,100h
00406665 8a1408          mov     dl,byte ptr [eax+ecx]
00406668 8810            mov     byte ptr [eax],dl
0040666a 40              inc     eax
0040666b 4e              dec     esi
0040666c 75f7            jne     image00400000+0x6665 (00406665)
0040666e 5f              pop     edi
0040666f 5e              pop     esi
00406670 c3              ret
00406671 8bff            mov     edi,edi
00406673 55              push    ebp
00406674 8bec            mov     ebp,esp
00406676 81ec1c050000    sub     esp,51Ch
0040667c a104004100      mov     eax,dword ptr [image00400000+0x10004 (00410004)]
00406681 33c5            xor     eax,ebp
00406683 8945fc          mov     dword ptr [ebp-4],eax
00406686 53              push    ebx
00406687 57              push    edi
00406688 8d85e8faffff    lea     eax,[ebp-518h]
0040668e 50              push    eax
0040668f ff7604          push    dword ptr [esi+4]
00406692 ff15f4d04000    call    dword ptr [image00400000+0xd0f4 (0040d0f4)]
00406698 bf00010000      mov     edi,100h
0040669d 85c0            test    eax,eax
0040669f 0f84fc000000    je      image00400000+0x67a1 (004067a1)
004066a5 33c0            xor     eax,eax
004066a7 888405fcfeffff  mov     byte ptr [ebp+eax-104h],al
004066ae 40              inc     eax
004066af 3bc7            cmp     eax,edi
004066b1 72f4            jb      image00400000+0x66a7 (004066a7)
004066b3 8a85eefaffff    mov     al,byte ptr [ebp-512h]
004066b9 c685fcfeffff20  mov     byte ptr [ebp-104h],20h
004066c0 84c0            test    al,al
004066c2 7430            je      image00400000+0x66f4 (004066f4)
004066c4 8d9deffaffff    lea     ebx,[ebp-511h]
004066ca 0fb6c8          movzx   ecx,al
004066cd 0fb603          movzx   eax,byte ptr [ebx]
004066d0 3bc8            cmp     ecx,eax
004066d2 7716            ja      image00400000+0x66ea (004066ea)
004066d4 2bc1            sub     eax,ecx
004066d6 40              inc     eax
004066d7 50              push    eax
004066d8 8d940dfcfeffff  lea     edx,[ebp+ecx-104h]
004066df 6a20            push    20h
004066e1 52              push    edx
004066e2 e8d9240000      call    image00400000+0x8bc0 (00408bc0)
004066e7 83c40c          add     esp,0Ch
004066ea 8a4301          mov     al,byte ptr [ebx+1]
004066ed 83c302          add     ebx,2
004066f0 84c0            test    al,al
004066f2 75d6            jne     image00400000+0x66ca (004066ca)
004066f4 6a00            push    0
004066f6 ff760c          push    dword ptr [esi+0Ch]
004066f9 8d85fcfaffff    lea     eax,[ebp-504h]
004066ff ff7604          push    dword ptr [esi+4]
00406702 50              push    eax
00406703 57              push    edi
00406704 8d85fcfeffff    lea     eax,[ebp-104h]
0040670a 50              push    eax
0040670b 6a01            push    1
0040670d 6a00            push    0
0040670f e8cb3b0000      call    image00400000+0xa2df (0040a2df)
00406714 33db            xor     ebx,ebx
00406716 53              push    ebx
00406717 ff7604          push    dword ptr [esi+4]
0040671a 8d85fcfdffff    lea     eax,[ebp-204h]
00406720 57              push    edi
00406721 50              push    eax
00406722 57              push    edi
00406723 8d85fcfeffff    lea     eax,[ebp-104h]
00406729 50              push    eax
0040672a 57              push    edi
0040672b ff760c          push    dword ptr [esi+0Ch]
0040672e 53              push    ebx
0040672f e87e3a0000      call    image00400000+0xa1b2 (0040a1b2)
00406734 83c444          add     esp,44h
00406737 53              push    ebx
00406738 ff7604          push    dword ptr [esi+4]
0040673b 8d85fcfcffff    lea     eax,[ebp-304h]
00406741 57              push    edi
00406742 50              push    eax
00406743 57              push    edi
00406744 8d85fcfeffff    lea     eax,[ebp-104h]
0040674a 50              push    eax
0040674b 6800020000      push    200h
00406750 ff760c          push    dword ptr [esi+0Ch]
00406753 53              push    ebx
00406754 e8593a0000      call    image00400000+0xa1b2 (0040a1b2)
00406759 83c424          add     esp,24h
0040675c 33c0            xor     eax,eax
0040675e 0fb78c45fcfaffff movzx   ecx,word ptr [ebp+eax*2-504h]
00406766 f6c101          test    cl,1
00406769 740e            je      image00400000+0x6779 (00406779)
0040676b 804c061d10      or      byte ptr [esi+eax+1Dh],10h
00406770 8a8c05fcfdffff  mov     cl,byte ptr [ebp+eax-204h]
00406777 eb11            jmp     image00400000+0x678a (0040678a)
00406779 f6c102          test    cl,2
0040677c 7415            je      image00400000+0x6793 (00406793)
0040677e 804c061d20      or      byte ptr [esi+eax+1Dh],20h
00406783 8a8c05fcfcffff  mov     cl,byte ptr [ebp+eax-304h]
0040678a 888c061d010000  mov     byte ptr [esi+eax+11Dh],cl
00406791 eb07            jmp     image00400000+0x679a (0040679a)
00406793 889c061d010000  mov     byte ptr [esi+eax+11Dh],bl
0040679a 40              inc     eax
0040679b 3bc7            cmp     eax,edi
0040679d 72bf            jb      image00400000+0x675e (0040675e)
0040679f eb52            jmp     image00400000+0x67f3 (004067f3)
004067a1 8d861d010000    lea     eax,[esi+11Dh]
004067a7 c785e4faffff9fffffff mov dword ptr [ebp-51Ch],0FFFFFF9Fh
004067b1 33c9            xor     ecx,ecx
004067b3 2985e4faffff    sub     dword ptr [ebp-51Ch],eax
004067b9 8b95e4faffff    mov     edx,dword ptr [ebp-51Ch]
004067bf 8d840e1d010000  lea     eax,[esi+ecx+11Dh]
004067c6 03d0            add     edx,eax
004067c8 8d5a20          lea     ebx,[edx+20h]
004067cb 83fb19          cmp     ebx,19h
004067ce 770a            ja      image00400000+0x67da (004067da)
004067d0 804c0e1d10      or      byte ptr [esi+ecx+1Dh],10h
004067d5 8d5120          lea     edx,[ecx+20h]
004067d8 eb0d            jmp     image00400000+0x67e7 (004067e7)
004067da 83fa19          cmp     edx,19h
004067dd 770c            ja      image00400000+0x67eb (004067eb)
004067df 804c0e1d20      or      byte ptr [esi+ecx+1Dh],20h
004067e4 8d51e0          lea     edx,[ecx-20h]
004067e7 8810            mov     byte ptr [eax],dl
004067e9 eb03            jmp     image00400000+0x67ee (004067ee)
004067eb c60000          mov     byte ptr [eax],0
004067ee 41              inc     ecx
004067ef 3bcf            cmp     ecx,edi
004067f1 72c6            jb      image00400000+0x67b9 (004067b9)
004067f3 8b4dfc          mov     ecx,dword ptr [ebp-4]
004067f6 5f              pop     edi
004067f7 33cd            xor     ecx,ebp
004067f9 5b              pop     ebx
004067fa e8fcbcffff      call    image00400000+0x24fb (004024fb)
004067ff c9              leave
00406800 c3              ret
00406801 6a0c            push    0Ch
00406803 6850ef4000      push    offset image00400000+0xef50 (0040ef50)
00406808 e893110000      call    image00400000+0x79a0 (004079a0)
0040680d e808fbffff      call    image00400000+0x631a (0040631a)
00406812 8bf8            mov     edi,eax
00406814 a1b8064100      mov     eax,dword ptr [image00400000+0x106b8 (004106b8)]
00406819 854770          test    dword ptr [edi+70h],eax
0040681c 741d            je      image00400000+0x683b (0040683b)
0040681e 837f6c00        cmp     dword ptr [edi+6Ch],0
00406822 7417            je      image00400000+0x683b (0040683b)
00406824 8b7768          mov     esi,dword ptr [edi+68h]
00406827 85f6            test    esi,esi
00406829 7508            jne     image00400000+0x6833 (00406833)
0040682b 6a20            push    20h
0040682d e87feaffff      call    image00400000+0x52b1 (004052b1)
00406832 59              pop     ecx
00406833 8bc6            mov     eax,esi
00406835 e8ab110000      call    image00400000+0x79e5 (004079e5)
0040683a c3              ret
0040683b 6a0d            push    0Dh
0040683d e8cc2d0000      call    image00400000+0x960e (0040960e)
00406842 59              pop     ecx
00406843 8365fc00        and     dword ptr [ebp-4],0
00406847 8b7768          mov     esi,dword ptr [edi+68h]
0040684a 8975e4          mov     dword ptr [ebp-1Ch],esi
0040684d 3b35c0054100    cmp     esi,dword ptr [image00400000+0x105c0 (004105c0)]
00406853 7436            je      image00400000+0x688b (0040688b)
00406855 85f6            test    esi,esi
00406857 741a            je      image00400000+0x6873 (00406873)
00406859 56              push    esi
0040685a ff15f0d04000    call    dword ptr [image00400000+0xd0f0 (0040d0f0)]
00406860 85c0            test    eax,eax
00406862 750f            jne     image00400000+0x6873 (00406873)
00406864 81fe98014100    cmp     esi,offset image00400000+0x10198 (00410198)
0040686a 7407            je      image00400000+0x6873 (00406873)
0040686c 56              push    esi
0040686d e8acbdffff      call    image00400000+0x261e (0040261e)
00406872 59              pop     ecx
00406873 a1c0054100      mov     eax,dword ptr [image00400000+0x105c0 (004105c0)]
00406878 894768          mov     dword ptr [edi+68h],eax
0040687b 8b35c0054100    mov     esi,dword ptr [image00400000+0x105c0 (004105c0)]
00406881 8975e4          mov     dword ptr [ebp-1Ch],esi
00406884 56              push    esi
00406885 ff15e4d04000    call    dword ptr [image00400000+0xd0e4 (0040d0e4)]
0040688b c745fcfeffffff  mov     dword ptr [ebp-4],0FFFFFFFEh
00406892 e805000000      call    image00400000+0x689c (0040689c)
00406897 eb8e            jmp     image00400000+0x6827 (00406827)
00406899 8b75e4          mov     esi,dword ptr [ebp-1Ch]
0040689c 6a0d            push    0Dh
0040689e e8922c0000      call    image00400000+0x9535 (00409535)
004068a3 59              pop     ecx
004068a4 c3              ret
004068a5 8bff            mov     edi,edi
004068a7 55              push    ebp
004068a8 8bec            mov     ebp,esp
004068aa 83ec10          sub     esp,10h
004068ad 53              push    ebx
004068ae 33db            xor     ebx,ebx
004068b0 53              push    ebx
004068b1 8d4df0          lea     ecx,[ebp-10h]
004068b4 e812c0ffff      call    image00400000+0x28cb (004028cb)
004068b9 891d90184100    mov     dword ptr [image00400000+0x11890 (00411890)],ebx
004068bf 83fefe          cmp     esi,0FFFFFFFEh
004068c2 751e            jne     image00400000+0x68e2 (004068e2)
004068c4 c7059018410001000000 mov dword ptr [image00400000+0x11890 (00411890)],1
004068ce ff15fcd04000    call    dword ptr [image00400000+0xd0fc (0040d0fc)]
004068d4 385dfc          cmp     byte ptr [ebp-4],bl
004068d7 7445            je      image00400000+0x691e (0040691e)
004068d9 8b4df8          mov     ecx,dword ptr [ebp-8]
004068dc 836170fd        and     dword ptr [ecx+70h],0FFFFFFFDh
004068e0 eb3c            jmp     image00400000+0x691e (0040691e)
004068e2 83fefd          cmp     esi,0FFFFFFFDh
004068e5 7512            jne     image00400000+0x68f9 (004068f9)
004068e7 c7059018410001000000 mov dword ptr [image00400000+0x11890 (00411890)],1
004068f1 ff15f8d04000    call    dword ptr [image00400000+0xd0f8 (0040d0f8)]
004068f7 ebdb            jmp     image00400000+0x68d4 (004068d4)
004068f9 83fefc          cmp     esi,0FFFFFFFCh
004068fc 7512            jne     image00400000+0x6910 (00406910)
004068fe 8b45f0          mov     eax,dword ptr [ebp-10h]
00406901 8b4004          mov     eax,dword ptr [eax+4]
00406904 c7059018410001000000 mov dword ptr [image00400000+0x11890 (00411890)],1
0040690e ebc4            jmp     image00400000+0x68d4 (004068d4)
00406910 385dfc          cmp     byte ptr [ebp-4],bl
00406913 7407            je      image00400000+0x691c (0040691c)
00406915 8b45f8          mov     eax,dword ptr [ebp-8]
00406918 836070fd        and     dword ptr [eax+70h],0FFFFFFFDh
0040691c 8bc6            mov     eax,esi
0040691e 5b              pop     ebx
0040691f c9              leave
00406920 c3              ret
00406921 8bff            mov     edi,edi
00406923 55              push    ebp
00406924 8bec            mov     ebp,esp
00406926 83ec20          sub     esp,20h
00406929 a104004100      mov     eax,dword ptr [image00400000+0x10004 (00410004)]
0040692e 33c5            xor     eax,ebp
00406930 8945fc          mov     dword ptr [ebp-4],eax
00406933 53              push    ebx
00406934 8b5d0c          mov     ebx,dword ptr [ebp+0Ch]
00406937 56              push    esi
00406938 8b7508          mov     esi,dword ptr [ebp+8]
0040693b 57              push    edi
0040693c e864ffffff      call    image00400000+0x68a5 (004068a5)
00406941 8bf8            mov     edi,eax
00406943 33f6            xor     esi,esi
00406945 897d08          mov     dword ptr [ebp+8],edi
00406948 3bfe            cmp     edi,esi
0040694a 750e            jne     image00400000+0x695a (0040695a)
0040694c 8bc3            mov     eax,ebx
0040694e e8bafcffff      call    image00400000+0x660d (0040660d)
00406953 33c0            xor     eax,eax
00406955 e9a1010000      jmp     image00400000+0x6afb (00406afb)
0040695a 8975e4          mov     dword ptr [ebp-1Ch],esi
0040695d 33c0            xor     eax,eax
0040695f 39b8c8054100    cmp     dword ptr image00400000+0x105c8 (004105c8)[eax],edi
00406965 0f8491000000    je      image00400000+0x69fc (004069fc)
0040696b ff45e4          inc     dword ptr [ebp-1Ch]
0040696e 83c030          add     eax,30h
00406971 3df0000000      cmp     eax,0F0h
00406976 72e7            jb      image00400000+0x695f (0040695f)
00406978 81ffe8fd0000    cmp     edi,0FDE8h
0040697e 0f8474010000    je      image00400000+0x6af8 (00406af8)
00406984 81ffe9fd0000    cmp     edi,0FDE9h
0040698a 0f8468010000    je      image00400000+0x6af8 (00406af8)
00406990 0fb7c7          movzx   eax,di
00406993 50              push    eax
00406994 ff1500d14000    call    dword ptr [image00400000+0xd100 (0040d100)]
0040699a 85c0            test    eax,eax
0040699c 0f8456010000    je      image00400000+0x6af8 (00406af8)
004069a2 8d45e8          lea     eax,[ebp-18h]
004069a5 50              push    eax
004069a6 57              push    edi
004069a7 ff15f4d04000    call    dword ptr [image00400000+0xd0f4 (0040d0f4)]
004069ad 85c0            test    eax,eax
004069af 0f8437010000    je      image00400000+0x6aec (00406aec)
004069b5 6801010000      push    101h
004069ba 8d431c          lea     eax,[ebx+1Ch]
004069bd 56              push    esi
004069be 50              push    eax
004069bf e8fc210000      call    image00400000+0x8bc0 (00408bc0)
004069c4 33d2            xor     edx,edx
004069c6 42              inc     edx
004069c7 83c40c          add     esp,0Ch
004069ca 897b04          mov     dword ptr [ebx+4],edi
004069cd 89730c          mov     dword ptr [ebx+0Ch],esi
004069d0 3955e8          cmp     dword ptr [ebp-18h],edx
004069d3 0f86fc000000    jbe     image00400000+0x6ad5 (00406ad5)
004069d9 807dee00        cmp     byte ptr [ebp-12h],0
004069dd 0f84d3000000    je      image00400000+0x6ab6 (00406ab6)
004069e3 8d75ef          lea     esi,[ebp-11h]
004069e6 8a0e            mov     cl,byte ptr [esi]
004069e8 84c9            test    cl,cl
004069ea 0f84c6000000    je      image00400000+0x6ab6 (00406ab6)
004069f0 0fb646ff        movzx   eax,byte ptr [esi-1]
004069f4 0fb6c9          movzx   ecx,cl
004069f7 e9a9000000      jmp     image00400000+0x6aa5 (00406aa5)
004069fc 6801010000      push    101h
00406a01 8d431c          lea     eax,[ebx+1Ch]
00406a04 56              push    esi
00406a05 50              push    eax
00406a06 e8b5210000      call    image00400000+0x8bc0 (00408bc0)
00406a0b 8b4de4          mov     ecx,dword ptr [ebp-1Ch]
00406a0e 83c40c          add     esp,0Ch
00406a11 6bc930          imul    ecx,ecx,30h
00406a14 8975e0          mov     dword ptr [ebp-20h],esi
00406a17 8db1d8054100    lea     esi,image00400000+0x105d8 (004105d8)[ecx]
00406a1d 8975e4          mov     dword ptr [ebp-1Ch],esi
00406a20 eb2b            jmp     image00400000+0x6a4d (00406a4d)
00406a22 8a4601          mov     al,byte ptr [esi+1]
00406a25 84c0            test    al,al
00406a27 7429            je      image00400000+0x6a52 (00406a52)
00406a29 0fb63e          movzx   edi,byte ptr [esi]
00406a2c 0fb6c0          movzx   eax,al
00406a2f eb12            jmp     image00400000+0x6a43 (00406a43)
00406a31 8b45e0          mov     eax,dword ptr [ebp-20h]
00406a34 8a80c4054100    mov     al,byte ptr image00400000+0x105c4 (004105c4)[eax]
00406a3a 08443b1d        or      byte ptr [ebx+edi+1Dh],al
00406a3e 0fb64601        movzx   eax,byte ptr [esi+1]
00406a42 47              inc     edi
00406a43 3bf8            cmp     edi,eax
00406a45 76ea            jbe     image00400000+0x6a31 (00406a31)
00406a47 8b7d08          mov     edi,dword ptr [ebp+8]
00406a4a 83c602          add     esi,2
00406a4d 803e00          cmp     byte ptr [esi],0
00406a50 75d0            jne     image00400000+0x6a22 (00406a22)
00406a52 8b75e4          mov     esi,dword ptr [ebp-1Ch]
00406a55 ff45e0          inc     dword ptr [ebp-20h]
00406a58 83c608          add     esi,8
00406a5b 837de004        cmp     dword ptr [ebp-20h],4
00406a5f 8975e4          mov     dword ptr [ebp-1Ch],esi
00406a62 72e9            jb      image00400000+0x6a4d (00406a4d)
00406a64 8bc7            mov     eax,edi
00406a66 897b04          mov     dword ptr [ebx+4],edi
00406a69 c7430801000000  mov     dword ptr [ebx+8],1
00406a70 e869fbffff      call    image00400000+0x65de (004065de)
00406a75 6a06            push    6
00406a77 89430c          mov     dword ptr [ebx+0Ch],eax
00406a7a 8d4310          lea     eax,[ebx+10h]
00406a7d 8d89cc054100    lea     ecx,image00400000+0x105cc (004105cc)[ecx]
00406a83 5a              pop     edx
00406a84 668b31          mov     si,word ptr [ecx]
00406a87 668930          mov     word ptr [eax],si
00406a8a 83c102          add     ecx,2
00406a8d 83c002          add     eax,2
00406a90 4a              dec     edx
00406a91 75f1            jne     image00400000+0x6a84 (00406a84)
00406a93 8bf3            mov     esi,ebx
00406a95 e8d7fbffff      call    image00400000+0x6671 (00406671)
00406a9a e9b4feffff      jmp     image00400000+0x6953 (00406953)
00406a9f 804c031d04      or      byte ptr [ebx+eax+1Dh],4
00406aa4 40              inc     eax
00406aa5 3bc1            cmp     eax,ecx
00406aa7 76f6            jbe     image00400000+0x6a9f (00406a9f)
00406aa9 83c602          add     esi,2
00406aac 807eff00        cmp     byte ptr [esi-1],0
00406ab0 0f8530ffffff    jne     image00400000+0x69e6 (004069e6)
00406ab6 8d431e          lea     eax,[ebx+1Eh]
00406ab9 b9fe000000      mov     ecx,0FEh
00406abe 800808          or      byte ptr [eax],8
00406ac1 40              inc     eax
00406ac2 49              dec     ecx
00406ac3 75f9            jne     image00400000+0x6abe (00406abe)
00406ac5 8b4304          mov     eax,dword ptr [ebx+4]
00406ac8 e811fbffff      call    image00400000+0x65de (004065de)
00406acd 89430c          mov     dword ptr [ebx+0Ch],eax
00406ad0 895308          mov     dword ptr [ebx+8],edx
00406ad3 eb03            jmp     image00400000+0x6ad8 (00406ad8)
00406ad5 897308          mov     dword ptr [ebx+8],esi
00406ad8 33c0            xor     eax,eax
00406ada 0fb7c8          movzx   ecx,ax
00406add 8bc1            mov     eax,ecx
00406adf c1e110          shl     ecx,10h
00406ae2 0bc1            or      eax,ecx
00406ae4 8d7b10          lea     edi,[ebx+10h]
00406ae7 ab              stos    dword ptr es:[edi]
00406ae8 ab              stos    dword ptr es:[edi]
00406ae9 ab              stos    dword ptr es:[edi]
00406aea eba7            jmp     image00400000+0x6a93 (00406a93)
00406aec 393590184100    cmp     dword ptr [image00400000+0x11890 (00411890)],esi
00406af2 0f8554feffff    jne     image00400000+0x694c (0040694c)
00406af8 83c8ff          or      eax,0FFFFFFFFh
00406afb 8b4dfc          mov     ecx,dword ptr [ebp-4]
00406afe 5f              pop     edi
00406aff 5e              pop     esi
00406b00 33cd            xor     ecx,ebp
00406b02 5b              pop     ebx
00406b03 e8f3b9ffff      call    image00400000+0x24fb (004024fb)
00406b08 c9              leave
00406b09 c3              ret
00406b0a 6a14            push    14h
00406b0c 6870ef4000      push    offset image00400000+0xef70 (0040ef70)
00406b11 e88a0e0000      call    image00400000+0x79a0 (004079a0)
00406b16 834de0ff        or      dword ptr [ebp-20h],0FFFFFFFFh
00406b1a e8fbf7ffff      call    image00400000+0x631a (0040631a)
00406b1f 8bf8            mov     edi,eax
00406b21 897ddc          mov     dword ptr [ebp-24h],edi
00406b24 e8d8fcffff      call    image00400000+0x6801 (00406801)
00406b29 8b5f68          mov     ebx,dword ptr [edi+68h]
00406b2c 8b7508          mov     esi,dword ptr [ebp+8]
00406b2f e871fdffff      call    image00400000+0x68a5 (004068a5)
00406b34 894508          mov     dword ptr [ebp+8],eax
00406b37 3b4304          cmp     eax,dword ptr [ebx+4]
00406b3a 0f8457010000    je      image00400000+0x6c97 (00406c97)
00406b40 6820020000      push    220h
00406b45 e8c51c0000      call    image00400000+0x880f (0040880f)
00406b4a 59              pop     ecx
00406b4b 8bd8            mov     ebx,eax
00406b4d 85db            test    ebx,ebx
00406b4f 0f8446010000    je      image00400000+0x6c9b (00406c9b)
00406b55 b988000000      mov     ecx,88h
00406b5a 8b7768          mov     esi,dword ptr [edi+68h]
00406b5d 8bfb            mov     edi,ebx
00406b5f f3a5            rep movs dword ptr es:[edi],dword ptr [esi]
00406b61 832300          and     dword ptr [ebx],0
00406b64 53              push    ebx
00406b65 ff7508          push    dword ptr [ebp+8]
00406b68 e8b4fdffff      call    image00400000+0x6921 (00406921)
00406b6d 59              pop     ecx
00406b6e 59              pop     ecx
00406b6f 8945e0          mov     dword ptr [ebp-20h],eax
00406b72 85c0            test    eax,eax
00406b74 0f85fc000000    jne     image00400000+0x6c76 (00406c76)
00406b7a 8b75dc          mov     esi,dword ptr [ebp-24h]
00406b7d ff7668          push    dword ptr [esi+68h]
00406b80 ff15f0d04000    call    dword ptr [image00400000+0xd0f0 (0040d0f0)]
00406b86 85c0            test    eax,eax
00406b88 7511            jne     image00400000+0x6b9b (00406b9b)
00406b8a 8b4668          mov     eax,dword ptr [esi+68h]
00406b8d 3d98014100      cmp     eax,offset image00400000+0x10198 (00410198)
00406b92 7407            je      image00400000+0x6b9b (00406b9b)
00406b94 50              push    eax
00406b95 e884baffff      call    image00400000+0x261e (0040261e)
00406b9a 59              pop     ecx
00406b9b 895e68          mov     dword ptr [esi+68h],ebx
00406b9e 53              push    ebx
00406b9f 8b3de4d04000    mov     edi,dword ptr [image00400000+0xd0e4 (0040d0e4)]
00406ba5 ffd7            call    edi
00406ba7 f6467002        test    byte ptr [esi+70h],2
00406bab 0f85ea000000    jne     image00400000+0x6c9b (00406c9b)
00406bb1 f605b806410001  test    byte ptr [image00400000+0x106b8 (004106b8)],1
00406bb8 0f85dd000000    jne     image00400000+0x6c9b (00406c9b)
00406bbe 6a0d            push    0Dh
00406bc0 e8492a0000      call    image00400000+0x960e (0040960e)
00406bc5 59              pop     ecx
00406bc6 8365fc00        and     dword ptr [ebp-4],0
00406bca 8b4304          mov     eax,dword ptr [ebx+4]
00406bcd a3a0184100      mov     dword ptr [image00400000+0x118a0 (004118a0)],eax
00406bd2 8b4308          mov     eax,dword ptr [ebx+8]
00406bd5 a3a4184100      mov     dword ptr [image00400000+0x118a4 (004118a4)],eax
00406bda 8b430c          mov     eax,dword ptr [ebx+0Ch]
00406bdd a3a8184100      mov     dword ptr [image00400000+0x118a8 (004118a8)],eax
00406be2 33c0            xor     eax,eax
00406be4 8945e4          mov     dword ptr [ebp-1Ch],eax
00406be7 83f805          cmp     eax,5
00406bea 7d10            jge     image00400000+0x6bfc (00406bfc)
00406bec 668b4c4310      mov     cx,word ptr [ebx+eax*2+10h]
00406bf1 66890c4594184100 mov     word ptr image00400000+0x11894 (00411894)[eax*2],cx
00406bf9 40              inc     eax
00406bfa ebe8            jmp     image00400000+0x6be4 (00406be4)
00406bfc 33c0            xor     eax,eax
00406bfe 8945e4          mov     dword ptr [ebp-1Ch],eax
00406c01 3d01010000      cmp     eax,101h
00406c06 7d0d            jge     image00400000+0x6c15 (00406c15)
00406c08 8a4c181c        mov     cl,byte ptr [eax+ebx+1Ch]
00406c0c 8888b8034100    mov     byte ptr image00400000+0x103b8 (004103b8)[eax],cl
00406c12 40              inc     eax
00406c13 ebe9            jmp     image00400000+0x6bfe (00406bfe)
00406c15 33c0            xor     eax,eax
00406c17 8945e4          mov     dword ptr [ebp-1Ch],eax
00406c1a 3d00010000      cmp     eax,100h
00406c1f 7d10            jge     image00400000+0x6c31 (00406c31)
00406c21 8a8c181d010000  mov     cl,byte ptr [eax+ebx+11Dh]
00406c28 8888c0044100    mov     byte ptr image00400000+0x104c0 (004104c0)[eax],cl
00406c2e 40              inc     eax
00406c2f ebe6            jmp     image00400000+0x6c17 (00406c17)
00406c31 ff35c0054100    push    dword ptr [image00400000+0x105c0 (004105c0)]
00406c37 ff15f0d04000    call    dword ptr [image00400000+0xd0f0 (0040d0f0)]
00406c3d 85c0            test    eax,eax
00406c3f 7513            jne     image00400000+0x6c54 (00406c54)
00406c41 a1c0054100      mov     eax,dword ptr [image00400000+0x105c0 (004105c0)]
00406c46 3d98014100      cmp     eax,offset image00400000+0x10198 (00410198)
00406c4b 7407            je      image00400000+0x6c54 (00406c54)
00406c4d 50              push    eax
00406c4e e8cbb9ffff      call    image00400000+0x261e (0040261e)
00406c53 59              pop     ecx
00406c54 891dc0054100    mov     dword ptr [image00400000+0x105c0 (004105c0)],ebx
00406c5a 53              push    ebx
00406c5b ffd7            call    edi
00406c5d c745fcfeffffff  mov     dword ptr [ebp-4],0FFFFFFFEh
00406c64 e802000000      call    image00400000+0x6c6b (00406c6b)
00406c69 eb30            jmp     image00400000+0x6c9b (00406c9b)
00406c6b 6a0d            push    0Dh
00406c6d e8c3280000      call    image00400000+0x9535 (00409535)
00406c72 59              pop     ecx
00406c73 c3              ret
00406c74 eb25            jmp     image00400000+0x6c9b (00406c9b)
00406c76 83f8ff          cmp     eax,0FFFFFFFFh
00406c79 7520            jne     image00400000+0x6c9b (00406c9b)
00406c7b 81fb98014100    cmp     ebx,offset image00400000+0x10198 (00410198)
00406c81 7407            je      image00400000+0x6c8a (00406c8a)
00406c83 53              push    ebx
00406c84 e895b9ffff      call    image00400000+0x261e (0040261e)
00406c89 59              pop     ecx
00406c8a e8a2d1ffff      call    image00400000+0x3e31 (00403e31)
00406c8f c70016000000    mov     dword ptr [eax],16h
00406c95 eb04            jmp     image00400000+0x6c9b (00406c9b)
00406c97 8365e000        and     dword ptr [ebp-20h],0
00406c9b 8b45e0          mov     eax,dword ptr [ebp-20h]
00406c9e e8420d0000      call    image00400000+0x79e5 (004079e5)
00406ca3 c3              ret
00406ca4 833dac2c410000  cmp     dword ptr [image00400000+0x12cac (00412cac)],0
00406cab 7512            jne     image00400000+0x6cbf (00406cbf)
00406cad 6afd            push    0FFFFFFFDh
00406caf e856feffff      call    image00400000+0x6b0a (00406b0a)
00406cb4 59              pop     ecx
00406cb5 c705ac2c410001000000 mov dword ptr [image00400000+0x12cac (00412cac)],1
00406cbf 33c0            xor     eax,eax
00406cc1 c3              ret
00406cc2 8bff            mov     edi,edi
00406cc4 55              push    ebp
00406cc5 8bec            mov     ebp,esp
00406cc7 53              push    ebx
00406cc8 56              push    esi
00406cc9 8b35e4d04000    mov     esi,dword ptr [image00400000+0xd0e4 (0040d0e4)]
00406ccf 57              push    edi
00406cd0 8b7d08          mov     edi,dword ptr [ebp+8]
00406cd3 57              push    edi
00406cd4 ffd6            call    esi
00406cd6 8b87b0000000    mov     eax,dword ptr [edi+0B0h]
00406cdc 85c0            test    eax,eax
00406cde 7403            je      image00400000+0x6ce3 (00406ce3)
00406ce0 50              push    eax
00406ce1 ffd6            call    esi
00406ce3 8b87b8000000    mov     eax,dword ptr [edi+0B8h]
00406ce9 85c0            test    eax,eax
00406ceb 7403            je      image00400000+0x6cf0 (00406cf0)
00406ced 50              push    eax
00406cee ffd6            call    esi
00406cf0 8b87b4000000    mov     eax,dword ptr [edi+0B4h]
00406cf6 85c0            test    eax,eax
00406cf8 7403            je      image00400000+0x6cfd (00406cfd)
00406cfa 50              push    eax
00406cfb ffd6            call    esi
00406cfd 8b87c0000000    mov     eax,dword ptr [edi+0C0h]
00406d03 85c0            test    eax,eax
00406d05 7403            je      image00400000+0x6d0a (00406d0a)
00406d07 50              push    eax
00406d08 ffd6            call    esi
00406d0a 8d5f50          lea     ebx,[edi+50h]
00406d0d c7450806000000  mov     dword ptr [ebp+8],6
00406d14 817bf8bc064100  cmp     dword ptr [ebx-8],offset image00400000+0x106bc (004106bc)
00406d1b 7409            je      image00400000+0x6d26 (00406d26)
00406d1d 8b03            mov     eax,dword ptr [ebx]
00406d1f 85c0            test    eax,eax
00406d21 7403            je      image00400000+0x6d26 (00406d26)
00406d23 50              push    eax
00406d24 ffd6            call    esi
00406d26 837bfc00        cmp     dword ptr [ebx-4],0
00406d2a 740a            je      image00400000+0x6d36 (00406d36)
00406d2c 8b4304          mov     eax,dword ptr [ebx+4]
00406d2f 85c0            test    eax,eax
00406d31 7403            je      image00400000+0x6d36 (00406d36)
00406d33 50              push    eax
00406d34 ffd6            call    esi
00406d36 83c310          add     ebx,10h
00406d39 ff4d08          dec     dword ptr [ebp+8]
00406d3c 75d6            jne     image00400000+0x6d14 (00406d14)
00406d3e 8b87d4000000    mov     eax,dword ptr [edi+0D4h]
00406d44 05b4000000      add     eax,0B4h
00406d49 50              push    eax
00406d4a ffd6            call    esi
00406d4c 5f              pop     edi
00406d4d 5e              pop     esi
00406d4e 5b              pop     ebx
00406d4f 5d              pop     ebp
00406d50 c3              ret
00406d51 8bff            mov     edi,edi
00406d53 55              push    ebp
00406d54 8bec            mov     ebp,esp
00406d56 57              push    edi
00406d57 8b7d08          mov     edi,dword ptr [ebp+8]
00406d5a 85ff            test    edi,edi
00406d5c 0f8483000000    je      image00400000+0x6de5 (00406de5)
00406d62 53              push    ebx
00406d63 56              push    esi
00406d64 8b35f0d04000    mov     esi,dword ptr [image00400000+0xd0f0 (0040d0f0)]
00406d6a 57              push    edi
00406d6b ffd6            call    esi
00406d6d 8b87b0000000    mov     eax,dword ptr [edi+0B0h]
00406d73 85c0            test    eax,eax
00406d75 7403            je      image00400000+0x6d7a (00406d7a)
00406d77 50              push    eax
00406d78 ffd6            call    esi
00406d7a 8b87b8000000    mov     eax,dword ptr [edi+0B8h]
00406d80 85c0            test    eax,eax
00406d82 7403            je      image00400000+0x6d87 (00406d87)
00406d84 50              push    eax
00406d85 ffd6            call    esi
00406d87 8b87b4000000    mov     eax,dword ptr [edi+0B4h]
00406d8d 85c0            test    eax,eax
00406d8f 7403            je      image00400000+0x6d94 (00406d94)
00406d91 50              push    eax
00406d92 ffd6            call    esi
00406d94 8b87c0000000    mov     eax,dword ptr [edi+0C0h]
00406d9a 85c0            test    eax,eax
00406d9c 7403            je      image00400000+0x6da1 (00406da1)
00406d9e 50              push    eax
00406d9f ffd6            call    esi
00406da1 8d5f50          lea     ebx,[edi+50h]
00406da4 c7450806000000  mov     dword ptr [ebp+8],6
00406dab 817bf8bc064100  cmp     dword ptr [ebx-8],offset image00400000+0x106bc (004106bc)
00406db2 7409            je      image00400000+0x6dbd (00406dbd)
00406db4 8b03            mov     eax,dword ptr [ebx]
00406db6 85c0            test    eax,eax
00406db8 7403            je      image00400000+0x6dbd (00406dbd)
00406dba 50              push    eax
00406dbb ffd6            call    esi
00406dbd 837bfc00        cmp     dword ptr [ebx-4],0
00406dc1 740a            je      image00400000+0x6dcd (00406dcd)
00406dc3 8b4304          mov     eax,dword ptr [ebx+4]
00406dc6 85c0            test    eax,eax
00406dc8 7403            je      image00400000+0x6dcd (00406dcd)
00406dca 50              push    eax
00406dcb ffd6            call    esi
00406dcd 83c310          add     ebx,10h
00406dd0 ff4d08          dec     dword ptr [ebp+8]
00406dd3 75d6            jne     image00400000+0x6dab (00406dab)
00406dd5 8b87d4000000    mov     eax,dword ptr [edi+0D4h]
00406ddb 05b4000000      add     eax,0B4h
00406de0 50              push    eax
00406de1 ffd6            call    esi
00406de3 5e              pop     esi
00406de4 5b              pop     ebx
00406de5 8bc7            mov     eax,edi
00406de7 5f              pop     edi
00406de8 5d              pop     ebp
00406de9 c3              ret
00406dea 8bff            mov     edi,edi
00406dec 55              push    ebp
00406ded 8bec            mov     ebp,esp
00406def 53              push    ebx
00406df0 56              push    esi
00406df1 8b7508          mov     esi,dword ptr [ebp+8]
00406df4 8b86bc000000    mov     eax,dword ptr [esi+0BCh]
00406dfa 33db            xor     ebx,ebx
00406dfc 57              push    edi
00406dfd 3bc3            cmp     eax,ebx
00406dff 746f            je      image00400000+0x6e70 (00406e70)
00406e01 3d380d4100      cmp     eax,offset image00400000+0x10d38 (00410d38)
00406e06 7468            je      image00400000+0x6e70 (00406e70)
00406e08 8b86b0000000    mov     eax,dword ptr [esi+0B0h]
00406e0e 3bc3            cmp     eax,ebx
00406e10 745e            je      image00400000+0x6e70 (00406e70)
00406e12 3918            cmp     dword ptr [eax],ebx
00406e14 755a            jne     image00400000+0x6e70 (00406e70)
00406e16 8b86b8000000    mov     eax,dword ptr [esi+0B8h]
00406e1c 3bc3            cmp     eax,ebx
00406e1e 7417            je      image00400000+0x6e37 (00406e37)
00406e20 3918            cmp     dword ptr [eax],ebx
00406e22 7513            jne     image00400000+0x6e37 (00406e37)
00406e24 50              push    eax
00406e25 e8f4b7ffff      call    image00400000+0x261e (0040261e)
00406e2a ffb6bc000000    push    dword ptr [esi+0BCh]
00406e30 e8ca380000      call    image00400000+0xa6ff (0040a6ff)
00406e35 59              pop     ecx
00406e36 59              pop     ecx
00406e37 8b86b4000000    mov     eax,dword ptr [esi+0B4h]
00406e3d 3bc3            cmp     eax,ebx
00406e3f 7417            je      image00400000+0x6e58 (00406e58)
00406e41 3918            cmp     dword ptr [eax],ebx
00406e43 7513            jne     image00400000+0x6e58 (00406e58)
00406e45 50              push    eax
00406e46 e8d3b7ffff      call    image00400000+0x261e (0040261e)
00406e4b ffb6bc000000    push    dword ptr [esi+0BCh]
00406e51 e840380000      call    image00400000+0xa696 (0040a696)
00406e56 59              pop     ecx
00406e57 59              pop     ecx
00406e58 ffb6b0000000    push    dword ptr [esi+0B0h]
00406e5e e8bbb7ffff      call    image00400000+0x261e (0040261e)
00406e63 ffb6bc000000    push    dword ptr [esi+0BCh]
00406e69 e8b0b7ffff      call    image00400000+0x261e (0040261e)
00406e6e 59              pop     ecx
00406e6f 59              pop     ecx
00406e70 8b86c0000000    mov     eax,dword ptr [esi+0C0h]
00406e76 3bc3            cmp     eax,ebx
00406e78 7444            je      image00400000+0x6ebe (00406ebe)
00406e7a 3918            cmp     dword ptr [eax],ebx
00406e7c 7540            jne     image00400000+0x6ebe (00406ebe)
00406e7e 8b86c4000000    mov     eax,dword ptr [esi+0C4h]
00406e84 2dfe000000      sub     eax,0FEh
00406e89 50              push    eax
00406e8a e88fb7ffff      call    image00400000+0x261e (0040261e)
00406e8f 8b86cc000000    mov     eax,dword ptr [esi+0CCh]
00406e95 bf80000000      mov     edi,80h
00406e9a 2bc7            sub     eax,edi
00406e9c 50              push    eax
00406e9d e87cb7ffff      call    image00400000+0x261e (0040261e)
00406ea2 8b86d0000000    mov     eax,dword ptr [esi+0D0h]
00406ea8 2bc7            sub     eax,edi
00406eaa 50              push    eax
00406eab e86eb7ffff      call    image00400000+0x261e (0040261e)
00406eb0 ffb6c0000000    push    dword ptr [esi+0C0h]
00406eb6 e863b7ffff      call    image00400000+0x261e (0040261e)
00406ebb 83c410          add     esp,10h
00406ebe 8b86d4000000    mov     eax,dword ptr [esi+0D4h]
00406ec4 3dc0064100      cmp     eax,offset image00400000+0x106c0 (004106c0)
00406ec9 741b            je      image00400000+0x6ee6 (00406ee6)
00406ecb 3998b4000000    cmp     dword ptr [eax+0B4h],ebx
00406ed1 7513            jne     image00400000+0x6ee6 (00406ee6)
00406ed3 50              push    eax
00406ed4 e846340000      call    image00400000+0xa31f (0040a31f)
00406ed9 ffb6d4000000    push    dword ptr [esi+0D4h]
00406edf e83ab7ffff      call    image00400000+0x261e (0040261e)
00406ee4 59              pop     ecx
00406ee5 59              pop     ecx
00406ee6 8d7e50          lea     edi,[esi+50h]
00406ee9 c7450806000000  mov     dword ptr [ebp+8],6
00406ef0 817ff8bc064100  cmp     dword ptr [edi-8],offset image00400000+0x106bc (004106bc)
00406ef7 7411            je      image00400000+0x6f0a (00406f0a)
00406ef9 8b07            mov     eax,dword ptr [edi]
00406efb 3bc3            cmp     eax,ebx
00406efd 740b            je      image00400000+0x6f0a (00406f0a)
00406eff 3918            cmp     dword ptr [eax],ebx
00406f01 7507            jne     image00400000+0x6f0a (00406f0a)
00406f03 50              push    eax
00406f04 e815b7ffff      call    image00400000+0x261e (0040261e)
00406f09 59              pop     ecx
00406f0a 395ffc          cmp     dword ptr [edi-4],ebx
00406f0d 7412            je      image00400000+0x6f21 (00406f21)
00406f0f 8b4704          mov     eax,dword ptr [edi+4]
00406f12 3bc3            cmp     eax,ebx
00406f14 740b            je      image00400000+0x6f21 (00406f21)
00406f16 3918            cmp     dword ptr [eax],ebx
00406f18 7507            jne     image00400000+0x6f21 (00406f21)
00406f1a 50              push    eax
00406f1b e8feb6ffff      call    image00400000+0x261e (0040261e)
00406f20 59              pop     ecx
00406f21 83c710          add     edi,10h
00406f24 ff4d08          dec     dword ptr [ebp+8]
00406f27 75c7            jne     image00400000+0x6ef0 (00406ef0)
00406f29 56              push    esi
00406f2a e8efb6ffff      call    image00400000+0x261e (0040261e)
00406f2f 59              pop     ecx
00406f30 5f              pop     edi
00406f31 5e              pop     esi
00406f32 5b              pop     ebx
00406f33 5d              pop     ebp
00406f34 c3              ret
00406f35 8bff            mov     edi,edi
00406f37 55              push    ebp
00406f38 8bec            mov     ebp,esp
00406f3a 57              push    edi
00406f3b 8b7d0c          mov     edi,dword ptr [ebp+0Ch]
00406f3e 85ff            test    edi,edi
00406f40 743b            je      image00400000+0x6f7d (00406f7d)
00406f42 8b4508          mov     eax,dword ptr [ebp+8]
00406f45 85c0            test    eax,eax
00406f47 7434            je      image00400000+0x6f7d (00406f7d)
00406f49 56              push    esi
00406f4a 8b30            mov     esi,dword ptr [eax]
00406f4c 3bf7            cmp     esi,edi
00406f4e 7428            je      image00400000+0x6f78 (00406f78)
00406f50 57              push    edi
00406f51 8938            mov     dword ptr [eax],edi
00406f53 e86afdffff      call    image00400000+0x6cc2 (00406cc2)
00406f58 59              pop     ecx
00406f59 85f6            test    esi,esi
00406f5b 741b            je      image00400000+0x6f78 (00406f78)
00406f5d 56              push    esi
00406f5e e8eefdffff      call    image00400000+0x6d51 (00406d51)
00406f63 833e00          cmp     dword ptr [esi],0
00406f66 59              pop     ecx
00406f67 750f            jne     image00400000+0x6f78 (00406f78)
00406f69 81fe28084100    cmp     esi,offset image00400000+0x10828 (00410828)
00406f6f 7407            je      image00400000+0x6f78 (00406f78)
00406f71 56              push    esi
00406f72 e873feffff      call    image00400000+0x6dea (00406dea)
00406f77 59              pop     ecx
00406f78 8bc7            mov     eax,edi
00406f7a 5e              pop     esi
00406f7b eb02            jmp     image00400000+0x6f7f (00406f7f)
00406f7d 33c0            xor     eax,eax
00406f7f 5f              pop     edi
00406f80 5d              pop     ebp
00406f81 c3              ret
00406f82 6a0c            push    0Ch
00406f84 6890ef4000      push    offset image00400000+0xef90 (0040ef90)
00406f89 e8120a0000      call    image00400000+0x79a0 (004079a0)
00406f8e e887f3ffff      call    image00400000+0x631a (0040631a)
00406f93 8bf0            mov     esi,eax
00406f95 a1b8064100      mov     eax,dword ptr [image00400000+0x106b8 (004106b8)]
00406f9a 854670          test    dword ptr [esi+70h],eax
00406f9d 7422            je      image00400000+0x6fc1 (00406fc1)
00406f9f 837e6c00        cmp     dword ptr [esi+6Ch],0
00406fa3 741c            je      image00400000+0x6fc1 (00406fc1)
00406fa5 e870f3ffff      call    image00400000+0x631a (0040631a)
00406faa 8b706c          mov     esi,dword ptr [eax+6Ch]
00406fad 85f6            test    esi,esi
00406faf 7508            jne     image00400000+0x6fb9 (00406fb9)
00406fb1 6a20            push    20h
00406fb3 e8f9e2ffff      call    image00400000+0x52b1 (004052b1)
00406fb8 59              pop     ecx
00406fb9 8bc6            mov     eax,esi
00406fbb e8250a0000      call    image00400000+0x79e5 (004079e5)
00406fc0 c3              ret
00406fc1 6a0c            push    0Ch
00406fc3 e846260000      call    image00400000+0x960e (0040960e)
00406fc8 59              pop     ecx
00406fc9 8365fc00        and     dword ptr [ebp-4],0
00406fcd ff3500094100    push    dword ptr [image00400000+0x10900 (00410900)]
00406fd3 83c66c          add     esi,6Ch
00406fd6 56              push    esi
00406fd7 e859ffffff      call    image00400000+0x6f35 (00406f35)
00406fdc 59              pop     ecx
00406fdd 59              pop     ecx
00406fde 8945e4          mov     dword ptr [ebp-1Ch],eax
00406fe1 c745fcfeffffff  mov     dword ptr [ebp-4],0FFFFFFFEh
00406fe8 e802000000      call    image00400000+0x6fef (00406fef)
00406fed ebbe            jmp     image00400000+0x6fad (00406fad)
00406fef 6a0c            push    0Ch
00406ff1 e83f250000      call    image00400000+0x9535 (00409535)
00406ff6 59              pop     ecx
00406ff7 8b75e4          mov     esi,dword ptr [ebp-1Ch]
00406ffa c3              ret
00406ffb 8bff            mov     edi,edi
00406ffd 55              push    ebp
00406ffe 8bec            mov     ebp,esp
00407000 56              push    esi
00407001 8b7508          mov     esi,dword ptr [ebp+8]
00407004 57              push    edi
00407005 85f6            test    esi,esi
00407007 7407            je      image00400000+0x7010 (00407010)
00407009 8b7d0c          mov     edi,dword ptr [ebp+0Ch]
0040700c 85ff            test    edi,edi
0040700e 7515            jne     image00400000+0x7025 (00407025)
00407010 e81cceffff      call    image00400000+0x3e31 (00403e31)
00407015 6a16            push    16h
00407017 5e              pop     esi
00407018 8930            mov     dword ptr [eax],esi
0040701a e8c0cdffff      call    image00400000+0x3ddf (00403ddf)
0040701f 8bc6            mov     eax,esi
00407021 5f              pop     edi
00407022 5e              pop     esi
00407023 5d              pop     ebp
00407024 c3              ret
00407025 8b4510          mov     eax,dword ptr [ebp+10h]
00407028 85c0            test    eax,eax
0040702a 7505            jne     image00400000+0x7031 (00407031)
0040702c 668906          mov     word ptr [esi],ax
0040702f ebdf            jmp     image00400000+0x7010 (00407010)
00407031 8bd6            mov     edx,esi
00407033 2bd0            sub     edx,eax
00407035 0fb708          movzx   ecx,word ptr [eax]
00407038 66890c02        mov     word ptr [edx+eax],cx
0040703c 83c002          add     eax,2
0040703f 6685c9          test    cx,cx
00407042 7403            je      image00400000+0x7047 (00407047)
00407044 4f              dec     edi
00407045 75ee            jne     image00400000+0x7035 (00407035)
00407047 33c0            xor     eax,eax
00407049 85ff            test    edi,edi
0040704b 75d4            jne     image00400000+0x7021 (00407021)
0040704d 668906          mov     word ptr [esi],ax
00407050 e8dccdffff      call    image00400000+0x3e31 (00403e31)
00407055 6a22            push    22h
00407057 59              pop     ecx
00407058 8908            mov     dword ptr [eax],ecx
0040705a 8bf1            mov     esi,ecx
0040705c ebbc            jmp     image00400000+0x701a (0040701a)
0040705e 8bff            mov     edi,edi
00407060 55              push    ebp
00407061 8bec            mov     ebp,esp
00407063 8b4514          mov     eax,dword ptr [ebp+14h]
00407066 85c0            test    eax,eax
00407068 7e0b            jle     image00400000+0x7075 (00407075)
0040706a 50              push    eax
0040706b ff7510          push    dword ptr [ebp+10h]
0040706e e81a000000      call    image00400000+0x708d (0040708d)
00407073 59              pop     ecx
00407074 59              pop     ecx
00407075 ff751c          push    dword ptr [ebp+1Ch]
00407078 ff7518          push    dword ptr [ebp+18h]
0040707b 50              push    eax
0040707c ff7510          push    dword ptr [ebp+10h]
0040707f ff750c          push    dword ptr [ebp+0Ch]
00407082 ff7508          push    dword ptr [ebp+8]
00407085 ff1504d14000    call    dword ptr [image00400000+0xd104 (0040d104)]
0040708b 5d              pop     ebp
0040708c c3              ret
0040708d 8bff            mov     edi,edi
0040708f 55              push    ebp
00407090 8bec            mov     ebp,esp
00407092 33c0            xor     eax,eax
00407094 39450c          cmp     dword ptr [ebp+0Ch],eax
00407097 7612            jbe     image00400000+0x70ab (004070ab)
00407099 8b4d08          mov     ecx,dword ptr [ebp+8]
0040709c 66833900        cmp     word ptr [ecx],0
004070a0 7409            je      image00400000+0x70ab (004070ab)
004070a2 40              inc     eax
004070a3 83c102          add     ecx,2
004070a6 3b450c          cmp     eax,dword ptr [ebp+0Ch]
004070a9 72f1            jb      image00400000+0x709c (0040709c)
004070ab 5d              pop     ebp
004070ac c3              ret
004070ad cc              int     3
004070ae cc              int     3
004070af cc              int     3
004070b0 51              push    ecx
004070b1 8d4c2408        lea     ecx,[esp+8]
004070b5 2bc8            sub     ecx,eax
004070b7 83e10f          and     ecx,0Fh
004070ba 03c1            add     eax,ecx
004070bc 1bc9            sbb     ecx,ecx
004070be 0bc1            or      eax,ecx
004070c0 59              pop     ecx
004070c1 e93a370000      jmp     image00400000+0xa800 (0040a800)
004070c6 51              push    ecx
004070c7 8d4c2408        lea     ecx,[esp+8]
004070cb 2bc8            sub     ecx,eax
004070cd 83e107          and     ecx,7
004070d0 03c1            add     eax,ecx
004070d2 1bc9            sbb     ecx,ecx
004070d4 0bc1            or      eax,ecx
004070d6 59              pop     ecx
004070d7 e924370000      jmp     image00400000+0xa800 (0040a800)
004070dc cc              int     3
004070dd cc              int     3
004070de cc              int     3
004070df cc              int     3
004070e0 53              push    ebx
004070e1 56              push    esi
004070e2 8b442418        mov     eax,dword ptr [esp+18h]
004070e6 0bc0            or      eax,eax
004070e8 7518            jne     image00400000+0x7102 (00407102)
004070ea 8b4c2414        mov     ecx,dword ptr [esp+14h]
004070ee 8b442410        mov     eax,dword ptr [esp+10h]
004070f2 33d2            xor     edx,edx
004070f4 f7f1            div     eax,ecx
004070f6 8bd8            mov     ebx,eax
004070f8 8b44240c        mov     eax,dword ptr [esp+0Ch]
004070fc f7f1            div     eax,ecx
004070fe 8bd3            mov     edx,ebx
00407100 eb41            jmp     image00400000+0x7143 (00407143)
00407102 8bc8            mov     ecx,eax
00407104 8b5c2414        mov     ebx,dword ptr [esp+14h]
00407108 8b542410        mov     edx,dword ptr [esp+10h]
0040710c 8b44240c        mov     eax,dword ptr [esp+0Ch]
00407110 d1e9            shr     ecx,1
00407112 d1db            rcr     ebx,1
00407114 d1ea            shr     edx,1
00407116 d1d8            rcr     eax,1
00407118 0bc9            or      ecx,ecx
0040711a 75f4            jne     image00400000+0x7110 (00407110)
0040711c f7f3            div     eax,ebx
0040711e 8bf0            mov     esi,eax
00407120 f7642418        mul     eax,dword ptr [esp+18h]
00407124 8bc8            mov     ecx,eax
00407126 8b442414        mov     eax,dword ptr [esp+14h]
0040712a f7e6            mul     eax,esi
0040712c 03d1            add     edx,ecx
0040712e 720e            jb      image00400000+0x713e (0040713e)
00407130 3b542410        cmp     edx,dword ptr [esp+10h]
00407134 7708            ja      image00400000+0x713e (0040713e)
00407136 7207            jb      image00400000+0x713f (0040713f)
00407138 3b44240c        cmp     eax,dword ptr [esp+0Ch]
0040713c 7601            jbe     image00400000+0x713f (0040713f)
0040713e 4e              dec     esi
0040713f 33d2            xor     edx,edx
00407141 8bc6            mov     eax,esi
00407143 5e              pop     esi
00407144 5b              pop     ebx
00407145 c21000          ret     10h
00407148 8bff            mov     edi,edi
0040714a 55              push    ebp
0040714b 8bec            mov     ebp,esp
0040714d 8b4508          mov     eax,dword ptr [ebp+8]
00407150 8b00            mov     eax,dword ptr [eax]
00407152 813863736de0    cmp     dword ptr [eax],0E06D7363h
00407158 752a            jne     image00400000+0x7184 (00407184)
0040715a 83781003        cmp     dword ptr [eax+10h],3
0040715e 7524            jne     image00400000+0x7184 (00407184)
00407160 8b4014          mov     eax,dword ptr [eax+14h]
00407163 3d20059319      cmp     eax,19930520h
00407168 7415            je      image00400000+0x717f (0040717f)
0040716a 3d21059319      cmp     eax,19930521h
0040716f 740e            je      image00400000+0x717f (0040717f)
00407171 3d22059319      cmp     eax,19930522h
00407176 7407            je      image00400000+0x717f (0040717f)
00407178 3d00409901      cmp     eax,1994000h
0040717d 7505            jne     image00400000+0x7184 (00407184)
0040717f e8bd240000      call    image00400000+0x9641 (00409641)
00407184 33c0            xor     eax,eax
00407186 5d              pop     ebp
00407187 c20400          ret     4
0040718a 6848714000      push    offset image00400000+0x7148 (00407148)
0040718f ff15acd04000    call    dword ptr [image00400000+0xd0ac (0040d0ac)]
00407195 33c0            xor     eax,eax
00407197 c3              ret
00407198 8bff            mov     edi,edi
0040719a 55              push    ebp
0040719b 8bec            mov     ebp,esp
0040719d 56              push    esi
0040719e e8fef0ffff      call    image00400000+0x62a1 (004062a1)
004071a3 8bf0            mov     esi,eax
004071a5 85f6            test    esi,esi
004071a7 0f8432010000    je      image00400000+0x72df (004072df)
004071ad 8b4e5c          mov     ecx,dword ptr [esi+5Ch]
004071b0 8b5508          mov     edx,dword ptr [ebp+8]
004071b3 8bc1            mov     eax,ecx
004071b5 57              push    edi
004071b6 3910            cmp     dword ptr [eax],edx
004071b8 740d            je      image00400000+0x71c7 (004071c7)
004071ba 83c00c          add     eax,0Ch
004071bd 8db990000000    lea     edi,[ecx+90h]
004071c3 3bc7            cmp     eax,edi
004071c5 72ef            jb      image00400000+0x71b6 (004071b6)
004071c7 81c190000000    add     ecx,90h
004071cd 3bc1            cmp     eax,ecx
004071cf 7304            jae     image00400000+0x71d5 (004071d5)
004071d1 3910            cmp     dword ptr [eax],edx
004071d3 7402            je      image00400000+0x71d7 (004071d7)
004071d5 33c0            xor     eax,eax
004071d7 85c0            test    eax,eax
004071d9 7407            je      image00400000+0x71e2 (004071e2)
004071db 8b5008          mov     edx,dword ptr [eax+8]
004071de 85d2            test    edx,edx
004071e0 7507            jne     image00400000+0x71e9 (004071e9)
004071e2 33c0            xor     eax,eax
004071e4 e9f5000000      jmp     image00400000+0x72de (004072de)
004071e9 83fa05          cmp     edx,5
004071ec 750c            jne     image00400000+0x71fa (004071fa)
004071ee 83600800        and     dword ptr [eax+8],0
004071f2 33c0            xor     eax,eax
004071f4 40              inc     eax
004071f5 e9e4000000      jmp     image00400000+0x72de (004072de)
004071fa 83fa01          cmp     edx,1
004071fd 0f84d8000000    je      image00400000+0x72db (004072db)
00407203 8b4d0c          mov     ecx,dword ptr [ebp+0Ch]
00407206 53              push    ebx
00407207 8b5e60          mov     ebx,dword ptr [esi+60h]
0040720a 894e60          mov     dword ptr [esi+60h],ecx
0040720d 8b4804          mov     ecx,dword ptr [eax+4]
00407210 83f908          cmp     ecx,8
00407213 0f85b6000000    jne     image00400000+0x72cf (004072cf)
00407219 6a24            push    24h
0040721b 59              pop     ecx
0040721c 8b7e5c          mov     edi,dword ptr [esi+5Ch]
0040721f 8364390800      and     dword ptr [ecx+edi+8],0
00407224 83c10c          add     ecx,0Ch
00407227 81f990000000    cmp     ecx,90h
0040722d 7ced            jl      image00400000+0x721c (0040721c)
0040722f 8b00            mov     eax,dword ptr [eax]
00407231 8b7e64          mov     edi,dword ptr [esi+64h]
00407234 3d8e0000c0      cmp     eax,0C000008Eh
00407239 7509            jne     image00400000+0x7244 (00407244)
0040723b c7466483000000  mov     dword ptr [esi+64h],83h
00407242 eb7e            jmp     image00400000+0x72c2 (004072c2)
00407244 3d900000c0      cmp     eax,0C0000090h
00407249 7509            jne     image00400000+0x7254 (00407254)
0040724b c7466481000000  mov     dword ptr [esi+64h],81h
00407252 eb6e            jmp     image00400000+0x72c2 (004072c2)
00407254 3d910000c0      cmp     eax,0C0000091h
00407259 7509            jne     image00400000+0x7264 (00407264)
0040725b c7466484000000  mov     dword ptr [esi+64h],84h
00407262 eb5e            jmp     image00400000+0x72c2 (004072c2)
00407264 3d930000c0      cmp     eax,0C0000093h
00407269 7509            jne     image00400000+0x7274 (00407274)
0040726b c7466485000000  mov     dword ptr [esi+64h],85h
00407272 eb4e            jmp     image00400000+0x72c2 (004072c2)
00407274 3d8d0000c0      cmp     eax,0C000008Dh
00407279 7509            jne     image00400000+0x7284 (00407284)
0040727b c7466482000000  mov     dword ptr [esi+64h],82h
00407282 eb3e            jmp     image00400000+0x72c2 (004072c2)
00407284 3d8f0000c0      cmp     eax,0C000008Fh
00407289 7509            jne     image00400000+0x7294 (00407294)
0040728b c7466486000000  mov     dword ptr [esi+64h],86h
00407292 eb2e            jmp     image00400000+0x72c2 (004072c2)
00407294 3d920000c0      cmp     eax,0C0000092h
00407299 7509            jne     image00400000+0x72a4 (004072a4)
0040729b c746648a000000  mov     dword ptr [esi+64h],8Ah
004072a2 eb1e            jmp     image00400000+0x72c2 (004072c2)
004072a4 3db50200c0      cmp     eax,0C00002B5h
004072a9 7509            jne     image00400000+0x72b4 (004072b4)
004072ab c746648d000000  mov     dword ptr [esi+64h],8Dh
004072b2 eb0e            jmp     image00400000+0x72c2 (004072c2)
004072b4 3db40200c0      cmp     eax,0C00002B4h
004072b9 7507            jne     image00400000+0x72c2 (004072c2)
004072bb c746648e000000  mov     dword ptr [esi+64h],8Eh
004072c2 ff7664          push    dword ptr [esi+64h]
004072c5 6a08            push    8
004072c7 ffd2            call    edx
004072c9 59              pop     ecx
004072ca 897e64          mov     dword ptr [esi+64h],edi
004072cd eb07            jmp     image00400000+0x72d6 (004072d6)
004072cf 83600800        and     dword ptr [eax+8],0
004072d3 51              push    ecx
004072d4 ffd2            call    edx
004072d6 59              pop     ecx
004072d7 895e60          mov     dword ptr [esi+60h],ebx
004072da 5b              pop     ebx
004072db 83c8ff          or      eax,0FFFFFFFFh
004072de 5f              pop     edi
004072df 5e              pop     esi
004072e0 5d              pop     ebp
004072e1 c3              ret
004072e2 8bff            mov     edi,edi
004072e4 56              push    esi
004072e5 57              push    edi
004072e6 33ff            xor     edi,edi
004072e8 393dac2c4100    cmp     dword ptr [image00400000+0x12cac (00412cac)],edi
004072ee 7505            jne     image00400000+0x72f5 (004072f5)
004072f0 e8aff9ffff      call    image00400000+0x6ca4 (00406ca4)
004072f5 8b35b82c4100    mov     esi,dword ptr [image00400000+0x12cb8 (00412cb8)]
004072fb 85f6            test    esi,esi
004072fd 7505            jne     image00400000+0x7304 (00407304)
004072ff be6fe04000      mov     esi,offset image00400000+0xe06f (0040e06f)
00407304 8a06            mov     al,byte ptr [esi]
00407306 3c20            cmp     al,20h
00407308 7708            ja      image00400000+0x7312 (00407312)
0040730a 84c0            test    al,al
0040730c 742e            je      image00400000+0x733c (0040733c)
0040730e 85ff            test    edi,edi
00407310 7424            je      image00400000+0x7336 (00407336)
00407312 3c22            cmp     al,22h
00407314 7509            jne     image00400000+0x731f (0040731f)
00407316 33c9            xor     ecx,ecx
00407318 85ff            test    edi,edi
0040731a 0f94c1          sete    cl
0040731d 8bf9            mov     edi,ecx
0040731f 0fb6c0          movzx   eax,al
00407322 50              push    eax
00407323 e8db360000      call    image00400000+0xaa03 (0040aa03)
00407328 59              pop     ecx
00407329 85c0            test    eax,eax
0040732b 7401            je      image00400000+0x732e (0040732e)
0040732d 46              inc     esi
0040732e 46              inc     esi
0040732f ebd3            jmp     image00400000+0x7304 (00407304)
00407331 3c20            cmp     al,20h
00407333 7707            ja      image00400000+0x733c (0040733c)
00407335 46              inc     esi
00407336 8a06            mov     al,byte ptr [esi]
00407338 84c0            test    al,al
0040733a 75f5            jne     image00400000+0x7331 (00407331)
0040733c 5f              pop     edi
0040733d 8bc6            mov     eax,esi
0040733f 5e              pop     esi
00407340 c3              ret
00407341 833dac2c410000  cmp     dword ptr [image00400000+0x12cac (00412cac)],0
00407348 7505            jne     image00400000+0x734f (0040734f)
0040734a e855f9ffff      call    image00400000+0x6ca4 (00406ca4)
0040734f 56              push    esi
00407350 8b35e00e4100    mov     esi,dword ptr [image00400000+0x10ee0 (00410ee0)]
00407356 57              push    edi
00407357 33ff            xor     edi,edi
00407359 85f6            test    esi,esi
0040735b 7518            jne     image00400000+0x7375 (00407375)
0040735d 83c8ff          or      eax,0FFFFFFFFh
00407360 e991000000      jmp     image00400000+0x73f6 (004073f6)
00407365 3c3d            cmp     al,3Dh
00407367 7401            je      image00400000+0x736a (0040736a)
00407369 47              inc     edi
0040736a 56              push    esi
0040736b e810cbffff      call    image00400000+0x3e80 (00403e80)
00407370 59              pop     ecx
00407371 8d740601        lea     esi,[esi+eax+1]
00407375 8a06            mov     al,byte ptr [esi]
00407377 84c0            test    al,al
00407379 75ea            jne     image00400000+0x7365 (00407365)
0040737b 6a04            push    4
0040737d 47              inc     edi
0040737e 57              push    edi
0040737f e8d0140000      call    image00400000+0x8854 (00408854)
00407384 8bf8            mov     edi,eax
00407386 59              pop     ecx
00407387 59              pop     ecx
00407388 893d2c124100    mov     dword ptr [image00400000+0x1122c (0041122c)],edi
0040738e 85ff            test    edi,edi
00407390 74cb            je      image00400000+0x735d (0040735d)
00407392 8b35e00e4100    mov     esi,dword ptr [image00400000+0x10ee0 (00410ee0)]
00407398 53              push    ebx
00407399 eb33            jmp     image00400000+0x73ce (004073ce)
0040739b 56              push    esi
0040739c e8dfcaffff      call    image00400000+0x3e80 (00403e80)
004073a1 803e3d          cmp     byte ptr [esi],3Dh
004073a4 59              pop     ecx
004073a5 8d5801          lea     ebx,[eax+1]
004073a8 7422            je      image00400000+0x73cc (004073cc)
004073aa 6a01            push    1
004073ac 53              push    ebx
004073ad e8a2140000      call    image00400000+0x8854 (00408854)
004073b2 59              pop     ecx
004073b3 59              pop     ecx
004073b4 8907            mov     dword ptr [edi],eax
004073b6 85c0            test    eax,eax
004073b8 743f            je      image00400000+0x73f9 (004073f9)
004073ba 56              push    esi
004073bb 53              push    ebx
004073bc 50              push    eax
004073bd e8b4340000      call    image00400000+0xa876 (0040a876)
004073c2 83c40c          add     esp,0Ch
004073c5 85c0            test    eax,eax
004073c7 7547            jne     image00400000+0x7410 (00407410)
004073c9 83c704          add     edi,4
004073cc 03f3            add     esi,ebx
004073ce 803e00          cmp     byte ptr [esi],0
004073d1 75c8            jne     image00400000+0x739b (0040739b)
004073d3 ff35e00e4100    push    dword ptr [image00400000+0x10ee0 (00410ee0)]
004073d9 e840b2ffff      call    image00400000+0x261e (0040261e)
004073de 8325e00e410000  and     dword ptr [image00400000+0x10ee0 (00410ee0)],0
004073e5 832700          and     dword ptr [edi],0
004073e8 c705a02c410001000000 mov dword ptr [image00400000+0x12ca0 (00412ca0)],1
004073f2 33c0            xor     eax,eax
004073f4 59              pop     ecx
004073f5 5b              pop     ebx
004073f6 5f              pop     edi
004073f7 5e              pop     esi
004073f8 c3              ret
004073f9 ff352c124100    push    dword ptr [image00400000+0x1122c (0041122c)]
004073ff e81ab2ffff      call    image00400000+0x261e (0040261e)
00407404 83252c12410000  and     dword ptr [image00400000+0x1122c (0041122c)],0
0040740b 83c8ff          or      eax,0FFFFFFFFh
0040740e ebe4            jmp     image00400000+0x73f4 (004073f4)
00407410 33c0            xor     eax,eax
00407412 50              push    eax
00407413 50              push    eax
00407414 50              push    eax
00407415 50              push    eax
00407416 50              push    eax
00407417 e871c9ffff      call    image00400000+0x3d8d (00403d8d)
0040741c cc              int     3
0040741d 8bff            mov     edi,edi
0040741f 55              push    ebp
00407420 8bec            mov     ebp,esp
00407422 51              push    ecx
00407423 8b4d10          mov     ecx,dword ptr [ebp+10h]
00407426 53              push    ebx
00407427 33c0            xor     eax,eax
00407429 56              push    esi
0040742a 8907            mov     dword ptr [edi],eax
0040742c 8bf2            mov     esi,edx
0040742e 8b550c          mov     edx,dword ptr [ebp+0Ch]
00407431 c70101000000    mov     dword ptr [ecx],1
00407437 394508          cmp     dword ptr [ebp+8],eax
0040743a 7409            je      image00400000+0x7445 (00407445)
0040743c 8b5d08          mov     ebx,dword ptr [ebp+8]
0040743f 83450804        add     dword ptr [ebp+8],4
00407443 8913            mov     dword ptr [ebx],edx
00407445 8945fc          mov     dword ptr [ebp-4],eax
00407448 803e22          cmp     byte ptr [esi],22h
0040744b 7510            jne     image00400000+0x745d (0040745d)
0040744d 33c0            xor     eax,eax
0040744f 3945fc          cmp     dword ptr [ebp-4],eax
00407452 b322            mov     bl,22h
00407454 0f94c0          sete    al
00407457 46              inc     esi
00407458 8945fc          mov     dword ptr [ebp-4],eax
0040745b eb3c            jmp     image00400000+0x7499 (00407499)
0040745d ff07            inc     dword ptr [edi]
0040745f 85d2            test    edx,edx
00407461 7408            je      image00400000+0x746b (0040746b)
00407463 8a06            mov     al,byte ptr [esi]
00407465 8802            mov     byte ptr [edx],al
00407467 42              inc     edx
00407468 89550c          mov     dword ptr [ebp+0Ch],edx
0040746b 8a1e            mov     bl,byte ptr [esi]
0040746d 0fb6c3          movzx   eax,bl
00407470 50              push    eax
00407471 46              inc     esi
00407472 e88c350000      call    image00400000+0xaa03 (0040aa03)
00407477 59              pop     ecx
00407478 85c0            test    eax,eax
0040747a 7413            je      image00400000+0x748f (0040748f)
0040747c ff07            inc     dword ptr [edi]
0040747e 837d0c00        cmp     dword ptr [ebp+0Ch],0
00407482 740a            je      image00400000+0x748e (0040748e)
00407484 8b4d0c          mov     ecx,dword ptr [ebp+0Ch]
00407487 8a06            mov     al,byte ptr [esi]
00407489 ff450c          inc     dword ptr [ebp+0Ch]
0040748c 8801            mov     byte ptr [ecx],al
0040748e 46              inc     esi
0040748f 8b550c          mov     edx,dword ptr [ebp+0Ch]
00407492 8b4d10          mov     ecx,dword ptr [ebp+10h]
00407495 84db            test    bl,bl
00407497 7432            je      image00400000+0x74cb (004074cb)
00407499 837dfc00        cmp     dword ptr [ebp-4],0
0040749d 75a9            jne     image00400000+0x7448 (00407448)
0040749f 80fb20          cmp     bl,20h
004074a2 7405            je      image00400000+0x74a9 (004074a9)
004074a4 80fb09          cmp     bl,9
004074a7 759f            jne     image00400000+0x7448 (00407448)
004074a9 85d2            test    edx,edx
004074ab 7404            je      image00400000+0x74b1 (004074b1)
004074ad c642ff00        mov     byte ptr [edx-1],0
004074b1 8365fc00        and     dword ptr [ebp-4],0
004074b5 803e00          cmp     byte ptr [esi],0
004074b8 0f84e9000000    je      image00400000+0x75a7 (004075a7)
004074be 8a06            mov     al,byte ptr [esi]
004074c0 3c20            cmp     al,20h
004074c2 7404            je      image00400000+0x74c8 (004074c8)
004074c4 3c09            cmp     al,9
004074c6 7506            jne     image00400000+0x74ce (004074ce)
004074c8 46              inc     esi
004074c9 ebf3            jmp     image00400000+0x74be (004074be)
004074cb 4e              dec     esi
004074cc ebe3            jmp     image00400000+0x74b1 (004074b1)
004074ce 803e00          cmp     byte ptr [esi],0
004074d1 0f84d0000000    je      image00400000+0x75a7 (004075a7)
004074d7 837d0800        cmp     dword ptr [ebp+8],0
004074db 7409            je      image00400000+0x74e6 (004074e6)
004074dd 8b4508          mov     eax,dword ptr [ebp+8]
004074e0 83450804        add     dword ptr [ebp+8],4
004074e4 8910            mov     dword ptr [eax],edx
004074e6 ff01            inc     dword ptr [ecx]
004074e8 33db            xor     ebx,ebx
004074ea 43              inc     ebx
004074eb 33c9            xor     ecx,ecx
004074ed eb02            jmp     image00400000+0x74f1 (004074f1)
004074ef 46              inc     esi
004074f0 41              inc     ecx
004074f1 803e5c          cmp     byte ptr [esi],5Ch
004074f4 74f9            je      image00400000+0x74ef (004074ef)
004074f6 803e22          cmp     byte ptr [esi],22h
004074f9 7526            jne     image00400000+0x7521 (00407521)
004074fb f6c101          test    cl,1
004074fe 751f            jne     image00400000+0x751f (0040751f)
00407500 837dfc00        cmp     dword ptr [ebp-4],0
00407504 740c            je      image00400000+0x7512 (00407512)
00407506 8d4601          lea     eax,[esi+1]
00407509 803822          cmp     byte ptr [eax],22h
0040750c 7504            jne     image00400000+0x7512 (00407512)
0040750e 8bf0            mov     esi,eax
00407510 eb0d            jmp     image00400000+0x751f (0040751f)
00407512 33c0            xor     eax,eax
00407514 33db            xor     ebx,ebx
00407516 3945fc          cmp     dword ptr [ebp-4],eax
00407519 0f94c0          sete    al
0040751c 8945fc          mov     dword ptr [ebp-4],eax
0040751f d1e9            shr     ecx,1
00407521 85c9            test    ecx,ecx
00407523 7412            je      image00400000+0x7537 (00407537)
00407525 49              dec     ecx
00407526 85d2            test    edx,edx
00407528 7404            je      image00400000+0x752e (0040752e)
0040752a c6025c          mov     byte ptr [edx],5Ch
0040752d 42              inc     edx
0040752e ff07            inc     dword ptr [edi]
00407530 85c9            test    ecx,ecx
00407532 75f1            jne     image00400000+0x7525 (00407525)
00407534 89550c          mov     dword ptr [ebp+0Ch],edx
00407537 8a06            mov     al,byte ptr [esi]
00407539 84c0            test    al,al
0040753b 7455            je      image00400000+0x7592 (00407592)
0040753d 837dfc00        cmp     dword ptr [ebp-4],0
00407541 7508            jne     image00400000+0x754b (0040754b)
00407543 3c20            cmp     al,20h
00407545 744b            je      image00400000+0x7592 (00407592)
00407547 3c09            cmp     al,9
00407549 7447            je      image00400000+0x7592 (00407592)
0040754b 85db            test    ebx,ebx
0040754d 743d            je      image00400000+0x758c (0040758c)
0040754f 0fbec0          movsx   eax,al
00407552 50              push    eax
00407553 85d2            test    edx,edx
00407555 7423            je      image00400000+0x757a (0040757a)
00407557 e8a7340000      call    image00400000+0xaa03 (0040aa03)
0040755c 59              pop     ecx
0040755d 85c0            test    eax,eax
0040755f 740d            je      image00400000+0x756e (0040756e)
00407561 8a06            mov     al,byte ptr [esi]
00407563 8b4d0c          mov     ecx,dword ptr [ebp+0Ch]
00407566 ff450c          inc     dword ptr [ebp+0Ch]
00407569 8801            mov     byte ptr [ecx],al
0040756b 46              inc     esi
0040756c ff07            inc     dword ptr [edi]
0040756e 8b4d0c          mov     ecx,dword ptr [ebp+0Ch]
00407571 8a06            mov     al,byte ptr [esi]
00407573 ff450c          inc     dword ptr [ebp+0Ch]
00407576 8801            mov     byte ptr [ecx],al
00407578 eb0d            jmp     image00400000+0x7587 (00407587)
0040757a e884340000      call    image00400000+0xaa03 (0040aa03)
0040757f 59              pop     ecx
00407580 85c0            test    eax,eax
00407582 7403            je      image00400000+0x7587 (00407587)
00407584 46              inc     esi
00407585 ff07            inc     dword ptr [edi]
00407587 ff07            inc     dword ptr [edi]
00407589 8b550c          mov     edx,dword ptr [ebp+0Ch]
0040758c 46              inc     esi
0040758d e956ffffff      jmp     image00400000+0x74e8 (004074e8)
00407592 85d2            test    edx,edx
00407594 7407            je      image00400000+0x759d (0040759d)
00407596 c60200          mov     byte ptr [edx],0
00407599 42              inc     edx
0040759a 89550c          mov     dword ptr [ebp+0Ch],edx
0040759d ff07            inc     dword ptr [edi]
0040759f 8b4d10          mov     ecx,dword ptr [ebp+10h]
004075a2 e90effffff      jmp     image00400000+0x74b5 (004074b5)
004075a7 8b4508          mov     eax,dword ptr [ebp+8]
004075aa 5e              pop     esi
004075ab 5b              pop     ebx
004075ac 85c0            test    eax,eax
004075ae 7403            je      image00400000+0x75b3 (004075b3)
004075b0 832000          and     dword ptr [eax],0
004075b3 ff01            inc     dword ptr [ecx]
004075b5 c9              leave
004075b6 c3              ret
004075b7 8bff            mov     edi,edi
004075b9 55              push    ebp
004075ba 8bec            mov     ebp,esp
004075bc 83ec0c          sub     esp,0Ch
004075bf 53              push    ebx
004075c0 33db            xor     ebx,ebx
004075c2 56              push    esi
004075c3 57              push    edi
004075c4 391dac2c4100    cmp     dword ptr [image00400000+0x12cac (00412cac)],ebx
004075ca 7505            jne     image00400000+0x75d1 (004075d1)
004075cc e8d3f6ffff      call    image00400000+0x6ca4 (00406ca4)
004075d1 6804010000      push    104h
004075d6 beb0184100      mov     esi,offset image00400000+0x118b0 (004118b0)
004075db 56              push    esi
004075dc 53              push    ebx
004075dd 881db4194100    mov     byte ptr [image00400000+0x119b4 (004119b4)],bl
004075e3 ff1508d14000    call    dword ptr [image00400000+0xd108 (0040d108)]
004075e9 a1b82c4100      mov     eax,dword ptr [image00400000+0x12cb8 (00412cb8)]
004075ee 89353c124100    mov     dword ptr [image00400000+0x1123c (0041123c)],esi
004075f4 3bc3            cmp     eax,ebx
004075f6 7407            je      image00400000+0x75ff (004075ff)
004075f8 8945fc          mov     dword ptr [ebp-4],eax
004075fb 3818            cmp     byte ptr [eax],bl
004075fd 7503            jne     image00400000+0x7602 (00407602)
004075ff 8975fc          mov     dword ptr [ebp-4],esi
00407602 8b55fc          mov     edx,dword ptr [ebp-4]
00407605 8d45f8          lea     eax,[ebp-8]
00407608 50              push    eax
00407609 53              push    ebx
0040760a 53              push    ebx
0040760b 8d7df4          lea     edi,[ebp-0Ch]
0040760e e80afeffff      call    image00400000+0x741d (0040741d)
00407613 8b45f8          mov     eax,dword ptr [ebp-8]
00407616 83c40c          add     esp,0Ch
00407619 3dffffff3f      cmp     eax,3FFFFFFFh
0040761e 734a            jae     image00400000+0x766a (0040766a)
00407620 8b4df4          mov     ecx,dword ptr [ebp-0Ch]
00407623 83f9ff          cmp     ecx,0FFFFFFFFh
00407626 7342            jae     image00400000+0x766a (0040766a)
00407628 8bf8            mov     edi,eax
0040762a c1e702          shl     edi,2
0040762d 8d040f          lea     eax,[edi+ecx]
00407630 3bc1            cmp     eax,ecx
00407632 7236            jb      image00400000+0x766a (0040766a)
00407634 50              push    eax
00407635 e8d5110000      call    image00400000+0x880f (0040880f)
0040763a 8bf0            mov     esi,eax
0040763c 59              pop     ecx
0040763d 3bf3            cmp     esi,ebx
0040763f 7429            je      image00400000+0x766a (0040766a)
00407641 8b55fc          mov     edx,dword ptr [ebp-4]
00407644 8d45f8          lea     eax,[ebp-8]
00407647 50              push    eax
00407648 03fe            add     edi,esi
0040764a 57              push    edi
0040764b 56              push    esi
0040764c 8d7df4          lea     edi,[ebp-0Ch]
0040764f e8c9fdffff      call    image00400000+0x741d (0040741d)
00407654 8b45f8          mov     eax,dword ptr [ebp-8]
00407657 83c40c          add     esp,0Ch
0040765a 48              dec     eax
0040765b a320124100      mov     dword ptr [image00400000+0x11220 (00411220)],eax
00407660 893524124100    mov     dword ptr [image00400000+0x11224 (00411224)],esi
00407666 33c0            xor     eax,eax
00407668 eb03            jmp     image00400000+0x766d (0040766d)
0040766a 83c8ff          or      eax,0FFFFFFFFh
0040766d 5f              pop     edi
0040766e 5e              pop     esi
0040766f 5b              pop     ebx
00407670 c9              leave
00407671 c3              ret
00407672 8bff            mov     edi,edi
00407674 55              push    ebp
00407675 8bec            mov     ebp,esp
00407677 83ec0c          sub     esp,0Ch
0040767a 53              push    ebx
0040767b 56              push    esi
0040767c ff1514d14000    call    dword ptr [image00400000+0xd114 (0040d114)]
00407682 8bd8            mov     ebx,eax
00407684 33f6            xor     esi,esi
00407686 3bde            cmp     ebx,esi
00407688 7504            jne     image00400000+0x768e (0040768e)
0040768a 33c0            xor     eax,eax
0040768c eb77            jmp     image00400000+0x7705 (00407705)
0040768e 663933          cmp     word ptr [ebx],si
00407691 7410            je      image00400000+0x76a3 (004076a3)
00407693 83c002          add     eax,2
00407696 663930          cmp     word ptr [eax],si
00407699 75f8            jne     image00400000+0x7693 (00407693)
0040769b 83c002          add     eax,2
0040769e 663930          cmp     word ptr [eax],si
004076a1 75f0            jne     image00400000+0x7693 (00407693)
004076a3 57              push    edi
004076a4 8b3d10d14000    mov     edi,dword ptr [image00400000+0xd110 (0040d110)]
004076aa 56              push    esi
004076ab 56              push    esi
004076ac 56              push    esi
004076ad 2bc3            sub     eax,ebx
004076af 56              push    esi
004076b0 d1f8            sar     eax,1
004076b2 40              inc     eax
004076b3 50              push    eax
004076b4 53              push    ebx
004076b5 56              push    esi
004076b6 56              push    esi
004076b7 8945f4          mov     dword ptr [ebp-0Ch],eax
004076ba ffd7            call    edi
004076bc 8945f8          mov     dword ptr [ebp-8],eax
004076bf 3bc6            cmp     eax,esi
004076c1 7438            je      image00400000+0x76fb (004076fb)
004076c3 50              push    eax
004076c4 e846110000      call    image00400000+0x880f (0040880f)
004076c9 59              pop     ecx
004076ca 8945fc          mov     dword ptr [ebp-4],eax
004076cd 3bc6            cmp     eax,esi
004076cf 742a            je      image00400000+0x76fb (004076fb)
004076d1 56              push    esi
004076d2 56              push    esi
004076d3 ff75f8          push    dword ptr [ebp-8]
004076d6 50              push    eax
004076d7 ff75f4          push    dword ptr [ebp-0Ch]
004076da 53              push    ebx
004076db 56              push    esi
004076dc 56              push    esi
004076dd ffd7            call    edi
004076df 85c0            test    eax,eax
004076e1 750c            jne     image00400000+0x76ef (004076ef)
004076e3 ff75fc          push    dword ptr [ebp-4]
004076e6 e833afffff      call    image00400000+0x261e (0040261e)
004076eb 59              pop     ecx
004076ec 8975fc          mov     dword ptr [ebp-4],esi
004076ef 53              push    ebx
004076f0 ff150cd14000    call    dword ptr [image00400000+0xd10c (0040d10c)]
004076f6 8b45fc          mov     eax,dword ptr [ebp-4]
004076f9 eb09            jmp     image00400000+0x7704 (00407704)
004076fb 53              push    ebx
004076fc ff150cd14000    call    dword ptr [image00400000+0xd10c (0040d10c)]
00407702 33c0            xor     eax,eax
00407704 5f              pop     edi
00407705 5e              pop     esi
00407706 5b              pop     ebx
00407707 c9              leave
00407708 c3              ret
00407709 8bff            mov     edi,edi
0040770b 55              push    ebp
0040770c 8bec            mov     ebp,esp
0040770e 83ec4c          sub     esp,4Ch
00407711 56              push    esi
00407712 8d45b4          lea     eax,[ebp-4Ch]
00407715 50              push    eax
00407716 ff159cd04000    call    dword ptr [image00400000+0xd09c (0040d09c)]
0040771c 6a40            push    40h
0040771e 6a20            push    20h
00407720 5e              pop     esi
00407721 56              push    esi
00407722 e82d110000      call    image00400000+0x8854 (00408854)
00407727 59              pop     ecx
00407728 59              pop     ecx
00407729 33c9            xor     ecx,ecx
0040772b 3bc1            cmp     eax,ecx
0040772d 7508            jne     image00400000+0x7737 (00407737)
0040772f 83c8ff          or      eax,0FFFFFFFFh
00407732 e90f020000      jmp     image00400000+0x7946 (00407946)
00407737 8d9000080000    lea     edx,[eax+800h]
0040773d a3a02b4100      mov     dword ptr [image00400000+0x12ba0 (00412ba0)],eax
00407742 89358c2b4100    mov     dword ptr [image00400000+0x12b8c (00412b8c)],esi
00407748 3bc2            cmp     eax,edx
0040774a 7336            jae     image00400000+0x7782 (00407782)
0040774c 83c005          add     eax,5
0040774f 8348fbff        or      dword ptr [eax-5],0FFFFFFFFh
00407753 66c740ff000a    mov     word ptr [eax-1],0A00h
00407759 894803          mov     dword ptr [eax+3],ecx
0040775c 66c7401f000a    mov     word ptr [eax+1Fh],0A00h
00407762 c640210a        mov     byte ptr [eax+21h],0Ah
00407766 894833          mov     dword ptr [eax+33h],ecx
00407769 88482f          mov     byte ptr [eax+2Fh],cl
0040776c 8b35a02b4100    mov     esi,dword ptr [image00400000+0x12ba0 (00412ba0)]
00407772 83c040          add     eax,40h
00407775 8d50fb          lea     edx,[eax-5]
00407778 81c600080000    add     esi,800h
0040777e 3bd6            cmp     edx,esi
00407780 72cd            jb      image00400000+0x774f (0040774f)
00407782 53              push    ebx
00407783 57              push    edi
00407784 66394de6        cmp     word ptr [ebp-1Ah],cx
00407788 0f840e010000    je      image00400000+0x789c (0040789c)
0040778e 8b45e8          mov     eax,dword ptr [ebp-18h]
00407791 3bc1            cmp     eax,ecx
00407793 0f8403010000    je      image00400000+0x789c (0040789c)
00407799 8b18            mov     ebx,dword ptr [eax]
0040779b 83c004          add     eax,4
0040779e 8945fc          mov     dword ptr [ebp-4],eax
004077a1 03c3            add     eax,ebx
004077a3 be00080000      mov     esi,800h
004077a8 8945f8          mov     dword ptr [ebp-8],eax
004077ab 3bde            cmp     ebx,esi
004077ad 7c02            jl      image00400000+0x77b1 (004077b1)
004077af 8bde            mov     ebx,esi
004077b1 391d8c2b4100    cmp     dword ptr [image00400000+0x12b8c (00412b8c)],ebx
004077b7 7d6b            jge     image00400000+0x7824 (00407824)
004077b9 bfa42b4100      mov     edi,offset image00400000+0x12ba4 (00412ba4)
004077be 6a40            push    40h
004077c0 6a20            push    20h
004077c2 e88d100000      call    image00400000+0x8854 (00408854)
004077c7 59              pop     ecx
004077c8 59              pop     ecx
004077c9 85c0            test    eax,eax
004077cb 7451            je      image00400000+0x781e (0040781e)
004077cd 83058c2b410020  add     dword ptr [image00400000+0x12b8c (00412b8c)],20h
004077d4 8d8800080000    lea     ecx,[eax+800h]
004077da 8907            mov     dword ptr [edi],eax
004077dc 3bc1            cmp     eax,ecx
004077de 7331            jae     image00400000+0x7811 (00407811)
004077e0 83c005          add     eax,5
004077e3 8348fbff        or      dword ptr [eax-5],0FFFFFFFFh
004077e7 83600300        and     dword ptr [eax+3],0
004077eb 80601f80        and     byte ptr [eax+1Fh],80h
004077ef 83603300        and     dword ptr [eax+33h],0
004077f3 66c740ff000a    mov     word ptr [eax-1],0A00h
004077f9 66c740200a0a    mov     word ptr [eax+20h],0A0Ah
004077ff c6402f00        mov     byte ptr [eax+2Fh],0
00407803 8b0f            mov     ecx,dword ptr [edi]
00407805 83c040          add     eax,40h
00407808 03ce            add     ecx,esi
0040780a 8d50fb          lea     edx,[eax-5]
0040780d 3bd1            cmp     edx,ecx
0040780f 72d2            jb      image00400000+0x77e3 (004077e3)
00407811 83c704          add     edi,4
00407814 391d8c2b4100    cmp     dword ptr [image00400000+0x12b8c (00412b8c)],ebx
0040781a 7ca2            jl      image00400000+0x77be (004077be)
0040781c eb06            jmp     image00400000+0x7824 (00407824)
0040781e 8b1d8c2b4100    mov     ebx,dword ptr [image00400000+0x12b8c (00412b8c)]
00407824 33ff            xor     edi,edi
00407826 85db            test    ebx,ebx
00407828 7e72            jle     image00400000+0x789c (0040789c)
0040782a 8b45f8          mov     eax,dword ptr [ebp-8]
0040782d 8b00            mov     eax,dword ptr [eax]
0040782f 83f8ff          cmp     eax,0FFFFFFFFh
00407832 745c            je      image00400000+0x7890 (00407890)
00407834 83f8fe          cmp     eax,0FFFFFFFEh
00407837 7457            je      image00400000+0x7890 (00407890)
00407839 8b4dfc          mov     ecx,dword ptr [ebp-4]
0040783c 8a09            mov     cl,byte ptr [ecx]
0040783e f6c101          test    cl,1
00407841 744d            je      image00400000+0x7890 (00407890)
00407843 f6c108          test    cl,8
00407846 750b            jne     image00400000+0x7853 (00407853)
00407848 50              push    eax
00407849 ff1520d14000    call    dword ptr [image00400000+0xd120 (0040d120)]
0040784f 85c0            test    eax,eax
00407851 743d            je      image00400000+0x7890 (00407890)
00407853 8bf7            mov     esi,edi
00407855 83e61f          and     esi,1Fh
00407858 8bc7            mov     eax,edi
0040785a c1f805          sar     eax,5
0040785d c1e606          shl     esi,6
00407860 033485a02b4100  add     esi,dword ptr image00400000+0x12ba0 (00412ba0)[eax*4]
00407867 8b45f8          mov     eax,dword ptr [ebp-8]
0040786a 8b00            mov     eax,dword ptr [eax]
0040786c 8906            mov     dword ptr [esi],eax
0040786e 8b45fc          mov     eax,dword ptr [ebp-4]
00407871 8a00            mov     al,byte ptr [eax]
00407873 884604          mov     byte ptr [esi+4],al
00407876 68a00f0000      push    0FA0h
0040787b 8d460c          lea     eax,[esi+0Ch]
0040787e 50              push    eax
0040787f ff151cd14000    call    dword ptr [image00400000+0xd11c (0040d11c)]
00407885 85c0            test    eax,eax
00407887 0f84bc000000    je      image00400000+0x7949 (00407949)
0040788d ff4608          inc     dword ptr [esi+8]
00407890 8345f804        add     dword ptr [ebp-8],4
00407894 47              inc     edi
00407895 ff45fc          inc     dword ptr [ebp-4]
00407898 3bfb            cmp     edi,ebx
0040789a 7c8e            jl      image00400000+0x782a (0040782a)
0040789c 33db            xor     ebx,ebx
0040789e 8bf3            mov     esi,ebx
004078a0 c1e606          shl     esi,6
004078a3 0335a02b4100    add     esi,dword ptr [image00400000+0x12ba0 (00412ba0)]
004078a9 8b06            mov     eax,dword ptr [esi]
004078ab 83f8ff          cmp     eax,0FFFFFFFFh
004078ae 740b            je      image00400000+0x78bb (004078bb)
004078b0 83f8fe          cmp     eax,0FFFFFFFEh
004078b3 7406            je      image00400000+0x78bb (004078bb)
004078b5 804e0480        or      byte ptr [esi+4],80h
004078b9 eb71            jmp     image00400000+0x792c (0040792c)
004078bb c6460481        mov     byte ptr [esi+4],81h
004078bf 85db            test    ebx,ebx
004078c1 7505            jne     image00400000+0x78c8 (004078c8)
004078c3 6af6            push    0FFFFFFF6h
004078c5 58              pop     eax
004078c6 eb0a            jmp     image00400000+0x78d2 (004078d2)
004078c8 8d43ff          lea     eax,[ebx-1]
004078cb f7d8            neg     eax
004078cd 1bc0            sbb     eax,eax
004078cf 83c0f5          add     eax,0FFFFFFF5h
004078d2 50              push    eax
004078d3 ff15ccd04000    call    dword ptr [image00400000+0xd0cc (0040d0cc)]
004078d9 8bf8            mov     edi,eax
004078db 83ffff          cmp     edi,0FFFFFFFFh
004078de 7442            je      image00400000+0x7922 (00407922)
004078e0 85ff            test    edi,edi
004078e2 743e            je      image00400000+0x7922 (00407922)
004078e4 57              push    edi
004078e5 ff1520d14000    call    dword ptr [image00400000+0xd120 (0040d120)]
004078eb 85c0            test    eax,eax
004078ed 7433            je      image00400000+0x7922 (00407922)
004078ef 25ff000000      and     eax,0FFh
004078f4 893e            mov     dword ptr [esi],edi
004078f6 83f802          cmp     eax,2
004078f9 7506            jne     image00400000+0x7901 (00407901)
004078fb 804e0440        or      byte ptr [esi+4],40h
004078ff eb09            jmp     image00400000+0x790a (0040790a)
00407901 83f803          cmp     eax,3
00407904 7504            jne     image00400000+0x790a (0040790a)
00407906 804e0408        or      byte ptr [esi+4],8
0040790a 68a00f0000      push    0FA0h
0040790f 8d460c          lea     eax,[esi+0Ch]
00407912 50              push    eax
00407913 ff151cd14000    call    dword ptr [image00400000+0xd11c (0040d11c)]
00407919 85c0            test    eax,eax
0040791b 742c            je      image00400000+0x7949 (00407949)
0040791d ff4608          inc     dword ptr [esi+8]
00407920 eb0a            jmp     image00400000+0x792c (0040792c)
00407922 804e0440        or      byte ptr [esi+4],40h
00407926 c706feffffff    mov     dword ptr [esi],0FFFFFFFEh
0040792c 43              inc     ebx
0040792d 83fb03          cmp     ebx,3
00407930 0f8c68ffffff    jl      image00400000+0x789e (0040789e)
00407936 ff358c2b4100    push    dword ptr [image00400000+0x12b8c (00412b8c)]
0040793c ff1518d14000    call    dword ptr [image00400000+0xd118 (0040d118)]
00407942 33c0            xor     eax,eax
00407944 5f              pop     edi
00407945 5b              pop     ebx
00407946 5e              pop     esi
00407947 c9              leave
00407948 c3              ret
00407949 83c8ff          or      eax,0FFFFFFFFh
0040794c ebf6            jmp     image00400000+0x7944 (00407944)
0040794e 8bff            mov     edi,edi
00407950 56              push    esi
00407951 b8b0ee4000      mov     eax,offset image00400000+0xeeb0 (0040eeb0)
00407956 beb0ee4000      mov     esi,offset image00400000+0xeeb0 (0040eeb0)
0040795b 57              push    edi
0040795c 8bf8            mov     edi,eax
0040795e 3bc6            cmp     eax,esi
00407960 730f            jae     image00400000+0x7971 (00407971)
00407962 8b07            mov     eax,dword ptr [edi]
00407964 85c0            test    eax,eax
00407966 7402            je      image00400000+0x796a (0040796a)
00407968 ffd0            call    eax
0040796a 83c704          add     edi,4
0040796d 3bfe            cmp     edi,esi
0040796f 72f1            jb      image00400000+0x7962 (00407962)
00407971 5f              pop     edi
00407972 5e              pop     esi
00407973 c3              ret
00407974 8bff            mov     edi,edi
00407976 56              push    esi
00407977 b8b8ee4000      mov     eax,offset image00400000+0xeeb8 (0040eeb8)
0040797c beb8ee4000      mov     esi,offset image00400000+0xeeb8 (0040eeb8)
00407981 57              push    edi
00407982 8bf8            mov     edi,eax
00407984 3bc6            cmp     eax,esi
00407986 730f            jae     image00400000+0x7997 (00407997)
00407988 8b07            mov     eax,dword ptr [edi]
0040798a 85c0            test    eax,eax
0040798c 7402            je      image00400000+0x7990 (00407990)
0040798e ffd0            call    eax
00407990 83c704          add     edi,4
00407993 3bfe            cmp     edi,esi
00407995 72f1            jb      image00400000+0x7988 (00407988)
00407997 5f              pop     edi
00407998 5e              pop     esi
00407999 c3              ret
0040799a cc              int     3
0040799b cc              int     3
0040799c cc              int     3
0040799d cc              int     3
0040799e cc              int     3
0040799f cc              int     3
004079a0 68007a4000      push    offset image00400000+0x7a00 (00407a00)
004079a5 64ff3500000000  push    dword ptr fs:[0]
004079ac 8b442410        mov     eax,dword ptr [esp+10h]
004079b0 896c2410        mov     dword ptr [esp+10h],ebp
004079b4 8d6c2410        lea     ebp,[esp+10h]
004079b8 2be0            sub     esp,eax
004079ba 53              push    ebx
004079bb 56              push    esi
004079bc 57              push    edi
004079bd a104004100      mov     eax,dword ptr [image00400000+0x10004 (00410004)]
004079c2 3145fc          xor     dword ptr [ebp-4],eax
004079c5 33c5            xor     eax,ebp
004079c7 50              push    eax
004079c8 8965e8          mov     dword ptr [ebp-18h],esp
004079cb ff75f8          push    dword ptr [ebp-8]
004079ce 8b45fc          mov     eax,dword ptr [ebp-4]
004079d1 c745fcfeffffff  mov     dword ptr [ebp-4],0FFFFFFFEh
004079d8 8945f8          mov     dword ptr [ebp-8],eax
004079db 8d45f0          lea     eax,[ebp-10h]
004079de 64a300000000    mov     dword ptr fs:[00000000h],eax
004079e4 c3              ret
004079e5 8b4df0          mov     ecx,dword ptr [ebp-10h]
004079e8 64890d00000000  mov     dword ptr fs:[0],ecx
004079ef 59              pop     ecx
004079f0 5f              pop     edi
004079f1 5f              pop     edi
004079f2 5e              pop     esi
004079f3 5b              pop     ebx
004079f4 8be5            mov     esp,ebp
004079f6 5d              pop     ebp
004079f7 51              push    ecx
004079f8 c3              ret
004079f9 cc              int     3
004079fa cc              int     3
004079fb cc              int     3
004079fc cc              int     3
004079fd cc              int     3
004079fe cc              int     3
004079ff cc              int     3
00407a00 8bff            mov     edi,edi
00407a02 55              push    ebp
00407a03 8bec            mov     ebp,esp
00407a05 83ec18          sub     esp,18h
00407a08 53              push    ebx
00407a09 8b5d0c          mov     ebx,dword ptr [ebp+0Ch]
00407a0c 56              push    esi
00407a0d 8b7308          mov     esi,dword ptr [ebx+8]
00407a10 333504004100    xor     esi,dword ptr [image00400000+0x10004 (00410004)]
00407a16 57              push    edi
00407a17 8b06            mov     eax,dword ptr [esi]
00407a19 c645ff00        mov     byte ptr [ebp-1],0
00407a1d c745f401000000  mov     dword ptr [ebp-0Ch],1
00407a24 8d7b10          lea     edi,[ebx+10h]
00407a27 83f8fe          cmp     eax,0FFFFFFFEh
00407a2a 740d            je      image00400000+0x7a39 (00407a39)
00407a2c 8b4e04          mov     ecx,dword ptr [esi+4]
00407a2f 03cf            add     ecx,edi
00407a31 330c38          xor     ecx,dword ptr [eax+edi]
00407a34 e8c2aaffff      call    image00400000+0x24fb (004024fb)
00407a39 8b4e0c          mov     ecx,dword ptr [esi+0Ch]
00407a3c 8b4608          mov     eax,dword ptr [esi+8]
00407a3f 03cf            add     ecx,edi
00407a41 330c38          xor     ecx,dword ptr [eax+edi]
00407a44 e8b2aaffff      call    image00400000+0x24fb (004024fb)
00407a49 8b4508          mov     eax,dword ptr [ebp+8]
00407a4c f6400466        test    byte ptr [eax+4],66h
00407a50 0f8519010000    jne     image00400000+0x7b6f (00407b6f)
00407a56 8b4d10          mov     ecx,dword ptr [ebp+10h]
00407a59 8d55e8          lea     edx,[ebp-18h]
00407a5c 8953fc          mov     dword ptr [ebx-4],edx
00407a5f 8b5b0c          mov     ebx,dword ptr [ebx+0Ch]
00407a62 8945e8          mov     dword ptr [ebp-18h],eax
00407a65 894dec          mov     dword ptr [ebp-14h],ecx
00407a68 83fbfe          cmp     ebx,0FFFFFFFEh
00407a6b 745f            je      image00400000+0x7acc (00407acc)
00407a6d 8d4900          lea     ecx,[ecx]
00407a70 8d045b          lea     eax,[ebx+ebx*2]
00407a73 8b4c8614        mov     ecx,dword ptr [esi+eax*4+14h]
00407a77 8d448610        lea     eax,[esi+eax*4+10h]
00407a7b 8945f0          mov     dword ptr [ebp-10h],eax
00407a7e 8b00            mov     eax,dword ptr [eax]
00407a80 8945f8          mov     dword ptr [ebp-8],eax
00407a83 85c9            test    ecx,ecx
00407a85 7414            je      image00400000+0x7a9b (00407a9b)
00407a87 8bd7            mov     edx,edi
00407a89 e884300000      call    image00400000+0xab12 (0040ab12)
00407a8e c645ff01        mov     byte ptr [ebp-1],1
00407a92 85c0            test    eax,eax
00407a94 7840            js      image00400000+0x7ad6 (00407ad6)
00407a96 7f47            jg      image00400000+0x7adf (00407adf)
00407a98 8b45f8          mov     eax,dword ptr [ebp-8]
00407a9b 8bd8            mov     ebx,eax
00407a9d 83f8fe          cmp     eax,0FFFFFFFEh
00407aa0 75ce            jne     image00400000+0x7a70 (00407a70)
00407aa2 807dff00        cmp     byte ptr [ebp-1],0
00407aa6 7424            je      image00400000+0x7acc (00407acc)
00407aa8 8b06            mov     eax,dword ptr [esi]
00407aaa 83f8fe          cmp     eax,0FFFFFFFEh
00407aad 740d            je      image00400000+0x7abc (00407abc)
00407aaf 8b4e04          mov     ecx,dword ptr [esi+4]
00407ab2 03cf            add     ecx,edi
00407ab4 330c38          xor     ecx,dword ptr [eax+edi]
00407ab7 e83faaffff      call    image00400000+0x24fb (004024fb)
00407abc 8b4e0c          mov     ecx,dword ptr [esi+0Ch]
00407abf 8b5608          mov     edx,dword ptr [esi+8]
00407ac2 03cf            add     ecx,edi
00407ac4 330c3a          xor     ecx,dword ptr [edx+edi]
00407ac7 e82faaffff      call    image00400000+0x24fb (004024fb)
00407acc 8b45f4          mov     eax,dword ptr [ebp-0Ch]
00407acf 5f              pop     edi
00407ad0 5e              pop     esi
00407ad1 5b              pop     ebx
00407ad2 8be5            mov     esp,ebp
00407ad4 5d              pop     ebp
00407ad5 c3              ret
00407ad6 c745f400000000  mov     dword ptr [ebp-0Ch],0
00407add ebc9            jmp     image00400000+0x7aa8 (00407aa8)
00407adf 8b4d08          mov     ecx,dword ptr [ebp+8]
00407ae2 813963736de0    cmp     dword ptr [ecx],0E06D7363h
00407ae8 7529            jne     image00400000+0x7b13 (00407b13)
00407aea 833d882b410000  cmp     dword ptr [image00400000+0x12b88 (00412b88)],0
00407af1 7420            je      image00400000+0x7b13 (00407b13)
00407af3 68882b4100      push    offset image00400000+0x12b88 (00412b88)
00407af8 e8831f0000      call    image00400000+0x9a80 (00409a80)
00407afd 83c404          add     esp,4
00407b00 85c0            test    eax,eax
00407b02 740f            je      image00400000+0x7b13 (00407b13)
00407b04 8b5508          mov     edx,dword ptr [ebp+8]
00407b07 6a01            push    1
00407b09 52              push    edx
00407b0a ff15882b4100    call    dword ptr [image00400000+0x12b88 (00412b88)]
00407b10 83c408          add     esp,8
00407b13 8b4d0c          mov     ecx,dword ptr [ebp+0Ch]
00407b16 8b5508          mov     edx,dword ptr [ebp+8]
00407b19 e824300000      call    image00400000+0xab42 (0040ab42)
00407b1e 8b450c          mov     eax,dword ptr [ebp+0Ch]
00407b21 39580c          cmp     dword ptr [eax+0Ch],ebx
00407b24 7412            je      image00400000+0x7b38 (00407b38)
00407b26 6804004100      push    offset image00400000+0x10004 (00410004)
00407b2b 57              push    edi
00407b2c 8bd3            mov     edx,ebx
00407b2e 8bc8            mov     ecx,eax
00407b30 e826300000      call    image00400000+0xab5b (0040ab5b)
00407b35 8b450c          mov     eax,dword ptr [ebp+0Ch]
00407b38 8b4df8          mov     ecx,dword ptr [ebp-8]
00407b3b 89480c          mov     dword ptr [eax+0Ch],ecx
00407b3e 8b06            mov     eax,dword ptr [esi]
00407b40 83f8fe          cmp     eax,0FFFFFFFEh
00407b43 740d            je      image00400000+0x7b52 (00407b52)
00407b45 8b4e04          mov     ecx,dword ptr [esi+4]
00407b48 03cf            add     ecx,edi
00407b4a 330c38          xor     ecx,dword ptr [eax+edi]
00407b4d e8a9a9ffff      call    image00400000+0x24fb (004024fb)
00407b52 8b4e0c          mov     ecx,dword ptr [esi+0Ch]
00407b55 8b5608          mov     edx,dword ptr [esi+8]
00407b58 03cf            add     ecx,edi
00407b5a 330c3a          xor     ecx,dword ptr [edx+edi]
00407b5d e899a9ffff      call    image00400000+0x24fb (004024fb)
00407b62 8b45f0          mov     eax,dword ptr [ebp-10h]
00407b65 8b4808          mov     ecx,dword ptr [eax+8]
00407b68 8bd7            mov     edx,edi
00407b6a e8ba2f0000      call    image00400000+0xab29 (0040ab29)
00407b6f bafeffffff      mov     edx,0FFFFFFFEh
00407b74 39530c          cmp     dword ptr [ebx+0Ch],edx
00407b77 0f844fffffff    je      image00400000+0x7acc (00407acc)
00407b7d 6804004100      push    offset image00400000+0x10004 (00410004)
00407b82 57              push    edi
00407b83 8bcb            mov     ecx,ebx
00407b85 e8d12f0000      call    image00400000+0xab5b (0040ab5b)
00407b8a e919ffffff      jmp     image00400000+0x7aa8 (00407aa8)
00407b8f 8bff            mov     edi,edi
00407b91 55              push    ebp
00407b92 8bec            mov     ebp,esp
00407b94 83ec10          sub     esp,10h
00407b97 a104004100      mov     eax,dword ptr [image00400000+0x10004 (00410004)]
00407b9c 8365f800        and     dword ptr [ebp-8],0
00407ba0 8365fc00        and     dword ptr [ebp-4],0
00407ba4 53              push    ebx
00407ba5 57              push    edi
00407ba6 bf4ee640bb      mov     edi,0BB40E64Eh
00407bab bb0000ffff      mov     ebx,0FFFF0000h
00407bb0 3bc7            cmp     eax,edi
00407bb2 740d            je      image00400000+0x7bc1 (00407bc1)
00407bb4 85c3            test    ebx,eax
00407bb6 7409            je      image00400000+0x7bc1 (00407bc1)
00407bb8 f7d0            not     eax
00407bba a308004100      mov     dword ptr [image00400000+0x10008 (00410008)],eax
00407bbf eb65            jmp     image00400000+0x7c26 (00407c26)
00407bc1 56              push    esi
00407bc2 8d45f8          lea     eax,[ebp-8]
00407bc5 50              push    eax
00407bc6 ff1590d04000    call    dword ptr [image00400000+0xd090 (0040d090)]
00407bcc 8b75fc          mov     esi,dword ptr [ebp-4]
00407bcf 3375f8          xor     esi,dword ptr [ebp-8]
00407bd2 ff152cd14000    call    dword ptr [image00400000+0xd12c (0040d12c)]
00407bd8 33f0            xor     esi,eax
00407bda ff15ecd04000    call    dword ptr [image00400000+0xd0ec (0040d0ec)]
00407be0 33f0            xor     esi,eax
00407be2 ff1574d04000    call    dword ptr [image00400000+0xd074 (0040d074)]
00407be8 33f0            xor     esi,eax
00407bea 8d45f0          lea     eax,[ebp-10h]
00407bed 50              push    eax
00407bee ff1528d14000    call    dword ptr [image00400000+0xd128 (0040d128)]
00407bf4 8b45f4          mov     eax,dword ptr [ebp-0Ch]
00407bf7 3345f0          xor     eax,dword ptr [ebp-10h]
00407bfa 33f0            xor     esi,eax
00407bfc 3bf7            cmp     esi,edi
00407bfe 7507            jne     image00400000+0x7c07 (00407c07)
00407c00 be4fe640bb      mov     esi,0BB40E64Fh
00407c05 eb10            jmp     image00400000+0x7c17 (00407c17)
00407c07 85f3            test    ebx,esi
00407c09 750c            jne     image00400000+0x7c17 (00407c17)
00407c0b 8bc6            mov     eax,esi
00407c0d 0d11470000      or      eax,4711h
00407c12 c1e010          shl     eax,10h
00407c15 0bf0            or      esi,eax
00407c17 893504004100    mov     dword ptr [image00400000+0x10004 (00410004)],esi
00407c1d f7d6            not     esi
00407c1f 893508004100    mov     dword ptr [image00400000+0x10008 (00410008)],esi
00407c25 5e              pop     esi
00407c26 5f              pop     edi
00407c27 5b              pop     ebx
00407c28 c9              leave
00407c29 c3              ret
00407c2a 8325842b410000  and     dword ptr [image00400000+0x12b84 (00412b84)],0
00407c31 c3              ret
00407c32 8bff            mov     edi,edi
00407c34 55              push    ebp
00407c35 8bec            mov     ebp,esp
00407c37 51              push    ecx
00407c38 51              push    ecx
00407c39 8b450c          mov     eax,dword ptr [ebp+0Ch]
00407c3c 56              push    esi
00407c3d 8b7508          mov     esi,dword ptr [ebp+8]
00407c40 8945f8          mov     dword ptr [ebp-8],eax
00407c43 8b4510          mov     eax,dword ptr [ebp+10h]
00407c46 57              push    edi
00407c47 56              push    esi
00407c48 8945fc          mov     dword ptr [ebp-4],eax
00407c4b e8a82f0000      call    image00400000+0xabf8 (0040abf8)
00407c50 83cfff          or      edi,0FFFFFFFFh
00407c53 59              pop     ecx
00407c54 3bc7            cmp     eax,edi
00407c56 7511            jne     image00400000+0x7c69 (00407c69)
00407c58 e8d4c1ffff      call    image00400000+0x3e31 (00403e31)
00407c5d c70009000000    mov     dword ptr [eax],9
00407c63 8bc7            mov     eax,edi
00407c65 8bd7            mov     edx,edi
00407c67 eb4a            jmp     image00400000+0x7cb3 (00407cb3)
00407c69 ff7514          push    dword ptr [ebp+14h]
00407c6c 8d4dfc          lea     ecx,[ebp-4]
00407c6f 51              push    ecx
00407c70 ff75f8          push    dword ptr [ebp-8]
00407c73 50              push    eax
00407c74 ff1530d14000    call    dword ptr [image00400000+0xd130 (0040d130)]
00407c7a 8945f8          mov     dword ptr [ebp-8],eax
00407c7d 3bc7            cmp     eax,edi
00407c7f 7513            jne     image00400000+0x7c94 (00407c94)
00407c81 ff1584d04000    call    dword ptr [image00400000+0xd084 (0040d084)]
00407c87 85c0            test    eax,eax
00407c89 7409            je      image00400000+0x7c94 (00407c94)
00407c8b 50              push    eax
00407c8c e8c6c1ffff      call    image00400000+0x3e57 (00403e57)
00407c91 59              pop     ecx
00407c92 ebcf            jmp     image00400000+0x7c63 (00407c63)
00407c94 8bc6            mov     eax,esi
00407c96 c1f805          sar     eax,5
00407c99 8b0485a02b4100  mov     eax,dword ptr image00400000+0x12ba0 (00412ba0)[eax*4]
00407ca0 83e61f          and     esi,1Fh
00407ca3 c1e606          shl     esi,6
00407ca6 8d443004        lea     eax,[eax+esi+4]
00407caa 8020fd          and     byte ptr [eax],0FDh
00407cad 8b45f8          mov     eax,dword ptr [ebp-8]
00407cb0 8b55fc          mov     edx,dword ptr [ebp-4]
00407cb3 5f              pop     edi
00407cb4 5e              pop     esi
00407cb5 c9              leave
00407cb6 c3              ret
00407cb7 6a14            push    14h
00407cb9 68b0ef4000      push    offset image00400000+0xefb0 (0040efb0)
00407cbe e8ddfcffff      call    image00400000+0x79a0 (004079a0)
00407cc3 83cbff          or      ebx,0FFFFFFFFh
00407cc6 895ddc          mov     dword ptr [ebp-24h],ebx
00407cc9 895de0          mov     dword ptr [ebp-20h],ebx
00407ccc 8b4508          mov     eax,dword ptr [ebp+8]
00407ccf 83f8fe          cmp     eax,0FFFFFFFEh
00407cd2 751c            jne     image00400000+0x7cf0 (00407cf0)
00407cd4 e86bc1ffff      call    image00400000+0x3e44 (00403e44)
00407cd9 832000          and     dword ptr [eax],0
00407cdc e850c1ffff      call    image00400000+0x3e31 (00403e31)
00407ce1 c70009000000    mov     dword ptr [eax],9
00407ce7 8bc3            mov     eax,ebx
00407ce9 8bd3            mov     edx,ebx
00407ceb e9a1000000      jmp     image00400000+0x7d91 (00407d91)
00407cf0 85c0            test    eax,eax
00407cf2 7808            js      image00400000+0x7cfc (00407cfc)
00407cf4 3b058c2b4100    cmp     eax,dword ptr [image00400000+0x12b8c (00412b8c)]
00407cfa 721a            jb      image00400000+0x7d16 (00407d16)
00407cfc e843c1ffff      call    image00400000+0x3e44 (00403e44)
00407d01 832000          and     dword ptr [eax],0
00407d04 e828c1ffff      call    image00400000+0x3e31 (00403e31)
00407d09 c70009000000    mov     dword ptr [eax],9
00407d0f e8cbc0ffff      call    image00400000+0x3ddf (00403ddf)
00407d14 ebd1            jmp     image00400000+0x7ce7 (00407ce7)
00407d16 8bc8            mov     ecx,eax
00407d18 c1f905          sar     ecx,5
00407d1b 8d3c8da02b4100  lea     edi,image00400000+0x12ba0 (00412ba0)[ecx*4]
00407d22 8bf0            mov     esi,eax
00407d24 83e61f          and     esi,1Fh
00407d27 c1e606          shl     esi,6
00407d2a 8b0f            mov     ecx,dword ptr [edi]
00407d2c 0fbe4c3104      movsx   ecx,byte ptr [ecx+esi+4]
00407d31 83e101          and     ecx,1
00407d34 74c6            je      image00400000+0x7cfc (00407cfc)
00407d36 50              push    eax
00407d37 e8252f0000      call    image00400000+0xac61 (0040ac61)
00407d3c 59              pop     ecx
00407d3d 8365fc00        and     dword ptr [ebp-4],0
00407d41 8b07            mov     eax,dword ptr [edi]
00407d43 f644300401      test    byte ptr [eax+esi+4],1
00407d48 741c            je      image00400000+0x7d66 (00407d66)
00407d4a ff7514          push    dword ptr [ebp+14h]
00407d4d ff7510          push    dword ptr [ebp+10h]
00407d50 ff750c          push    dword ptr [ebp+0Ch]
00407d53 ff7508          push    dword ptr [ebp+8]
00407d56 e8d7feffff      call    image00400000+0x7c32 (00407c32)
00407d5b 83c410          add     esp,10h
00407d5e 8945dc          mov     dword ptr [ebp-24h],eax
00407d61 8955e0          mov     dword ptr [ebp-20h],edx
00407d64 eb19            jmp     image00400000+0x7d7f (00407d7f)
00407d66 e8c6c0ffff      call    image00400000+0x3e31 (00403e31)
00407d6b c70009000000    mov     dword ptr [eax],9
00407d71 e8cec0ffff      call    image00400000+0x3e44 (00403e44)
00407d76 832000          and     dword ptr [eax],0
00407d79 895ddc          mov     dword ptr [ebp-24h],ebx
00407d7c 895de0          mov     dword ptr [ebp-20h],ebx
00407d7f c745fcfeffffff  mov     dword ptr [ebp-4],0FFFFFFFEh
00407d86 e80c000000      call    image00400000+0x7d97 (00407d97)
00407d8b 8b45dc          mov     eax,dword ptr [ebp-24h]
00407d8e 8b55e0          mov     edx,dword ptr [ebp-20h]
00407d91 e84ffcffff      call    image00400000+0x79e5 (004079e5)
00407d96 c3              ret
00407d97 ff7508          push    dword ptr [ebp+8]
00407d9a e8612f0000      call    image00400000+0xad00 (0040ad00)
00407d9f 59              pop     ecx
00407da0 c3              ret
00407da1 8bff            mov     edi,edi
00407da3 55              push    ebp
00407da4 8bec            mov     ebp,esp
00407da6 b8e41a0000      mov     eax,1AE4h
00407dab e8502a0000      call    image00400000+0xa800 (0040a800)
00407db0 a104004100      mov     eax,dword ptr [image00400000+0x10004 (00410004)]
00407db5 33c5            xor     eax,ebp
00407db7 8945fc          mov     dword ptr [ebp-4],eax
00407dba 8b450c          mov     eax,dword ptr [ebp+0Ch]
00407dbd 56              push    esi
00407dbe 8b7508          mov     esi,dword ptr [ebp+8]
00407dc1 57              push    edi
00407dc2 33ff            xor     edi,edi
00407dc4 898534e5ffff    mov     dword ptr [ebp-1ACCh],eax
00407dca 89bd38e5ffff    mov     dword ptr [ebp-1AC8h],edi
00407dd0 89bd30e5ffff    mov     dword ptr [ebp-1AD0h],edi
00407dd6 397d10          cmp     dword ptr [ebp+10h],edi
00407dd9 7507            jne     image00400000+0x7de2 (00407de2)
00407ddb 33c0            xor     eax,eax
00407ddd e9ae060000      jmp     image00400000+0x8490 (00408490)
00407de2 3bc7            cmp     eax,edi
00407de4 751f            jne     image00400000+0x7e05 (00407e05)
00407de6 e859c0ffff      call    image00400000+0x3e44 (00403e44)
00407deb 8938            mov     dword ptr [eax],edi
00407ded e83fc0ffff      call    image00400000+0x3e31 (00403e31)
00407df2 c70016000000    mov     dword ptr [eax],16h
00407df8 e8e2bfffff      call    image00400000+0x3ddf (00403ddf)
00407dfd 83c8ff          or      eax,0FFFFFFFFh
00407e00 e98b060000      jmp     image00400000+0x8490 (00408490)
00407e05 8bc6            mov     eax,esi
00407e07 c1f805          sar     eax,5
00407e0a 8bfe            mov     edi,esi
00407e0c 53              push    ebx
00407e0d 8d1c85a02b4100  lea     ebx,image00400000+0x12ba0 (00412ba0)[eax*4]
00407e14 8b03            mov     eax,dword ptr [ebx]
00407e16 83e71f          and     edi,1Fh
00407e19 c1e706          shl     edi,6
00407e1c 8a4c3824        mov     cl,byte ptr [eax+edi+24h]
00407e20 02c9            add     cl,cl
00407e22 d0f9            sar     cl,1
00407e24 899d24e5ffff    mov     dword ptr [ebp-1ADCh],ebx
00407e2a 888d3fe5ffff    mov     byte ptr [ebp-1AC1h],cl
00407e30 80f902          cmp     cl,2
00407e33 7405            je      image00400000+0x7e3a (00407e3a)
00407e35 80f901          cmp     cl,1
00407e38 7527            jne     image00400000+0x7e61 (00407e61)
00407e3a 8b4d10          mov     ecx,dword ptr [ebp+10h]
00407e3d f7d1            not     ecx
00407e3f f6c101          test    cl,1
00407e42 751d            jne     image00400000+0x7e61 (00407e61)
00407e44 e8fbbfffff      call    image00400000+0x3e44 (00403e44)
00407e49 832000          and     dword ptr [eax],0
00407e4c e8e0bfffff      call    image00400000+0x3e31 (00403e31)
00407e51 c70016000000    mov     dword ptr [eax],16h
00407e57 e883bfffff      call    image00400000+0x3ddf (00403ddf)
00407e5c e91d060000      jmp     image00400000+0x847e (0040847e)
00407e61 f644380420      test    byte ptr [eax+edi+4],20h
00407e66 740f            je      image00400000+0x7e77 (00407e77)
00407e68 6a02            push    2
00407e6a 6a00            push    0
00407e6c 6a00            push    0
00407e6e 56              push    esi
00407e6f e8befdffff      call    image00400000+0x7c32 (00407c32)
00407e74 83c410          add     esp,10h
00407e77 56              push    esi
00407e78 e83e070000      call    image00400000+0x85bb (004085bb)
00407e7d 59              pop     ecx
00407e7e 85c0            test    eax,eax
00407e80 0f8499020000    je      image00400000+0x811f (0040811f)
00407e86 8b03            mov     eax,dword ptr [ebx]
00407e88 f644070480      test    byte ptr [edi+eax+4],80h
00407e8d 0f848c020000    je      image00400000+0x811f (0040811f)
00407e93 e882e4ffff      call    image00400000+0x631a (0040631a)
00407e98 8b406c          mov     eax,dword ptr [eax+6Ch]
00407e9b 33c9            xor     ecx,ecx
00407e9d 394814          cmp     dword ptr [eax+14h],ecx
00407ea0 8d8520e5ffff    lea     eax,[ebp-1AE0h]
00407ea6 0f94c1          sete    cl
00407ea9 50              push    eax
00407eaa 8b03            mov     eax,dword ptr [ebx]
00407eac ff3407          push    dword ptr [edi+eax]
00407eaf 8bf1            mov     esi,ecx
00407eb1 ff1538d14000    call    dword ptr [image00400000+0xd138 (0040d138)]
00407eb7 33c9            xor     ecx,ecx
00407eb9 3bc1            cmp     eax,ecx
00407ebb 0f8460020000    je      image00400000+0x8121 (00408121)
00407ec1 3bf1            cmp     esi,ecx
00407ec3 740c            je      image00400000+0x7ed1 (00407ed1)
00407ec5 388d3fe5ffff    cmp     byte ptr [ebp-1AC1h],cl
00407ecb 0f8450020000    je      image00400000+0x8121 (00408121)
00407ed1 ff1534d14000    call    dword ptr [image00400000+0xd134 (0040d134)]
00407ed7 8b9d34e5ffff    mov     ebx,dword ptr [ebp-1ACCh]
00407edd 898520e5ffff    mov     dword ptr [ebp-1AE0h],eax
00407ee3 33c0            xor     eax,eax
00407ee5 89852ce5ffff    mov     dword ptr [ebp-1AD4h],eax
00407eeb 394510          cmp     dword ptr [ebp+10h],eax
00407eee 0f8623050000    jbe     image00400000+0x8417 (00408417)
00407ef4 898540e5ffff    mov     dword ptr [ebp-1AC0h],eax
00407efa 8a853fe5ffff    mov     al,byte ptr [ebp-1AC1h]
00407f00 84c0            test    al,al
00407f02 0f8567010000    jne     image00400000+0x806f (0040806f)
00407f08 8a0b            mov     cl,byte ptr [ebx]
00407f0a 8bb524e5ffff    mov     esi,dword ptr [ebp-1ADCh]
00407f10 33c0            xor     eax,eax
00407f12 80f90a          cmp     cl,0Ah
00407f15 0f94c0          sete    al
00407f18 89851ce5ffff    mov     dword ptr [ebp-1AE4h],eax
00407f1e 8b06            mov     eax,dword ptr [esi]
00407f20 03c7            add     eax,edi
00407f22 83783800        cmp     dword ptr [eax+38h],0
00407f26 7415            je      image00400000+0x7f3d (00407f3d)
00407f28 8a5034          mov     dl,byte ptr [eax+34h]
00407f2b 8855f4          mov     byte ptr [ebp-0Ch],dl
00407f2e 884df5          mov     byte ptr [ebp-0Bh],cl
00407f31 83603800        and     dword ptr [eax+38h],0
00407f35 6a02            push    2
00407f37 8d45f4          lea     eax,[ebp-0Ch]
00407f3a 50              push    eax
00407f3b eb4b            jmp     image00400000+0x7f88 (00407f88)
00407f3d 0fbec1          movsx   eax,cl
00407f40 50              push    eax
00407f41 e8ba0b0000      call    image00400000+0x8b00 (00408b00)
00407f46 59              pop     ecx
00407f47 85c0            test    eax,eax
00407f49 743a            je      image00400000+0x7f85 (00407f85)
00407f4b 8b8d34e5ffff    mov     ecx,dword ptr [ebp-1ACCh]
00407f51 2bcb            sub     ecx,ebx
00407f53 034d10          add     ecx,dword ptr [ebp+10h]
00407f56 33c0            xor     eax,eax
00407f58 40              inc     eax
00407f59 3bc8            cmp     ecx,eax
00407f5b 0f86a5010000    jbe     image00400000+0x8106 (00408106)
00407f61 6a02            push    2
00407f63 8d8544e5ffff    lea     eax,[ebp-1ABCh]
00407f69 53              push    ebx
00407f6a 50              push    eax
00407f6b e8d0140000      call    image00400000+0x9440 (00409440)
00407f70 83c40c          add     esp,0Ch
00407f73 83f8ff          cmp     eax,0FFFFFFFFh
00407f76 0f8492040000    je      image00400000+0x840e (0040840e)
00407f7c 43              inc     ebx
00407f7d ff8540e5ffff    inc     dword ptr [ebp-1AC0h]
00407f83 eb1b            jmp     image00400000+0x7fa0 (00407fa0)
00407f85 6a01            push    1
00407f87 53              push    ebx
00407f88 8d8544e5ffff    lea     eax,[ebp-1ABCh]
00407f8e 50              push    eax
00407f8f e8ac140000      call    image00400000+0x9440 (00409440)
00407f94 83c40c          add     esp,0Ch
00407f97 83f8ff          cmp     eax,0FFFFFFFFh
00407f9a 0f846e040000    je      image00400000+0x840e (0040840e)
00407fa0 33c0            xor     eax,eax
00407fa2 50              push    eax
00407fa3 50              push    eax
00407fa4 6a05            push    5
00407fa6 8d4df4          lea     ecx,[ebp-0Ch]
00407fa9 51              push    ecx
00407faa 6a01            push    1
00407fac 8d8d44e5ffff    lea     ecx,[ebp-1ABCh]
00407fb2 51              push    ecx
00407fb3 50              push    eax
00407fb4 ffb520e5ffff    push    dword ptr [ebp-1AE0h]
00407fba 43              inc     ebx
00407fbb ff8540e5ffff    inc     dword ptr [ebp-1AC0h]
00407fc1 ff1510d14000    call    dword ptr [image00400000+0xd110 (0040d110)]
00407fc7 8bf0            mov     esi,eax
00407fc9 85f6            test    esi,esi
00407fcb 0f843d040000    je      image00400000+0x840e (0040840e)
00407fd1 6a00            push    0
00407fd3 8d852ce5ffff    lea     eax,[ebp-1AD4h]
00407fd9 50              push    eax
00407fda 56              push    esi
00407fdb 8d45f4          lea     eax,[ebp-0Ch]
00407fde 50              push    eax
00407fdf 8b8524e5ffff    mov     eax,dword ptr [ebp-1ADCh]
00407fe5 8b00            mov     eax,dword ptr [eax]
00407fe7 ff3407          push    dword ptr [edi+eax]
00407fea ff15c8d04000    call    dword ptr [image00400000+0xd0c8 (0040d0c8)]
00407ff0 85c0            test    eax,eax
00407ff2 0f840a040000    je      image00400000+0x8402 (00408402)
00407ff8 8b8540e5ffff    mov     eax,dword ptr [ebp-1AC0h]
00407ffe 8b8d30e5ffff    mov     ecx,dword ptr [ebp-1AD0h]
00408004 03c1            add     eax,ecx
00408006 898538e5ffff    mov     dword ptr [ebp-1AC8h],eax
0040800c 39b52ce5ffff    cmp     dword ptr [ebp-1AD4h],esi
00408012 0f8cf6030000    jl      image00400000+0x840e (0040840e)
00408018 83bd1ce5ffff00  cmp     dword ptr [ebp-1AE4h],0
0040801f 0f84cd000000    je      image00400000+0x80f2 (004080f2)
00408025 6a00            push    0
00408027 8d852ce5ffff    lea     eax,[ebp-1AD4h]
0040802d 50              push    eax
0040802e 6a01            push    1
00408030 8d45f4          lea     eax,[ebp-0Ch]
00408033 50              push    eax
00408034 8b8524e5ffff    mov     eax,dword ptr [ebp-1ADCh]
0040803a 8b00            mov     eax,dword ptr [eax]
0040803c c645f40d        mov     byte ptr [ebp-0Ch],0Dh
00408040 ff3407          push    dword ptr [edi+eax]
00408043 ff15c8d04000    call    dword ptr [image00400000+0xd0c8 (0040d0c8)]
00408049 85c0            test    eax,eax
0040804b 0f84b1030000    je      image00400000+0x8402 (00408402)
00408051 83bd2ce5ffff01  cmp     dword ptr [ebp-1AD4h],1
00408058 0f8cb0030000    jl      image00400000+0x840e (0040840e)
0040805e ff8530e5ffff    inc     dword ptr [ebp-1AD0h]
00408064 ff8538e5ffff    inc     dword ptr [ebp-1AC8h]
0040806a e983000000      jmp     image00400000+0x80f2 (004080f2)
0040806f 3c01            cmp     al,1
00408071 7404            je      image00400000+0x8077 (00408077)
00408073 3c02            cmp     al,2
00408075 7521            jne     image00400000+0x8098 (00408098)
00408077 0fb733          movzx   esi,word ptr [ebx]
0040807a 33c9            xor     ecx,ecx
0040807c 83fe0a          cmp     esi,0Ah
0040807f 0f94c1          sete    cl
00408082 83c302          add     ebx,2
00408085 838540e5ffff02  add     dword ptr [ebp-1AC0h],2
0040808c 89b544e5ffff    mov     dword ptr [ebp-1ABCh],esi
00408092 898d1ce5ffff    mov     dword ptr [ebp-1AE4h],ecx
00408098 3c01            cmp     al,1
0040809a 7404            je      image00400000+0x80a0 (004080a0)
0040809c 3c02            cmp     al,2
0040809e 7552            jne     image00400000+0x80f2 (004080f2)
004080a0 ffb544e5ffff    push    dword ptr [ebp-1ABCh]
004080a6 e87c2c0000      call    image00400000+0xad27 (0040ad27)
004080ab 59              pop     ecx
004080ac 663b8544e5ffff  cmp     ax,word ptr [ebp-1ABCh]
004080b3 0f8549030000    jne     image00400000+0x8402 (00408402)
004080b9 838538e5ffff02  add     dword ptr [ebp-1AC8h],2
004080c0 83bd1ce5ffff00  cmp     dword ptr [ebp-1AE4h],0
004080c7 7429            je      image00400000+0x80f2 (004080f2)
004080c9 6a0d            push    0Dh
004080cb 58              pop     eax
004080cc 50              push    eax
004080cd 898544e5ffff    mov     dword ptr [ebp-1ABCh],eax
004080d3 e84f2c0000      call    image00400000+0xad27 (0040ad27)
004080d8 59              pop     ecx
004080d9 663b8544e5ffff  cmp     ax,word ptr [ebp-1ABCh]
004080e0 0f851c030000    jne     image00400000+0x8402 (00408402)
004080e6 ff8538e5ffff    inc     dword ptr [ebp-1AC8h]
004080ec ff8530e5ffff    inc     dword ptr [ebp-1AD0h]
004080f2 8b4510          mov     eax,dword ptr [ebp+10h]
004080f5 398540e5ffff    cmp     dword ptr [ebp-1AC0h],eax
004080fb 0f82f9fdffff    jb      image00400000+0x7efa (00407efa)
00408101 e908030000      jmp     image00400000+0x840e (0040840e)
00408106 8b0e            mov     ecx,dword ptr [esi]
00408108 8a13            mov     dl,byte ptr [ebx]
0040810a ff8538e5ffff    inc     dword ptr [ebp-1AC8h]
00408110 88540f34        mov     byte ptr [edi+ecx+34h],dl
00408114 8b0e            mov     ecx,dword ptr [esi]
00408116 89440f38        mov     dword ptr [edi+ecx+38h],eax
0040811a e9ef020000      jmp     image00400000+0x840e (0040840e)
0040811f 33c9            xor     ecx,ecx
00408121 8b03            mov     eax,dword ptr [ebx]
00408123 f644380480      test    byte ptr [eax+edi+4],80h
00408128 0f84a1020000    je      image00400000+0x83cf (004083cf)
0040812e 80bd3fe5ffff00  cmp     byte ptr [ebp-1AC1h],0
00408135 898d44e5ffff    mov     dword ptr [ebp-1ABCh],ecx
0040813b 0f85a8000000    jne     image00400000+0x81e9 (004081e9)
00408141 8b9d34e5ffff    mov     ebx,dword ptr [ebp-1ACCh]
00408147 394d10          cmp     dword ptr [ebp+10h],ecx
0040814a 0f86fd020000    jbe     image00400000+0x844d (0040844d)
00408150 8bcb            mov     ecx,ebx
00408152 33f6            xor     esi,esi
00408154 2b8d34e5ffff    sub     ecx,dword ptr [ebp-1ACCh]
0040815a 8d8548e5ffff    lea     eax,[ebp-1AB8h]
00408160 3b4d10          cmp     ecx,dword ptr [ebp+10h]
00408163 7326            jae     image00400000+0x818b (0040818b)
00408165 8a13            mov     dl,byte ptr [ebx]
00408167 43              inc     ebx
00408168 41              inc     ecx
00408169 899d20e5ffff    mov     dword ptr [ebp-1AE0h],ebx
0040816f 80fa0a          cmp     dl,0Ah
00408172 750b            jne     image00400000+0x817f (0040817f)
00408174 ff8530e5ffff    inc     dword ptr [ebp-1AD0h]
0040817a c6000d          mov     byte ptr [eax],0Dh
0040817d 40              inc     eax
0040817e 46              inc     esi
0040817f 8810            mov     byte ptr [eax],dl
00408181 40              inc     eax
00408182 46              inc     esi
00408183 81feff130000    cmp     esi,13FFh
00408189 72d5            jb      image00400000+0x8160 (00408160)
0040818b 8bf0            mov     esi,eax
0040818d 8d8548e5ffff    lea     eax,[ebp-1AB8h]
00408193 2bf0            sub     esi,eax
00408195 6a00            push    0
00408197 8d8528e5ffff    lea     eax,[ebp-1AD8h]
0040819d 50              push    eax
0040819e 56              push    esi
0040819f 8d8548e5ffff    lea     eax,[ebp-1AB8h]
004081a5 50              push    eax
004081a6 8b8524e5ffff    mov     eax,dword ptr [ebp-1ADCh]
004081ac 8b00            mov     eax,dword ptr [eax]
004081ae ff3407          push    dword ptr [edi+eax]
004081b1 ff15c8d04000    call    dword ptr [image00400000+0xd0c8 (0040d0c8)]
004081b7 85c0            test    eax,eax
004081b9 0f8443020000    je      image00400000+0x8402 (00408402)
004081bf 8b8528e5ffff    mov     eax,dword ptr [ebp-1AD8h]
004081c5 018538e5ffff    add     dword ptr [ebp-1AC8h],eax
004081cb 3bc6            cmp     eax,esi
004081cd 0f8c3b020000    jl      image00400000+0x840e (0040840e)
004081d3 8bc3            mov     eax,ebx
004081d5 2b8534e5ffff    sub     eax,dword ptr [ebp-1ACCh]
004081db 3b4510          cmp     eax,dword ptr [ebp+10h]
004081de 0f826cffffff    jb      image00400000+0x8150 (00408150)
004081e4 e925020000      jmp     image00400000+0x840e (0040840e)
004081e9 80bd3fe5ffff02  cmp     byte ptr [ebp-1AC1h],2
004081f0 0f85cd000000    jne     image00400000+0x82c3 (004082c3)
004081f6 8b9d34e5ffff    mov     ebx,dword ptr [ebp-1ACCh]
004081fc 394d10          cmp     dword ptr [ebp+10h],ecx
004081ff 0f8648020000    jbe     image00400000+0x844d (0040844d)
00408205 83a540e5ffff00  and     dword ptr [ebp-1AC0h],0
0040820c 8bcb            mov     ecx,ebx
0040820e 2b8d34e5ffff    sub     ecx,dword ptr [ebp-1ACCh]
00408214 6a02            push    2
00408216 8d8548e5ffff    lea     eax,[ebp-1AB8h]
0040821c 5e              pop     esi
0040821d 3b4d10          cmp     ecx,dword ptr [ebp+10h]
00408220 7343            jae     image00400000+0x8265 (00408265)
00408222 0fb713          movzx   edx,word ptr [ebx]
00408225 03de            add     ebx,esi
00408227 03ce            add     ecx,esi
00408229 899d20e5ffff    mov     dword ptr [ebp-1AE0h],ebx
0040822f 83fa0a          cmp     edx,0Ah
00408232 751a            jne     image00400000+0x824e (0040824e)
00408234 01b530e5ffff    add     dword ptr [ebp-1AD0h],esi
0040823a 6a0d            push    0Dh
0040823c 5b              pop     ebx
0040823d 668918          mov     word ptr [eax],bx
00408240 8b9d20e5ffff    mov     ebx,dword ptr [ebp-1AE0h]
00408246 03c6            add     eax,esi
00408248 01b540e5ffff    add     dword ptr [ebp-1AC0h],esi
0040824e 01b540e5ffff    add     dword ptr [ebp-1AC0h],esi
00408254 668910          mov     word ptr [eax],dx
00408257 03c6            add     eax,esi
00408259 81bd40e5fffffe130000 cmp dword ptr [ebp-1AC0h],13FEh
00408263 72b8            jb      image00400000+0x821d (0040821d)
00408265 8bf0            mov     esi,eax
00408267 8d8548e5ffff    lea     eax,[ebp-1AB8h]
0040826d 2bf0            sub     esi,eax
0040826f 6a00            push    0
00408271 8d8528e5ffff    lea     eax,[ebp-1AD8h]
00408277 50              push    eax
00408278 56              push    esi
00408279 8d8548e5ffff    lea     eax,[ebp-1AB8h]
0040827f 50              push    eax
00408280 8b8524e5ffff    mov     eax,dword ptr [ebp-1ADCh]
00408286 8b00            mov     eax,dword ptr [eax]
00408288 ff3407          push    dword ptr [edi+eax]
0040828b ff15c8d04000    call    dword ptr [image00400000+0xd0c8 (0040d0c8)]
00408291 85c0            test    eax,eax
00408293 0f8469010000    je      image00400000+0x8402 (00408402)
00408299 8b8528e5ffff    mov     eax,dword ptr [ebp-1AD8h]
0040829f 018538e5ffff    add     dword ptr [ebp-1AC8h],eax
004082a5 3bc6            cmp     eax,esi
004082a7 0f8c61010000    jl      image00400000+0x840e (0040840e)
004082ad 8bc3            mov     eax,ebx
004082af 2b8534e5ffff    sub     eax,dword ptr [ebp-1ACCh]
004082b5 3b4510          cmp     eax,dword ptr [ebp+10h]
004082b8 0f8247ffffff    jb      image00400000+0x8205 (00408205)
004082be e94b010000      jmp     image00400000+0x840e (0040840e)
004082c3 8b8534e5ffff    mov     eax,dword ptr [ebp-1ACCh]
004082c9 89852ce5ffff    mov     dword ptr [ebp-1AD4h],eax
004082cf 394d10          cmp     dword ptr [ebp+10h],ecx
004082d2 0f8675010000    jbe     image00400000+0x844d (0040844d)
004082d8 8b8d2ce5ffff    mov     ecx,dword ptr [ebp-1AD4h]
004082de 83a540e5ffff00  and     dword ptr [ebp-1AC0h],0
004082e5 2b8d34e5ffff    sub     ecx,dword ptr [ebp-1ACCh]
004082eb 6a02            push    2
004082ed 8d8548f9ffff    lea     eax,[ebp-6B8h]
004082f3 5e              pop     esi
004082f4 3b4d10          cmp     ecx,dword ptr [ebp+10h]
004082f7 733b            jae     image00400000+0x8334 (00408334)
004082f9 8b952ce5ffff    mov     edx,dword ptr [ebp-1AD4h]
004082ff 0fb712          movzx   edx,word ptr [edx]
00408302 01b52ce5ffff    add     dword ptr [ebp-1AD4h],esi
00408308 03ce            add     ecx,esi
0040830a 83fa0a          cmp     edx,0Ah
0040830d 750e            jne     image00400000+0x831d (0040831d)
0040830f 6a0d            push    0Dh
00408311 5b              pop     ebx
00408312 668918          mov     word ptr [eax],bx
00408315 03c6            add     eax,esi
00408317 01b540e5ffff    add     dword ptr [ebp-1AC0h],esi
0040831d 01b540e5ffff    add     dword ptr [ebp-1AC0h],esi
00408323 668910          mov     word ptr [eax],dx
00408326 03c6            add     eax,esi
00408328 81bd40e5ffffa8060000 cmp dword ptr [ebp-1AC0h],6A8h
00408332 72c0            jb      image00400000+0x82f4 (004082f4)
00408334 33f6            xor     esi,esi
00408336 56              push    esi
00408337 56              push    esi
00408338 68550d0000      push    0D55h
0040833d 8d8df0ebffff    lea     ecx,[ebp-1410h]
00408343 51              push    ecx
00408344 8d8d48f9ffff    lea     ecx,[ebp-6B8h]
0040834a 2bc1            sub     eax,ecx
0040834c 99              cdq
0040834d 2bc2            sub     eax,edx
0040834f d1f8            sar     eax,1
00408351 50              push    eax
00408352 8bc1            mov     eax,ecx
00408354 50              push    eax
00408355 56              push    esi
00408356 68e9fd0000      push    0FDE9h
0040835b ff1510d14000    call    dword ptr [image00400000+0xd110 (0040d110)]
00408361 8bd8            mov     ebx,eax
00408363 3bde            cmp     ebx,esi
00408365 0f8497000000    je      image00400000+0x8402 (00408402)
0040836b 6a00            push    0
0040836d 8d8528e5ffff    lea     eax,[ebp-1AD8h]
00408373 50              push    eax
00408374 8bc3            mov     eax,ebx
00408376 2bc6            sub     eax,esi
00408378 50              push    eax
00408379 8d8435f0ebffff  lea     eax,[ebp+esi-1410h]
00408380 50              push    eax
00408381 8b8524e5ffff    mov     eax,dword ptr [ebp-1ADCh]
00408387 8b00            mov     eax,dword ptr [eax]
00408389 ff3407          push    dword ptr [edi+eax]
0040838c ff15c8d04000    call    dword ptr [image00400000+0xd0c8 (0040d0c8)]
00408392 85c0            test    eax,eax
00408394 740c            je      image00400000+0x83a2 (004083a2)
00408396 03b528e5ffff    add     esi,dword ptr [ebp-1AD8h]
0040839c 3bde            cmp     ebx,esi
0040839e 7fcb            jg      image00400000+0x836b (0040836b)
004083a0 eb0c            jmp     image00400000+0x83ae (004083ae)
004083a2 ff1584d04000    call    dword ptr [image00400000+0xd084 (0040d084)]
004083a8 898544e5ffff    mov     dword ptr [ebp-1ABCh],eax
004083ae 3bde            cmp     ebx,esi
004083b0 7f5c            jg      image00400000+0x840e (0040840e)
004083b2 8b852ce5ffff    mov     eax,dword ptr [ebp-1AD4h]
004083b8 2b8534e5ffff    sub     eax,dword ptr [ebp-1ACCh]
004083be 898538e5ffff    mov     dword ptr [ebp-1AC8h],eax
004083c4 3b4510          cmp     eax,dword ptr [ebp+10h]
004083c7 0f820bffffff    jb      image00400000+0x82d8 (004082d8)
004083cd eb3f            jmp     image00400000+0x840e (0040840e)
004083cf 51              push    ecx
004083d0 8d8d28e5ffff    lea     ecx,[ebp-1AD8h]
004083d6 51              push    ecx
004083d7 ff7510          push    dword ptr [ebp+10h]
004083da ffb534e5ffff    push    dword ptr [ebp-1ACCh]
004083e0 ff3438          push    dword ptr [eax+edi]
004083e3 ff15c8d04000    call    dword ptr [image00400000+0xd0c8 (0040d0c8)]
004083e9 85c0            test    eax,eax
004083eb 7415            je      image00400000+0x8402 (00408402)
004083ed 8b8528e5ffff    mov     eax,dword ptr [ebp-1AD8h]
004083f3 83a544e5ffff00  and     dword ptr [ebp-1ABCh],0
004083fa 898538e5ffff    mov     dword ptr [ebp-1AC8h],eax
00408400 eb0c            jmp     image00400000+0x840e (0040840e)
00408402 ff1584d04000    call    dword ptr [image00400000+0xd084 (0040d084)]
00408408 898544e5ffff    mov     dword ptr [ebp-1ABCh],eax
0040840e 83bd38e5ffff00  cmp     dword ptr [ebp-1AC8h],0
00408415 756c            jne     image00400000+0x8483 (00408483)
00408417 83bd44e5ffff00  cmp     dword ptr [ebp-1ABCh],0
0040841e 742d            je      image00400000+0x844d (0040844d)
00408420 6a05            push    5
00408422 5e              pop     esi
00408423 39b544e5ffff    cmp     dword ptr [ebp-1ABCh],esi
00408429 7514            jne     image00400000+0x843f (0040843f)
0040842b e801baffff      call    image00400000+0x3e31 (00403e31)
00408430 c70009000000    mov     dword ptr [eax],9
00408436 e809baffff      call    image00400000+0x3e44 (00403e44)
0040843b 8930            mov     dword ptr [eax],esi
0040843d eb3f            jmp     image00400000+0x847e (0040847e)
0040843f ffb544e5ffff    push    dword ptr [ebp-1ABCh]
00408445 e80dbaffff      call    image00400000+0x3e57 (00403e57)
0040844a 59              pop     ecx
0040844b eb31            jmp     image00400000+0x847e (0040847e)
0040844d 8b8524e5ffff    mov     eax,dword ptr [ebp-1ADCh]
00408453 8b00            mov     eax,dword ptr [eax]
00408455 f644070440      test    byte ptr [edi+eax+4],40h
0040845a 740f            je      image00400000+0x846b (0040846b)
0040845c 8b8534e5ffff    mov     eax,dword ptr [ebp-1ACCh]
00408462 80381a          cmp     byte ptr [eax],1Ah
00408465 7504            jne     image00400000+0x846b (0040846b)
00408467 33c0            xor     eax,eax
00408469 eb24            jmp     image00400000+0x848f (0040848f)
0040846b e8c1b9ffff      call    image00400000+0x3e31 (00403e31)
00408470 c7001c000000    mov     dword ptr [eax],1Ch
00408476 e8c9b9ffff      call    image00400000+0x3e44 (00403e44)
0040847b 832000          and     dword ptr [eax],0
0040847e 83c8ff          or      eax,0FFFFFFFFh
00408481 eb0c            jmp     image00400000+0x848f (0040848f)
00408483 8b8538e5ffff    mov     eax,dword ptr [ebp-1AC8h]
00408489 2b8530e5ffff    sub     eax,dword ptr [ebp-1AD0h]
0040848f 5b              pop     ebx
00408490 8b4dfc          mov     ecx,dword ptr [ebp-4]
00408493 5f              pop     edi
00408494 33cd            xor     ecx,ebp
00408496 5e              pop     esi
00408497 e85fa0ffff      call    image00400000+0x24fb (004024fb)
0040849c c9              leave
0040849d c3              ret
0040849e 6a10            push    10h
004084a0 68d0ef4000      push    offset image00400000+0xefd0 (0040efd0)
004084a5 e8f6f4ffff      call    image00400000+0x79a0 (004079a0)
004084aa 8b5d08          mov     ebx,dword ptr [ebp+8]
004084ad 83fbfe          cmp     ebx,0FFFFFFFEh
004084b0 751b            jne     image00400000+0x84cd (004084cd)
004084b2 e88db9ffff      call    image00400000+0x3e44 (00403e44)
004084b7 832000          and     dword ptr [eax],0
004084ba e872b9ffff      call    image00400000+0x3e31 (00403e31)
004084bf c70009000000    mov     dword ptr [eax],9
004084c5 83c8ff          or      eax,0FFFFFFFFh
004084c8 e994000000      jmp     image00400000+0x8561 (00408561)
004084cd 85db            test    ebx,ebx
004084cf 7808            js      image00400000+0x84d9 (004084d9)
004084d1 3b1d8c2b4100    cmp     ebx,dword ptr [image00400000+0x12b8c (00412b8c)]
004084d7 721a            jb      image00400000+0x84f3 (004084f3)
004084d9 e866b9ffff      call    image00400000+0x3e44 (00403e44)
004084de 832000          and     dword ptr [eax],0
004084e1 e84bb9ffff      call    image00400000+0x3e31 (00403e31)
004084e6 c70009000000    mov     dword ptr [eax],9
004084ec e8eeb8ffff      call    image00400000+0x3ddf (00403ddf)
004084f1 ebd2            jmp     image00400000+0x84c5 (004084c5)
004084f3 8bc3            mov     eax,ebx
004084f5 c1f805          sar     eax,5
004084f8 8d3c85a02b4100  lea     edi,image00400000+0x12ba0 (00412ba0)[eax*4]
004084ff 8bf3            mov     esi,ebx
00408501 83e61f          and     esi,1Fh
00408504 c1e606          shl     esi,6
00408507 8b07            mov     eax,dword ptr [edi]
00408509 0fbe443004      movsx   eax,byte ptr [eax+esi+4]
0040850e 83e001          and     eax,1
00408511 74c6            je      image00400000+0x84d9 (004084d9)
00408513 53              push    ebx
00408514 e848270000      call    image00400000+0xac61 (0040ac61)
00408519 59              pop     ecx
0040851a 8365fc00        and     dword ptr [ebp-4],0
0040851e 8b07            mov     eax,dword ptr [edi]
00408520 f644300401      test    byte ptr [eax+esi+4],1
00408525 7414            je      image00400000+0x853b (0040853b)
00408527 ff7510          push    dword ptr [ebp+10h]
0040852a ff750c          push    dword ptr [ebp+0Ch]
0040852d 53              push    ebx
0040852e e86ef8ffff      call    image00400000+0x7da1 (00407da1)
00408533 83c40c          add     esp,0Ch
00408536 8945e4          mov     dword ptr [ebp-1Ch],eax
00408539 eb17            jmp     image00400000+0x8552 (00408552)
0040853b e8f1b8ffff      call    image00400000+0x3e31 (00403e31)
00408540 c70009000000    mov     dword ptr [eax],9
00408546 e8f9b8ffff      call    image00400000+0x3e44 (00403e44)
0040854b 832000          and     dword ptr [eax],0
0040854e 834de4ff        or      dword ptr [ebp-1Ch],0FFFFFFFFh
00408552 c745fcfeffffff  mov     dword ptr [ebp-4],0FFFFFFFEh
00408559 e80c000000      call    image00400000+0x856a (0040856a)
0040855e 8b45e4          mov     eax,dword ptr [ebp-1Ch]
00408561 e87ff4ffff      call    image00400000+0x79e5 (004079e5)
00408566 c3              ret
00408567 8b5d08          mov     ebx,dword ptr [ebp+8]
0040856a 53              push    ebx
0040856b e890270000      call    image00400000+0xad00 (0040ad00)
00408570 59              pop     ecx
00408571 c3              ret
00408572 8bff            mov     edi,edi
00408574 55              push    ebp
00408575 8bec            mov     ebp,esp
00408577 ff05b8194100    inc     dword ptr [image00400000+0x119b8 (004119b8)]
0040857d 6800100000      push    1000h
00408582 e888020000      call    image00400000+0x880f (0040880f)
00408587 59              pop     ecx
00408588 8b4d08          mov     ecx,dword ptr [ebp+8]
0040858b 894108          mov     dword ptr [ecx+8],eax
0040858e 85c0            test    eax,eax
00408590 740d            je      image00400000+0x859f (0040859f)
00408592 83490c08        or      dword ptr [ecx+0Ch],8
00408596 c7411800100000  mov     dword ptr [ecx+18h],1000h
0040859d eb11            jmp     image00400000+0x85b0 (004085b0)
0040859f 83490c04        or      dword ptr [ecx+0Ch],4
004085a3 8d4114          lea     eax,[ecx+14h]
004085a6 894108          mov     dword ptr [ecx+8],eax
004085a9 c7411802000000  mov     dword ptr [ecx+18h],2
004085b0 8b4108          mov     eax,dword ptr [ecx+8]
004085b3 83610400        and     dword ptr [ecx+4],0
004085b7 8901            mov     dword ptr [ecx],eax
004085b9 5d              pop     ebp
004085ba c3              ret
004085bb 8bff            mov     edi,edi
004085bd 55              push    ebp
004085be 8bec            mov     ebp,esp
004085c0 8b4508          mov     eax,dword ptr [ebp+8]
004085c3 83f8fe          cmp     eax,0FFFFFFFEh
004085c6 750f            jne     image00400000+0x85d7 (004085d7)
004085c8 e864b8ffff      call    image00400000+0x3e31 (00403e31)
004085cd c70009000000    mov     dword ptr [eax],9
004085d3 33c0            xor     eax,eax
004085d5 5d              pop     ebp
004085d6 c3              ret
004085d7 85c0            test    eax,eax
004085d9 7808            js      image00400000+0x85e3 (004085e3)
004085db 3b058c2b4100    cmp     eax,dword ptr [image00400000+0x12b8c (00412b8c)]
004085e1 7212            jb      image00400000+0x85f5 (004085f5)
004085e3 e849b8ffff      call    image00400000+0x3e31 (00403e31)
004085e8 c70009000000    mov     dword ptr [eax],9
004085ee e8ecb7ffff      call    image00400000+0x3ddf (00403ddf)
004085f3 ebde            jmp     image00400000+0x85d3 (004085d3)
004085f5 8bc8            mov     ecx,eax
004085f7 83e01f          and     eax,1Fh
004085fa c1f905          sar     ecx,5
004085fd 8b0c8da02b4100  mov     ecx,dword ptr image00400000+0x12ba0 (00412ba0)[ecx*4]
00408604 c1e006          shl     eax,6
00408607 0fbe440104      movsx   eax,byte ptr [ecx+eax+4]
0040860c 83e040          and     eax,40h
0040860f 5d              pop     ebp
00408610 c3              ret
00408611 b860094100      mov     eax,offset image00400000+0x10960 (00410960)
00408616 c3              ret
00408617 a1802b4100      mov     eax,dword ptr [image00400000+0x12b80 (00412b80)]
0040861c 56              push    esi
0040861d 6a14            push    14h
0040861f 5e              pop     esi
00408620 85c0            test    eax,eax
00408622 7507            jne     image00400000+0x862b (0040862b)
00408624 b800020000      mov     eax,200h
00408629 eb06            jmp     image00400000+0x8631 (00408631)
0040862b 3bc6            cmp     eax,esi
0040862d 7d07            jge     image00400000+0x8636 (00408636)
0040862f 8bc6            mov     eax,esi
00408631 a3802b4100      mov     dword ptr [image00400000+0x12b80 (00412b80)],eax
00408636 6a04            push    4
00408638 50              push    eax
00408639 e816020000      call    image00400000+0x8854 (00408854)
0040863e 59              pop     ecx
0040863f 59              pop     ecx
00408640 a3701b4100      mov     dword ptr [image00400000+0x11b70 (00411b70)],eax
00408645 85c0            test    eax,eax
00408647 751e            jne     image00400000+0x8667 (00408667)
00408649 6a04            push    4
0040864b 56              push    esi
0040864c 8935802b4100    mov     dword ptr [image00400000+0x12b80 (00412b80)],esi
00408652 e8fd010000      call    image00400000+0x8854 (00408854)
00408657 59              pop     ecx
00408658 59              pop     ecx
00408659 a3701b4100      mov     dword ptr [image00400000+0x11b70 (00411b70)],eax
0040865e 85c0            test    eax,eax
00408660 7505            jne     image00400000+0x8667 (00408667)
00408662 6a1a            push    1Ah
00408664 58              pop     eax
00408665 5e              pop     esi
00408666 c3              ret
00408667 33d2            xor     edx,edx
00408669 b960094100      mov     ecx,offset image00400000+0x10960 (00410960)
0040866e eb05            jmp     image00400000+0x8675 (00408675)
00408670 a1701b4100      mov     eax,dword ptr [image00400000+0x11b70 (00411b70)]
00408675 890c02          mov     dword ptr [edx+eax],ecx
00408678 83c120          add     ecx,20h
0040867b 83c204          add     edx,4
0040867e 81f9e00b4100    cmp     ecx,offset image00400000+0x10be0 (00410be0)
00408684 7cea            jl      image00400000+0x8670 (00408670)
00408686 6afe            push    0FFFFFFFEh
00408688 5e              pop     esi
00408689 33d2            xor     edx,edx
0040868b b970094100      mov     ecx,offset image00400000+0x10970 (00410970)
00408690 57              push    edi
00408691 8bc2            mov     eax,edx
00408693 c1f805          sar     eax,5
00408696 8b0485a02b4100  mov     eax,dword ptr image00400000+0x12ba0 (00412ba0)[eax*4]
0040869d 8bfa            mov     edi,edx
0040869f 83e71f          and     edi,1Fh
004086a2 c1e706          shl     edi,6
004086a5 8b0407          mov     eax,dword ptr [edi+eax]
004086a8 83f8ff          cmp     eax,0FFFFFFFFh
004086ab 7408            je      image00400000+0x86b5 (004086b5)
004086ad 3bc6            cmp     eax,esi
004086af 7404            je      image00400000+0x86b5 (004086b5)
004086b1 85c0            test    eax,eax
004086b3 7502            jne     image00400000+0x86b7 (004086b7)
004086b5 8931            mov     dword ptr [ecx],esi
004086b7 83c120          add     ecx,20h
004086ba 42              inc     edx
004086bb 81f9d0094100    cmp     ecx,offset image00400000+0x109d0 (004109d0)
004086c1 7cce            jl      image00400000+0x8691 (00408691)
004086c3 5f              pop     edi
004086c4 33c0            xor     eax,eax
004086c6 5e              pop     esi
004086c7 c3              ret
004086c8 e8c2280000      call    image00400000+0xaf8f (0040af8f)
004086cd 803d4412410000  cmp     byte ptr [image00400000+0x11244 (00411244)],0
004086d4 7405            je      image00400000+0x86db (004086db)
004086d6 e88e260000      call    image00400000+0xad69 (0040ad69)
004086db ff35701b4100    push    dword ptr [image00400000+0x11b70 (00411b70)]
004086e1 e8389fffff      call    image00400000+0x261e (0040261e)
004086e6 59              pop     ecx
004086e7 c3              ret
004086e8 8bff            mov     edi,edi
004086ea 55              push    ebp
004086eb 8bec            mov     ebp,esp
004086ed 56              push    esi
004086ee 8b7508          mov     esi,dword ptr [ebp+8]
004086f1 b860094100      mov     eax,offset image00400000+0x10960 (00410960)
004086f6 3bf0            cmp     esi,eax
004086f8 7222            jb      image00400000+0x871c (0040871c)
004086fa 81fec00b4100    cmp     esi,offset image00400000+0x10bc0 (00410bc0)
00408700 771a            ja      image00400000+0x871c (0040871c)
00408702 8bce            mov     ecx,esi
00408704 2bc8            sub     ecx,eax
00408706 c1f905          sar     ecx,5
00408709 83c110          add     ecx,10h
0040870c 51              push    ecx
0040870d e8fc0e0000      call    image00400000+0x960e (0040960e)
00408712 814e0c00800000  or      dword ptr [esi+0Ch],8000h
00408719 59              pop     ecx
0040871a eb0a            jmp     image00400000+0x8726 (00408726)
0040871c 83c620          add     esi,20h
0040871f 56              push    esi
00408720 ff153cd14000    call    dword ptr [image00400000+0xd13c (0040d13c)]
00408726 5e              pop     esi
00408727 5d              pop     ebp
00408728 c3              ret
00408729 8bff            mov     edi,edi
0040872b 55              push    ebp
0040872c 8bec            mov     ebp,esp
0040872e 8b4508          mov     eax,dword ptr [ebp+8]
00408731 83f814          cmp     eax,14h
00408734 7d16            jge     image00400000+0x874c (0040874c)
00408736 83c010          add     eax,10h
00408739 50              push    eax
0040873a e8cf0e0000      call    image00400000+0x960e (0040960e)
0040873f 8b450c          mov     eax,dword ptr [ebp+0Ch]
00408742 81480c00800000  or      dword ptr [eax+0Ch],8000h
00408749 59              pop     ecx
0040874a 5d              pop     ebp
0040874b c3              ret
0040874c 8b450c          mov     eax,dword ptr [ebp+0Ch]
0040874f 83c020          add     eax,20h
00408752 50              push    eax
00408753 ff153cd14000    call    dword ptr [image00400000+0xd13c (0040d13c)]
00408759 5d              pop     ebp
0040875a c3              ret
0040875b 8bff            mov     edi,edi
0040875d 55              push    ebp
0040875e 8bec            mov     ebp,esp
00408760 8b4508          mov     eax,dword ptr [ebp+8]
00408763 b960094100      mov     ecx,offset image00400000+0x10960 (00410960)
00408768 3bc1            cmp     eax,ecx
0040876a 721f            jb      image00400000+0x878b (0040878b)
0040876c 3dc00b4100      cmp     eax,offset image00400000+0x10bc0 (00410bc0)
00408771 7718            ja      image00400000+0x878b (0040878b)
00408773 81600cff7fffff  and     dword ptr [eax+0Ch],0FFFF7FFFh
0040877a 2bc1            sub     eax,ecx
0040877c c1f805          sar     eax,5
0040877f 83c010          add     eax,10h
00408782 50              push    eax
00408783 e8ad0d0000      call    image00400000+0x9535 (00409535)
00408788 59              pop     ecx
00408789 5d              pop     ebp
0040878a c3              ret
0040878b 83c020          add     eax,20h
0040878e 50              push    eax
0040878f ff1540d14000    call    dword ptr [image00400000+0xd140 (0040d140)]
00408795 5d              pop     ebp
00408796 c3              ret
00408797 8bff            mov     edi,edi
00408799 55              push    ebp
0040879a 8bec            mov     ebp,esp
0040879c 8b4d08          mov     ecx,dword ptr [ebp+8]
0040879f 8b450c          mov     eax,dword ptr [ebp+0Ch]
004087a2 83f914          cmp     ecx,14h
004087a5 7d13            jge     image00400000+0x87ba (004087ba)
004087a7 81600cff7fffff  and     dword ptr [eax+0Ch],0FFFF7FFFh
004087ae 83c110          add     ecx,10h
004087b1 51              push    ecx
004087b2 e87e0d0000      call    image00400000+0x9535 (00409535)
004087b7 59              pop     ecx
004087b8 5d              pop     ebp
004087b9 c3              ret
004087ba 83c020          add     eax,20h
004087bd 50              push    eax
004087be ff1540d14000    call    dword ptr [image00400000+0xd140 (0040d140)]
004087c4 5d              pop     ebp
004087c5 c3              ret
004087c6 8bff            mov     edi,edi
004087c8 55              push    ebp
004087c9 8bec            mov     ebp,esp
004087cb 8b4508          mov     eax,dword ptr [ebp+8]
004087ce 85c0            test    eax,eax
004087d0 7515            jne     image00400000+0x87e7 (004087e7)
004087d2 e85ab6ffff      call    image00400000+0x3e31 (00403e31)
004087d7 c70016000000    mov     dword ptr [eax],16h
004087dd e8fdb5ffff      call    image00400000+0x3ddf (00403ddf)
004087e2 83c8ff          or      eax,0FFFFFFFFh
004087e5 5d              pop     ebp
004087e6 c3              ret
004087e7 8b4010          mov     eax,dword ptr [eax+10h]
004087ea 5d              pop     ebp
004087eb c3              ret
004087ec 8bff            mov     edi,edi
004087ee 56              push    esi
004087ef 57              push    edi
004087f0 33ff            xor     edi,edi
004087f2 ffb7e00b4100    push    dword ptr image00400000+0x10be0 (00410be0)[edi]
004087f8 ff15b8d04000    call    dword ptr [image00400000+0xd0b8 (0040d0b8)]
004087fe 8987e00b4100    mov     dword ptr image00400000+0x10be0 (00410be0)[edi],eax
00408804 83c704          add     edi,4
00408807 83ff28          cmp     edi,28h
0040880a 72e6            jb      image00400000+0x87f2 (004087f2)
0040880c 5f              pop     edi
0040880d 5e              pop     esi
0040880e c3              ret
0040880f 8bff            mov     edi,edi
00408811 55              push    ebp
00408812 8bec            mov     ebp,esp
00408814 56              push    esi
00408815 57              push    edi
00408816 33f6            xor     esi,esi
00408818 ff7508          push    dword ptr [ebp+8]
0040881b e8389effff      call    image00400000+0x2658 (00402658)
00408820 8bf8            mov     edi,eax
00408822 59              pop     ecx
00408823 85ff            test    edi,edi
00408825 7527            jne     image00400000+0x884e (0040884e)
00408827 3905bc194100    cmp     dword ptr [image00400000+0x119bc (004119bc)],eax
0040882d 761f            jbe     image00400000+0x884e (0040884e)
0040882f 56              push    esi
00408830 ff1578d04000    call    dword ptr [image00400000+0xd078 (0040d078)]
00408836 8d86e8030000    lea     eax,[esi+3E8h]
0040883c 3b05bc194100    cmp     eax,dword ptr [image00400000+0x119bc (004119bc)]
00408842 7603            jbe     image00400000+0x8847 (00408847)
00408844 83c8ff          or      eax,0FFFFFFFFh
00408847 8bf0            mov     esi,eax
00408849 83f8ff          cmp     eax,0FFFFFFFFh
0040884c 75ca            jne     image00400000+0x8818 (00408818)
0040884e 8bc7            mov     eax,edi
00408850 5f              pop     edi
00408851 5e              pop     esi
00408852 5d              pop     ebp
00408853 c3              ret
00408854 8bff            mov     edi,edi
00408856 55              push    ebp
00408857 8bec            mov     ebp,esp
00408859 56              push    esi
0040885a 57              push    edi
0040885b 33f6            xor     esi,esi
0040885d 6a00            push    0
0040885f ff750c          push    dword ptr [ebp+0Ch]
00408862 ff7508          push    dword ptr [ebp+8]
00408865 e837270000      call    image00400000+0xafa1 (0040afa1)
0040886a 8bf8            mov     edi,eax
0040886c 83c40c          add     esp,0Ch
0040886f 85ff            test    edi,edi
00408871 7527            jne     image00400000+0x889a (0040889a)
00408873 3905bc194100    cmp     dword ptr [image00400000+0x119bc (004119bc)],eax
00408879 761f            jbe     image00400000+0x889a (0040889a)
0040887b 56              push    esi
0040887c ff1578d04000    call    dword ptr [image00400000+0xd078 (0040d078)]
00408882 8d86e8030000    lea     eax,[esi+3E8h]
00408888 3b05bc194100    cmp     eax,dword ptr [image00400000+0x119bc (004119bc)]
0040888e 7603            jbe     image00400000+0x8893 (00408893)
00408890 83c8ff          or      eax,0FFFFFFFFh
00408893 8bf0            mov     esi,eax
00408895 83f8ff          cmp     eax,0FFFFFFFFh
00408898 75c3            jne     image00400000+0x885d (0040885d)
0040889a 8bc7            mov     eax,edi
0040889c 5f              pop     edi
0040889d 5e              pop     esi
0040889e 5d              pop     ebp
0040889f c3              ret
004088a0 8bff            mov     edi,edi
004088a2 55              push    ebp
004088a3 8bec            mov     ebp,esp
004088a5 56              push    esi
004088a6 57              push    edi
004088a7 33f6            xor     esi,esi
004088a9 ff750c          push    dword ptr [ebp+0Ch]
004088ac ff7508          push    dword ptr [ebp+8]
004088af e86f270000      call    image00400000+0xb023 (0040b023)
004088b4 8bf8            mov     edi,eax
004088b6 59              pop     ecx
004088b7 59              pop     ecx
004088b8 85ff            test    edi,edi
004088ba 752c            jne     image00400000+0x88e8 (004088e8)
004088bc 39450c          cmp     dword ptr [ebp+0Ch],eax
004088bf 7427            je      image00400000+0x88e8 (004088e8)
004088c1 3905bc194100    cmp     dword ptr [image00400000+0x119bc (004119bc)],eax
004088c7 761f            jbe     image00400000+0x88e8 (004088e8)
004088c9 56              push    esi
004088ca ff1578d04000    call    dword ptr [image00400000+0xd078 (0040d078)]
004088d0 8d86e8030000    lea     eax,[esi+3E8h]
004088d6 3b05bc194100    cmp     eax,dword ptr [image00400000+0x119bc (004119bc)]
004088dc 7603            jbe     image00400000+0x88e1 (004088e1)
004088de 83c8ff          or      eax,0FFFFFFFFh
004088e1 8bf0            mov     esi,eax
004088e3 83f8ff          cmp     eax,0FFFFFFFFh
004088e6 75c1            jne     image00400000+0x88a9 (004088a9)
004088e8 8bc7            mov     eax,edi
004088ea 5f              pop     edi
004088eb 5e              pop     esi
004088ec 5d              pop     ebp
004088ed c3              ret
004088ee 8bff            mov     edi,edi
004088f0 55              push    ebp
004088f1 8bec            mov     ebp,esp
004088f3 56              push    esi
004088f4 57              push    edi
004088f5 33f6            xor     esi,esi
004088f7 ff7510          push    dword ptr [ebp+10h]
004088fa ff750c          push    dword ptr [ebp+0Ch]
004088fd ff7508          push    dword ptr [ebp+8]
00408900 e8cb270000      call    image00400000+0xb0d0 (0040b0d0)
00408905 8bf8            mov     edi,eax
00408907 83c40c          add     esp,0Ch
0040890a 85ff            test    edi,edi
0040890c 752c            jne     image00400000+0x893a (0040893a)
0040890e 394510          cmp     dword ptr [ebp+10h],eax
00408911 7427            je      image00400000+0x893a (0040893a)
00408913 3905bc194100    cmp     dword ptr [image00400000+0x119bc (004119bc)],eax
00408919 761f            jbe     image00400000+0x893a (0040893a)
0040891b 56              push    esi
0040891c ff1578d04000    call    dword ptr [image00400000+0xd078 (0040d078)]
00408922 8d86e8030000    lea     eax,[esi+3E8h]
00408928 3b05bc194100    cmp     eax,dword ptr [image00400000+0x119bc (004119bc)]
0040892e 7603            jbe     image00400000+0x8933 (00408933)
00408930 83c8ff          or      eax,0FFFFFFFFh
00408933 8bf0            mov     esi,eax
00408935 83f8ff          cmp     eax,0FFFFFFFFh
00408938 75bd            jne     image00400000+0x88f7 (004088f7)
0040893a 8bc7            mov     eax,edi
0040893c 5f              pop     edi
0040893d 5e              pop     esi
0040893e 5d              pop     ebp
0040893f c3              ret
00408940 a104004100      mov     eax,dword ptr [image00400000+0x10004 (00410004)]
00408945 83c801          or      eax,1
00408948 33c9            xor     ecx,ecx
0040894a 3905c0194100    cmp     dword ptr [image00400000+0x119c0 (004119c0)],eax
00408950 0f94c1          sete    cl
00408953 8bc1            mov     eax,ecx
00408955 c3              ret
00408956 8bff            mov     edi,edi
00408958 55              push    ebp
00408959 8bec            mov     ebp,esp
0040895b 83ec10          sub     esp,10h
0040895e 53              push    ebx
0040895f 56              push    esi
00408960 8b750c          mov     esi,dword ptr [ebp+0Ch]
00408963 33db            xor     ebx,ebx
00408965 57              push    edi
00408966 8b7d10          mov     edi,dword ptr [ebp+10h]
00408969 3bf3            cmp     esi,ebx
0040896b 7511            jne     image00400000+0x897e (0040897e)
0040896d 3bfb            cmp     edi,ebx
0040896f 760d            jbe     image00400000+0x897e (0040897e)
00408971 8b4508          mov     eax,dword ptr [ebp+8]
00408974 3bc3            cmp     eax,ebx
00408976 7402            je      image00400000+0x897a (0040897a)
00408978 8918            mov     dword ptr [eax],ebx
0040897a 33c0            xor     eax,eax
0040897c eb7b            jmp     image00400000+0x89f9 (004089f9)
0040897e 8b4508          mov     eax,dword ptr [ebp+8]
00408981 3bc3            cmp     eax,ebx
00408983 7403            je      image00400000+0x8988 (00408988)
00408985 8308ff          or      dword ptr [eax],0FFFFFFFFh
00408988 81ffffffff7f    cmp     edi,7FFFFFFFh
0040898e 7613            jbe     image00400000+0x89a3 (004089a3)
00408990 e89cb4ffff      call    image00400000+0x3e31 (00403e31)
00408995 6a16            push    16h
00408997 5e              pop     esi
00408998 8930            mov     dword ptr [eax],esi
0040899a e840b4ffff      call    image00400000+0x3ddf (00403ddf)
0040899f 8bc6            mov     eax,esi
004089a1 eb56            jmp     image00400000+0x89f9 (004089f9)
004089a3 ff7518          push    dword ptr [ebp+18h]
004089a6 8d4df0          lea     ecx,[ebp-10h]
004089a9 e81d9fffff      call    image00400000+0x28cb (004028cb)
004089ae 8b45f0          mov     eax,dword ptr [ebp-10h]
004089b1 395814          cmp     dword ptr [eax+14h],ebx
004089b4 0f8590000000    jne     image00400000+0x8a4a (00408a4a)
004089ba 668b4514        mov     ax,word ptr [ebp+14h]
004089be b9ff000000      mov     ecx,0FFh
004089c3 663bc1          cmp     ax,cx
004089c6 7636            jbe     image00400000+0x89fe (004089fe)
004089c8 3bf3            cmp     esi,ebx
004089ca 740f            je      image00400000+0x89db (004089db)
004089cc 3bfb            cmp     edi,ebx
004089ce 760b            jbe     image00400000+0x89db (004089db)
004089d0 57              push    edi
004089d1 53              push    ebx
004089d2 56              push    esi
004089d3 e8e8010000      call    image00400000+0x8bc0 (00408bc0)
004089d8 83c40c          add     esp,0Ch
004089db e851b4ffff      call    image00400000+0x3e31 (00403e31)
004089e0 c7002a000000    mov     dword ptr [eax],2Ah
004089e6 e846b4ffff      call    image00400000+0x3e31 (00403e31)
004089eb 8b00            mov     eax,dword ptr [eax]
004089ed 385dfc          cmp     byte ptr [ebp-4],bl
004089f0 7407            je      image00400000+0x89f9 (004089f9)
004089f2 8b4df8          mov     ecx,dword ptr [ebp-8]
004089f5 836170fd        and     dword ptr [ecx+70h],0FFFFFFFDh
004089f9 5f              pop     edi
004089fa 5e              pop     esi
004089fb 5b              pop     ebx
004089fc c9              leave
004089fd c3              ret
004089fe 3bf3            cmp     esi,ebx
00408a00 7426            je      image00400000+0x8a28 (00408a28)
00408a02 3bfb            cmp     edi,ebx
00408a04 7720            ja      image00400000+0x8a26 (00408a26)
00408a06 e826b4ffff      call    image00400000+0x3e31 (00403e31)
00408a0b 6a22            push    22h
00408a0d 5e              pop     esi
00408a0e 8930            mov     dword ptr [eax],esi
00408a10 e8cab3ffff      call    image00400000+0x3ddf (00403ddf)
00408a15 385dfc          cmp     byte ptr [ebp-4],bl
00408a18 7485            je      image00400000+0x899f (0040899f)
00408a1a 8b45f8          mov     eax,dword ptr [ebp-8]
00408a1d 836070fd        and     dword ptr [eax+70h],0FFFFFFFDh
00408a21 e979ffffff      jmp     image00400000+0x899f (0040899f)
00408a26 8806            mov     byte ptr [esi],al
00408a28 8b4508          mov     eax,dword ptr [ebp+8]
00408a2b 3bc3            cmp     eax,ebx
00408a2d 7406            je      image00400000+0x8a35 (00408a35)
00408a2f c70001000000    mov     dword ptr [eax],1
00408a35 385dfc          cmp     byte ptr [ebp-4],bl
00408a38 0f843cffffff    je      image00400000+0x897a (0040897a)
00408a3e 8b45f8          mov     eax,dword ptr [ebp-8]
00408a41 836070fd        and     dword ptr [eax+70h],0FFFFFFFDh
00408a45 e930ffffff      jmp     image00400000+0x897a (0040897a)
00408a4a 8d4d0c          lea     ecx,[ebp+0Ch]
00408a4d 51              push    ecx
00408a4e 53              push    ebx
00408a4f 57              push    edi
00408a50 56              push    esi
00408a51 6a01            push    1
00408a53 8d4d14          lea     ecx,[ebp+14h]
00408a56 51              push    ecx
00408a57 53              push    ebx
00408a58 895d0c          mov     dword ptr [ebp+0Ch],ebx
00408a5b ff7004          push    dword ptr [eax+4]
00408a5e ff1510d14000    call    dword ptr [image00400000+0xd110 (0040d110)]
00408a64 3bc3            cmp     eax,ebx
00408a66 7414            je      image00400000+0x8a7c (00408a7c)
00408a68 395d0c          cmp     dword ptr [ebp+0Ch],ebx
00408a6b 0f856affffff    jne     image00400000+0x89db (004089db)
00408a71 8b4d08          mov     ecx,dword ptr [ebp+8]
00408a74 3bcb            cmp     ecx,ebx
00408a76 74bd            je      image00400000+0x8a35 (00408a35)
00408a78 8901            mov     dword ptr [ecx],eax
00408a7a ebb9            jmp     image00400000+0x8a35 (00408a35)
00408a7c ff1584d04000    call    dword ptr [image00400000+0xd084 (0040d084)]
00408a82 83f87a          cmp     eax,7Ah
00408a85 0f8550ffffff    jne     image00400000+0x89db (004089db)
00408a8b 3bf3            cmp     esi,ebx
00408a8d 0f8473ffffff    je      image00400000+0x8a06 (00408a06)
00408a93 3bfb            cmp     edi,ebx
00408a95 0f866bffffff    jbe     image00400000+0x8a06 (00408a06)
00408a9b 57              push    edi
00408a9c 53              push    ebx
00408a9d 56              push    esi
00408a9e e81d010000      call    image00400000+0x8bc0 (00408bc0)
00408aa3 83c40c          add     esp,0Ch
00408aa6 e95bffffff      jmp     image00400000+0x8a06 (00408a06)
00408aab 8bff            mov     edi,edi
00408aad 55              push    ebp
00408aae 8bec            mov     ebp,esp
00408ab0 6a00            push    0
00408ab2 ff7514          push    dword ptr [ebp+14h]
00408ab5 ff7510          push    dword ptr [ebp+10h]
00408ab8 ff750c          push    dword ptr [ebp+0Ch]
00408abb ff7508          push    dword ptr [ebp+8]
00408abe e893feffff      call    image00400000+0x8956 (00408956)
00408ac3 83c414          add     esp,14h
00408ac6 5d              pop     ebp
00408ac7 c3              ret
00408ac8 8bff            mov     edi,edi
00408aca 55              push    ebp
00408acb 8bec            mov     ebp,esp
00408acd 83ec10          sub     esp,10h
00408ad0 ff750c          push    dword ptr [ebp+0Ch]
00408ad3 8d4df0          lea     ecx,[ebp-10h]
00408ad6 e8f09dffff      call    image00400000+0x28cb (004028cb)
00408adb 0fb64508        movzx   eax,byte ptr [ebp+8]
00408adf 8b4df0          mov     ecx,dword ptr [ebp-10h]
00408ae2 8b89c8000000    mov     ecx,dword ptr [ecx+0C8h]
00408ae8 0fb70441        movzx   eax,word ptr [ecx+eax*2]
00408aec 2500800000      and     eax,8000h
00408af1 807dfc00        cmp     byte ptr [ebp-4],0
00408af5 7407            je      image00400000+0x8afe (00408afe)
00408af7 8b4df8          mov     ecx,dword ptr [ebp-8]
00408afa 836170fd        and     dword ptr [ecx+70h],0FFFFFFFDh
00408afe c9              leave
00408aff c3              ret
00408b00 8bff            mov     edi,edi
00408b02 55              push    ebp
00408b03 8bec            mov     ebp,esp
00408b05 6a00            push    0
00408b07 ff7508          push    dword ptr [ebp+8]
00408b0a e8b9ffffff      call    image00400000+0x8ac8 (00408ac8)
00408b0f 59              pop     ecx
00408b10 59              pop     ecx
00408b11 5d              pop     ebp
00408b12 c3              ret
00408b13 cc              int     3
00408b14 cc              int     3
00408b15 cc              int     3
00408b16 cc              int     3
00408b17 cc              int     3
00408b18 cc              int     3
00408b19 cc              int     3
00408b1a cc              int     3
00408b1b cc              int     3
00408b1c cc              int     3
00408b1d cc              int     3
00408b1e cc              int     3
00408b1f cc              int     3
00408b20 56              push    esi
00408b21 8b442414        mov     eax,dword ptr [esp+14h]
00408b25 0bc0            or      eax,eax
00408b27 7528            jne     image00400000+0x8b51 (00408b51)
00408b29 8b4c2410        mov     ecx,dword ptr [esp+10h]
00408b2d 8b44240c        mov     eax,dword ptr [esp+0Ch]
00408b31 33d2            xor     edx,edx
00408b33 f7f1            div     eax,ecx
00408b35 8bd8            mov     ebx,eax
00408b37 8b442408        mov     eax,dword ptr [esp+8]
00408b3b f7f1            div     eax,ecx
00408b3d 8bf0            mov     esi,eax
00408b3f 8bc3            mov     eax,ebx
00408b41 f7642410        mul     eax,dword ptr [esp+10h]
00408b45 8bc8            mov     ecx,eax
00408b47 8bc6            mov     eax,esi
00408b49 f7642410        mul     eax,dword ptr [esp+10h]
00408b4d 03d1            add     edx,ecx
00408b4f eb47            jmp     image00400000+0x8b98 (00408b98)
00408b51 8bc8            mov     ecx,eax
00408b53 8b5c2410        mov     ebx,dword ptr [esp+10h]
00408b57 8b54240c        mov     edx,dword ptr [esp+0Ch]
00408b5b 8b442408        mov     eax,dword ptr [esp+8]
00408b5f d1e9            shr     ecx,1
00408b61 d1db            rcr     ebx,1
00408b63 d1ea            shr     edx,1
00408b65 d1d8            rcr     eax,1
00408b67 0bc9            or      ecx,ecx
00408b69 75f4            jne     image00400000+0x8b5f (00408b5f)
00408b6b f7f3            div     eax,ebx
00408b6d 8bf0            mov     esi,eax
00408b6f f7642414        mul     eax,dword ptr [esp+14h]
00408b73 8bc8            mov     ecx,eax
00408b75 8b442410        mov     eax,dword ptr [esp+10h]
00408b79 f7e6            mul     eax,esi
00408b7b 03d1            add     edx,ecx
00408b7d 720e            jb      image00400000+0x8b8d (00408b8d)
00408b7f 3b54240c        cmp     edx,dword ptr [esp+0Ch]
00408b83 7708            ja      image00400000+0x8b8d (00408b8d)
00408b85 720f            jb      image00400000+0x8b96 (00408b96)
00408b87 3b442408        cmp     eax,dword ptr [esp+8]
00408b8b 7609            jbe     image00400000+0x8b96 (00408b96)
00408b8d 4e              dec     esi
00408b8e 2b442410        sub     eax,dword ptr [esp+10h]
00408b92 1b542414        sbb     edx,dword ptr [esp+14h]
00408b96 33db            xor     ebx,ebx
00408b98 2b442408        sub     eax,dword ptr [esp+8]
00408b9c 1b54240c        sbb     edx,dword ptr [esp+0Ch]
00408ba0 f7da            neg     edx
00408ba2 f7d8            neg     eax
00408ba4 83da00          sbb     edx,0
00408ba7 8bca            mov     ecx,edx
00408ba9 8bd3            mov     edx,ebx
00408bab 8bd9            mov     ebx,ecx
00408bad 8bc8            mov     ecx,eax
00408baf 8bc6            mov     eax,esi
00408bb1 5e              pop     esi
00408bb2 c21000          ret     10h
00408bb5 cc              int     3
00408bb6 cc              int     3
00408bb7 cc              int     3
00408bb8 cc              int     3
00408bb9 cc              int     3
00408bba cc              int     3
00408bbb cc              int     3
00408bbc cc              int     3
00408bbd cc              int     3
00408bbe cc              int     3
00408bbf cc              int     3
00408bc0 8b54240c        mov     edx,dword ptr [esp+0Ch]
00408bc4 8b4c2404        mov     ecx,dword ptr [esp+4]
00408bc8 85d2            test    edx,edx
00408bca 7469            je      image00400000+0x8c35 (00408c35)
00408bcc 33c0            xor     eax,eax
00408bce 8a442408        mov     al,byte ptr [esp+8]
00408bd2 84c0            test    al,al
00408bd4 7516            jne     image00400000+0x8bec (00408bec)
00408bd6 81fa80000000    cmp     edx,80h
00408bdc 720e            jb      image00400000+0x8bec (00408bec)
00408bde 833d6c1b410000  cmp     dword ptr [image00400000+0x11b6c (00411b6c)],0
00408be5 7405            je      image00400000+0x8bec (00408bec)
00408be7 e952250000      jmp     image00400000+0xb13e (0040b13e)
00408bec 57              push    edi
00408bed 8bf9            mov     edi,ecx
00408bef 83fa04          cmp     edx,4
00408bf2 7231            jb      image00400000+0x8c25 (00408c25)
00408bf4 f7d9            neg     ecx
00408bf6 83e103          and     ecx,3
00408bf9 740c            je      image00400000+0x8c07 (00408c07)
00408bfb 2bd1            sub     edx,ecx
00408bfd 8807            mov     byte ptr [edi],al
00408bff 83c701          add     edi,1
00408c02 83e901          sub     ecx,1
00408c05 75f6            jne     image00400000+0x8bfd (00408bfd)
00408c07 8bc8            mov     ecx,eax
00408c09 c1e008          shl     eax,8
00408c0c 03c1            add     eax,ecx
00408c0e 8bc8            mov     ecx,eax
00408c10 c1e010          shl     eax,10h
00408c13 03c1            add     eax,ecx
00408c15 8bca            mov     ecx,edx
00408c17 83e203          and     edx,3
00408c1a c1e902          shr     ecx,2
00408c1d 7406            je      image00400000+0x8c25 (00408c25)
00408c1f f3ab            rep stos dword ptr es:[edi]
00408c21 85d2            test    edx,edx
00408c23 740a            je      image00400000+0x8c2f (00408c2f)
00408c25 8807            mov     byte ptr [edi],al
00408c27 83c701          add     edi,1
00408c2a 83ea01          sub     edx,1
00408c2d 75f6            jne     image00400000+0x8c25 (00408c25)
00408c2f 8b442408        mov     eax,dword ptr [esp+8]
00408c33 5f              pop     edi
00408c34 c3              ret
00408c35 8b442404        mov     eax,dword ptr [esp+4]
00408c39 c3              ret
00408c3a cc              int     3
00408c3b cc              int     3
00408c3c cc              int     3
00408c3d cc              int     3
00408c3e cc              int     3
00408c3f cc              int     3
00408c40 55              push    ebp
00408c41 8bec            mov     ebp,esp
00408c43 57              push    edi
00408c44 56              push    esi
00408c45 8b750c          mov     esi,dword ptr [ebp+0Ch]
00408c48 8b4d10          mov     ecx,dword ptr [ebp+10h]
00408c4b 8b7d08          mov     edi,dword ptr [ebp+8]
00408c4e 8bc1            mov     eax,ecx
00408c50 8bd1            mov     edx,ecx
00408c52 03c6            add     eax,esi
00408c54 3bfe            cmp     edi,esi
00408c56 7608            jbe     image00400000+0x8c60 (00408c60)
00408c58 3bf8            cmp     edi,eax
00408c5a 0f82a0010000    jb      image00400000+0x8e00 (00408e00)
00408c60 81f980000000    cmp     ecx,80h
00408c66 721c            jb      image00400000+0x8c84 (00408c84)
00408c68 833d6c1b410000  cmp     dword ptr [image00400000+0x11b6c (00411b6c)],0
00408c6f 7413            je      image00400000+0x8c84 (00408c84)
00408c71 57              push    edi
00408c72 56              push    esi
00408c73 83e70f          and     edi,0Fh
00408c76 83e60f          and     esi,0Fh
00408c79 3bfe            cmp     edi,esi
00408c7b 5e              pop     esi
00408c7c 5f              pop     edi
00408c7d 7505            jne     image00400000+0x8c84 (00408c84)
00408c7f e984250000      jmp     image00400000+0xb208 (0040b208)
00408c84 f7c703000000    test    edi,3
00408c8a 7514            jne     image00400000+0x8ca0 (00408ca0)
00408c8c c1e902          shr     ecx,2
00408c8f 83e203          and     edx,3
00408c92 83f908          cmp     ecx,8
00408c95 7229            jb      image00400000+0x8cc0 (00408cc0)
00408c97 f3a5            rep movs dword ptr es:[edi],dword ptr [esi]
00408c99 ff2495b08d4000  jmp     dword ptr image00400000+0x8db0 (00408db0)[edx*4]
00408ca0 8bc7            mov     eax,edi
00408ca2 ba03000000      mov     edx,3
00408ca7 83e904          sub     ecx,4
00408caa 720c            jb      image00400000+0x8cb8 (00408cb8)
00408cac 83e003          and     eax,3
00408caf 03c8            add     ecx,eax
00408cb1 ff2485c48c4000  jmp     dword ptr image00400000+0x8cc4 (00408cc4)[eax*4]
00408cb8 ff248dc08d4000  jmp     dword ptr image00400000+0x8dc0 (00408dc0)[ecx*4]
00408cbf 90              nop
00408cc0 ff248d448d4000  jmp     dword ptr image00400000+0x8d44 (00408d44)[ecx*4]
00408cc7 90              nop
00408cc8 d48c            aamb    8Ch
00408cca 40              inc     eax
00408ccb 0000            add     byte ptr [eax],al
00408ccd 8d4000          lea     eax,[eax]
00408cd0 248d            and     al,8Dh
00408cd2 40              inc     eax
00408cd3 0023            add     byte ptr [ebx],ah
00408cd5 d18a0688078a    ror     dword ptr [edx-75F877FAh],1
00408cdb 46              inc     esi
00408cdc 018847018a46    add     dword ptr [eax+468A0147h],ecx
00408ce2 02c1            add     al,cl
00408ce4 e902884702      jmp     028814eb
00408ce9 83c603          add     esi,3
00408cec 83c703          add     edi,3
00408cef 83f908          cmp     ecx,8
00408cf2 72cc            jb      image00400000+0x8cc0 (00408cc0)
00408cf4 f3a5            rep movs dword ptr es:[edi],dword ptr [esi]
00408cf6 ff2495b08d4000  jmp     dword ptr image00400000+0x8db0 (00408db0)[edx*4]
00408cfd 8d4900          lea     ecx,[ecx]
00408d00 23d1            and     edx,ecx
00408d02 8a06            mov     al,byte ptr [esi]
00408d04 8807            mov     byte ptr [edi],al
00408d06 8a4601          mov     al,byte ptr [esi+1]
00408d09 c1e902          shr     ecx,2
00408d0c 884701          mov     byte ptr [edi+1],al
00408d0f 83c602          add     esi,2
00408d12 83c702          add     edi,2
00408d15 83f908          cmp     ecx,8
00408d18 72a6            jb      image00400000+0x8cc0 (00408cc0)
00408d1a f3a5            rep movs dword ptr es:[edi],dword ptr [esi]
00408d1c ff2495b08d4000  jmp     dword ptr image00400000+0x8db0 (00408db0)[edx*4]
00408d23 90              nop
00408d24 23d1            and     edx,ecx
00408d26 8a06            mov     al,byte ptr [esi]
00408d28 8807            mov     byte ptr [edi],al
00408d2a 83c601          add     esi,1
00408d2d c1e902          shr     ecx,2
00408d30 83c701          add     edi,1
00408d33 83f908          cmp     ecx,8
00408d36 7288            jb      image00400000+0x8cc0 (00408cc0)
00408d38 f3a5            rep movs dword ptr es:[edi],dword ptr [esi]
00408d3a ff2495b08d4000  jmp     dword ptr image00400000+0x8db0 (00408db0)[edx*4]
00408d41 8d4900          lea     ecx,[ecx]
00408d44 a7              cmps    dword ptr [esi],dword ptr es:[edi]
00408d45 8d4000          lea     eax,[eax]
00408d48 94              xchg    eax,esp
00408d49 8d4000          lea     eax,[eax]
00408d4c 8c8d4000848d    mov     word ptr [ebp-727BFFC0h],cs
00408d52 40              inc     eax
00408d53 007c8d40        add     byte ptr [ebp+ecx*4+40h],bh
00408d57 00748d40        add     byte ptr [ebp+ecx*4+40h],dh
00408d5b 006c8d40        add     byte ptr [ebp+ecx*4+40h],ch
00408d5f 00648d40        add     byte ptr [ebp+ecx*4+40h],ah
00408d63 008b448ee489    add     byte ptr [ebx-761B71BCh],cl
00408d69 44              inc     esp
00408d6a 8f              ???
00408d6b e48b            in      al,8Bh
00408d6d 44              inc     esp
00408d6e 8ee8            mov     gs,ax
00408d70 89448fe8        mov     dword ptr [edi+ecx*4-18h],eax
00408d74 8b448eec        mov     eax,dword ptr [esi+ecx*4-14h]
00408d78 89448fec        mov     dword ptr [edi+ecx*4-14h],eax
00408d7c 8b448ef0        mov     eax,dword ptr [esi+ecx*4-10h]
00408d80 89448ff0        mov     dword ptr [edi+ecx*4-10h],eax
00408d84 8b448ef4        mov     eax,dword ptr [esi+ecx*4-0Ch]
00408d88 89448ff4        mov     dword ptr [edi+ecx*4-0Ch],eax
00408d8c 8b448ef8        mov     eax,dword ptr [esi+ecx*4-8]
00408d90 89448ff8        mov     dword ptr [edi+ecx*4-8],eax
00408d94 8b448efc        mov     eax,dword ptr [esi+ecx*4-4]
00408d98 89448ffc        mov     dword ptr [edi+ecx*4-4],eax
00408d9c 8d048d00000000  lea     eax,[ecx*4]
00408da3 03f0            add     esi,eax
00408da5 03f8            add     edi,eax
00408da7 ff2495b08d4000  jmp     dword ptr image00400000+0x8db0 (00408db0)[edx*4]
00408dae 8bff            mov     edi,edi
00408db0 c08d4000c88d40  ror     byte ptr [ebp-7237FFC0h],40h
00408db7 00d4            add     ah,dl
00408db9 8d4000          lea     eax,[eax]
00408dbc e88d40008b      call    8b40ce4e
00408dc1 45              inc     ebp
00408dc2 085e5f          or      byte ptr [esi+5Fh],bl
00408dc5 c9              leave
00408dc6 c3              ret
00408dc7 90              nop
00408dc8 8a06            mov     al,byte ptr [esi]
00408dca 8807            mov     byte ptr [edi],al
00408dcc 8b4508          mov     eax,dword ptr [ebp+8]
00408dcf 5e              pop     esi
00408dd0 5f              pop     edi
00408dd1 c9              leave
00408dd2 c3              ret
00408dd3 90              nop
00408dd4 8a06            mov     al,byte ptr [esi]
00408dd6 8807            mov     byte ptr [edi],al
00408dd8 8a4601          mov     al,byte ptr [esi+1]
00408ddb 884701          mov     byte ptr [edi+1],al
00408dde 8b4508          mov     eax,dword ptr [ebp+8]
00408de1 5e              pop     esi
00408de2 5f              pop     edi
00408de3 c9              leave
00408de4 c3              ret
00408de5 8d4900          lea     ecx,[ecx]
00408de8 8a06            mov     al,byte ptr [esi]
00408dea 8807            mov     byte ptr [edi],al
00408dec 8a4601          mov     al,byte ptr [esi+1]
00408def 884701          mov     byte ptr [edi+1],al
00408df2 8a4602          mov     al,byte ptr [esi+2]
00408df5 884702          mov     byte ptr [edi+2],al
00408df8 8b4508          mov     eax,dword ptr [ebp+8]
00408dfb 5e              pop     esi
00408dfc 5f              pop     edi
00408dfd c9              leave
00408dfe c3              ret
00408dff 90              nop
00408e00 8d7431fc        lea     esi,[ecx+esi-4]
00408e04 8d7c39fc        lea     edi,[ecx+edi-4]
00408e08 f7c703000000    test    edi,3
00408e0e 7524            jne     image00400000+0x8e34 (00408e34)
00408e10 c1e902          shr     ecx,2
00408e13 83e203          and     edx,3
00408e16 83f908          cmp     ecx,8
00408e19 720d            jb      image00400000+0x8e28 (00408e28)
00408e1b fd              std
00408e1c f3a5            rep movs dword ptr es:[edi],dword ptr [esi]
00408e1e fc              cld
00408e1f ff24954c8f4000  jmp     dword ptr image00400000+0x8f4c (00408f4c)[edx*4]
00408e26 8bff            mov     edi,edi
00408e28 f7d9            neg     ecx
00408e2a ff248dfc8e4000  jmp     dword ptr image00400000+0x8efc (00408efc)[ecx*4]
00408e31 8d4900          lea     ecx,[ecx]
00408e34 8bc7            mov     eax,edi
00408e36 ba03000000      mov     edx,3
00408e3b 83f904          cmp     ecx,4
00408e3e 720c            jb      image00400000+0x8e4c (00408e4c)
00408e40 83e003          and     eax,3
00408e43 2bc8            sub     ecx,eax
00408e45 ff2485508e4000  jmp     dword ptr image00400000+0x8e50 (00408e50)[eax*4]
00408e4c ff248d4c8f4000  jmp     dword ptr image00400000+0x8f4c (00408f4c)[ecx*4]
00408e53 90              nop
00408e54 60              pushad
00408e55 8e4000          mov     es,word ptr [eax]
00408e58 848e4000ac8e    test    byte ptr [esi-7153FFC0h],cl
00408e5e 40              inc     eax
00408e5f 008a460323d1    add     byte ptr [edx-2EDCFCBAh],cl
00408e65 884703          mov     byte ptr [edi+3],al
00408e68 83ee01          sub     esi,1
00408e6b c1e902          shr     ecx,2
00408e6e 83ef01          sub     edi,1
00408e71 83f908          cmp     ecx,8
00408e74 72b2            jb      image00400000+0x8e28 (00408e28)
00408e76 fd              std
00408e77 f3a5            rep movs dword ptr es:[edi],dword ptr [esi]
00408e79 fc              cld
00408e7a ff24954c8f4000  jmp     dword ptr image00400000+0x8f4c (00408f4c)[edx*4]
00408e81 8d4900          lea     ecx,[ecx]
00408e84 8a4603          mov     al,byte ptr [esi+3]
00408e87 23d1            and     edx,ecx
00408e89 884703          mov     byte ptr [edi+3],al
00408e8c 8a4602          mov     al,byte ptr [esi+2]
00408e8f c1e902          shr     ecx,2
00408e92 884702          mov     byte ptr [edi+2],al
00408e95 83ee02          sub     esi,2
00408e98 83ef02          sub     edi,2
00408e9b 83f908          cmp     ecx,8
00408e9e 7288            jb      image00400000+0x8e28 (00408e28)
00408ea0 fd              std
00408ea1 f3a5            rep movs dword ptr es:[edi],dword ptr [esi]
00408ea3 fc              cld
00408ea4 ff24954c8f4000  jmp     dword ptr image00400000+0x8f4c (00408f4c)[edx*4]
00408eab 90              nop
00408eac 8a4603          mov     al,byte ptr [esi+3]
00408eaf 23d1            and     edx,ecx
00408eb1 884703          mov     byte ptr [edi+3],al
00408eb4 8a4602          mov     al,byte ptr [esi+2]
00408eb7 884702          mov     byte ptr [edi+2],al
00408eba 8a4601          mov     al,byte ptr [esi+1]
00408ebd c1e902          shr     ecx,2
00408ec0 884701          mov     byte ptr [edi+1],al
00408ec3 83ee03          sub     esi,3
00408ec6 83ef03          sub     edi,3
00408ec9 83f908          cmp     ecx,8
00408ecc 0f8256ffffff    jb      image00400000+0x8e28 (00408e28)
00408ed2 fd              std
00408ed3 f3a5            rep movs dword ptr es:[edi],dword ptr [esi]
00408ed5 fc              cld
00408ed6 ff24954c8f4000  jmp     dword ptr image00400000+0x8f4c (00408f4c)[edx*4]
00408edd 8d4900          lea     ecx,[ecx]
00408ee0 008f4000088f    add     byte ptr [edi-70F7FFC0h],cl
00408ee6 40              inc     eax
00408ee7 0010            add     byte ptr [eax],dl
00408ee9 8f4000          pop     dword ptr [eax]
00408eec 188f4000208f    sbb     byte ptr [edi-70DFFFC0h],cl
00408ef2 40              inc     eax
00408ef3 0028            add     byte ptr [eax],ch
00408ef5 8f4000          pop     dword ptr [eax]
00408ef8 308f4000438f    xor     byte ptr [edi-70BCFFC0h],cl
00408efe 40              inc     eax
00408eff 008b448e1c89    add     byte ptr [ebx-76E371BCh],cl
00408f05 44              inc     esp
00408f06 8f              ???
00408f07 1c8b            sbb     al,8Bh
00408f09 44              inc     esp
00408f0a 8e18            mov     ds,word ptr [eax]
00408f0c 89448f18        mov     dword ptr [edi+ecx*4+18h],eax
00408f10 8b448e14        mov     eax,dword ptr [esi+ecx*4+14h]
00408f14 89448f14        mov     dword ptr [edi+ecx*4+14h],eax
00408f18 8b448e10        mov     eax,dword ptr [esi+ecx*4+10h]
00408f1c 89448f10        mov     dword ptr [edi+ecx*4+10h],eax
00408f20 8b448e0c        mov     eax,dword ptr [esi+ecx*4+0Ch]
00408f24 89448f0c        mov     dword ptr [edi+ecx*4+0Ch],eax
00408f28 8b448e08        mov     eax,dword ptr [esi+ecx*4+8]
00408f2c 89448f08        mov     dword ptr [edi+ecx*4+8],eax
00408f30 8b448e04        mov     eax,dword ptr [esi+ecx*4+4]
00408f34 89448f04        mov     dword ptr [edi+ecx*4+4],eax
00408f38 8d048d00000000  lea     eax,[ecx*4]
00408f3f 03f0            add     esi,eax
00408f41 03f8            add     edi,eax
00408f43 ff24954c8f4000  jmp     dword ptr image00400000+0x8f4c (00408f4c)[edx*4]
00408f4a 8bff            mov     edi,edi
00408f4c 5c              pop     esp
00408f4d 8f4000          pop     dword ptr [eax]
00408f50 648f4000        pop     dword ptr fs:[eax]
00408f54 748f            je      image00400000+0x8ee5 (00408ee5)
00408f56 40              inc     eax
00408f57 00888f40008b    add     byte ptr [eax-74FFBF71h],cl
00408f5d 45              inc     ebp
00408f5e 085e5f          or      byte ptr [esi+5Fh],bl
00408f61 c9              leave
00408f62 c3              ret
00408f63 90              nop
00408f64 8a4603          mov     al,byte ptr [esi+3]
00408f67 884703          mov     byte ptr [edi+3],al
00408f6a 8b4508          mov     eax,dword ptr [ebp+8]
00408f6d 5e              pop     esi
00408f6e 5f              pop     edi
00408f6f c9              leave
00408f70 c3              ret
00408f71 8d4900          lea     ecx,[ecx]
00408f74 8a4603          mov     al,byte ptr [esi+3]
00408f77 884703          mov     byte ptr [edi+3],al
00408f7a 8a4602          mov     al,byte ptr [esi+2]
00408f7d 884702          mov     byte ptr [edi+2],al
00408f80 8b4508          mov     eax,dword ptr [ebp+8]
00408f83 5e              pop     esi
00408f84 5f              pop     edi
00408f85 c9              leave
00408f86 c3              ret
00408f87 90              nop
00408f88 8a4603          mov     al,byte ptr [esi+3]
00408f8b 884703          mov     byte ptr [edi+3],al
00408f8e 8a4602          mov     al,byte ptr [esi+2]
00408f91 884702          mov     byte ptr [edi+2],al
00408f94 8a4601          mov     al,byte ptr [esi+1]
00408f97 884701          mov     byte ptr [edi+1],al
00408f9a 8b4508          mov     eax,dword ptr [ebp+8]
00408f9d 5e              pop     esi
00408f9e 5f              pop     edi
00408f9f c9              leave
00408fa0 c3              ret
00408fa1 8bff            mov     edi,edi
00408fa3 55              push    ebp
00408fa4 8bec            mov     ebp,esp
00408fa6 83ec10          sub     esp,10h
00408fa9 ff750c          push    dword ptr [ebp+0Ch]
00408fac 8d4df0          lea     ecx,[ebp-10h]
00408faf e81799ffff      call    image00400000+0x28cb (004028cb)
00408fb4 8b45f0          mov     eax,dword ptr [ebp-10h]
00408fb7 83b8ac00000001  cmp     dword ptr [eax+0ACh],1
00408fbe 7e13            jle     image00400000+0x8fd3 (00408fd3)
00408fc0 8d45f0          lea     eax,[ebp-10h]
00408fc3 50              push    eax
00408fc4 6a04            push    4
00408fc6 ff7508          push    dword ptr [ebp+8]
00408fc9 e83d230000      call    image00400000+0xb30b (0040b30b)
00408fce 83c40c          add     esp,0Ch
00408fd1 eb10            jmp     image00400000+0x8fe3 (00408fe3)
00408fd3 8b80c8000000    mov     eax,dword ptr [eax+0C8h]
00408fd9 8b4d08          mov     ecx,dword ptr [ebp+8]
00408fdc 0fb70448        movzx   eax,word ptr [eax+ecx*2]
00408fe0 83e004          and     eax,4
00408fe3 807dfc00        cmp     byte ptr [ebp-4],0
00408fe7 7407            je      image00400000+0x8ff0 (00408ff0)
00408fe9 8b4df8          mov     ecx,dword ptr [ebp-8]
00408fec 836170fd        and     dword ptr [ecx+70h],0FFFFFFFDh
00408ff0 c9              leave
00408ff1 c3              ret
00408ff2 8bff            mov     edi,edi
00408ff4 55              push    ebp
00408ff5 8bec            mov     ebp,esp
00408ff7 833dac18410000  cmp     dword ptr [image00400000+0x118ac (004118ac)],0
00408ffe 7512            jne     image00400000+0x9012 (00409012)
00409000 8b4508          mov     eax,dword ptr [ebp+8]
00409003 8b0df0084100    mov     ecx,dword ptr [image00400000+0x108f0 (004108f0)]
00409009 0fb70441        movzx   eax,word ptr [ecx+eax*2]
0040900d 83e004          and     eax,4
00409010 5d              pop     ebp
00409011 c3              ret
00409012 6a00            push    0
00409014 ff7508          push    dword ptr [ebp+8]
00409017 e885ffffff      call    image00400000+0x8fa1 (00408fa1)
0040901c 59              pop     ecx
0040901d 59              pop     ecx
0040901e 5d              pop     ebp
0040901f c3              ret
00409020 8bff            mov     edi,edi
00409022 55              push    ebp
00409023 8bec            mov     ebp,esp
00409025 83ec10          sub     esp,10h
00409028 ff750c          push    dword ptr [ebp+0Ch]
0040902b 8d4df0          lea     ecx,[ebp-10h]
0040902e e89898ffff      call    image00400000+0x28cb (004028cb)
00409033 8b45f0          mov     eax,dword ptr [ebp-10h]
00409036 83b8ac00000001  cmp     dword ptr [eax+0ACh],1
0040903d 7e16            jle     image00400000+0x9055 (00409055)
0040903f 8d45f0          lea     eax,[ebp-10h]
00409042 50              push    eax
00409043 6880000000      push    80h
00409048 ff7508          push    dword ptr [ebp+8]
0040904b e8bb220000      call    image00400000+0xb30b (0040b30b)
00409050 83c40c          add     esp,0Ch
00409053 eb12            jmp     image00400000+0x9067 (00409067)
00409055 8b80c8000000    mov     eax,dword ptr [eax+0C8h]
0040905b 8b4d08          mov     ecx,dword ptr [ebp+8]
0040905e 0fb70448        movzx   eax,word ptr [eax+ecx*2]
00409062 2580000000      and     eax,80h
00409067 807dfc00        cmp     byte ptr [ebp-4],0
0040906b 7407            je      image00400000+0x9074 (00409074)
0040906d 8b4df8          mov     ecx,dword ptr [ebp-8]
00409070 836170fd        and     dword ptr [ecx+70h],0FFFFFFFDh
00409074 c9              leave
00409075 c3              ret
00409076 8bff            mov     edi,edi
00409078 55              push    ebp
00409079 8bec            mov     ebp,esp
0040907b 833dac18410000  cmp     dword ptr [image00400000+0x118ac (004118ac)],0
00409082 7514            jne     image00400000+0x9098 (00409098)
00409084 8b4508          mov     eax,dword ptr [ebp+8]
00409087 8b0df0084100    mov     ecx,dword ptr [image00400000+0x108f0 (004108f0)]
0040908d 0fb70441        movzx   eax,word ptr [ecx+eax*2]
00409091 2580000000      and     eax,80h
00409096 5d              pop     ebp
00409097 c3              ret
00409098 6a00            push    0
0040909a ff7508          push    dword ptr [ebp+8]
0040909d e87effffff      call    image00400000+0x9020 (00409020)
004090a2 59              pop     ecx
004090a3 59              pop     ecx
004090a4 5d              pop     ebp
004090a5 c3              ret
004090a6 8bff            mov     edi,edi
004090a8 55              push    ebp
004090a9 8bec            mov     ebp,esp
004090ab 83ec10          sub     esp,10h
004090ae ff750c          push    dword ptr [ebp+0Ch]
004090b1 8d4df0          lea     ecx,[ebp-10h]
004090b4 e81298ffff      call    image00400000+0x28cb (004028cb)
004090b9 8b45f0          mov     eax,dword ptr [ebp-10h]
004090bc 83b8ac00000001  cmp     dword ptr [eax+0ACh],1
004090c3 7e13            jle     image00400000+0x90d8 (004090d8)
004090c5 8d45f0          lea     eax,[ebp-10h]
004090c8 50              push    eax
004090c9 6a08            push    8
004090cb ff7508          push    dword ptr [ebp+8]
004090ce e838220000      call    image00400000+0xb30b (0040b30b)
004090d3 83c40c          add     esp,0Ch
004090d6 eb10            jmp     image00400000+0x90e8 (004090e8)
004090d8 8b80c8000000    mov     eax,dword ptr [eax+0C8h]
004090de 8b4d08          mov     ecx,dword ptr [ebp+8]
004090e1 0fb70448        movzx   eax,word ptr [eax+ecx*2]
004090e5 83e008          and     eax,8
004090e8 807dfc00        cmp     byte ptr [ebp-4],0
004090ec 7407            je      image00400000+0x90f5 (004090f5)
004090ee 8b4df8          mov     ecx,dword ptr [ebp-8]
004090f1 836170fd        and     dword ptr [ecx+70h],0FFFFFFFDh
004090f5 c9              leave
004090f6 c3              ret
004090f7 8bff            mov     edi,edi
004090f9 55              push    ebp
004090fa 8bec            mov     ebp,esp
004090fc 833dac18410000  cmp     dword ptr [image00400000+0x118ac (004118ac)],0
00409103 7512            jne     image00400000+0x9117 (00409117)
00409105 8b4508          mov     eax,dword ptr [ebp+8]
00409108 8b0df0084100    mov     ecx,dword ptr [image00400000+0x108f0 (004108f0)]
0040910e 0fb70441        movzx   eax,word ptr [ecx+eax*2]
00409112 83e008          and     eax,8
00409115 5d              pop     ebp
00409116 c3              ret
00409117 6a00            push    0
00409119 ff7508          push    dword ptr [ebp+8]
0040911c e885ffffff      call    image00400000+0x90a6 (004090a6)
00409121 59              pop     ecx
00409122 59              pop     ecx
00409123 5d              pop     ebp
00409124 c3              ret
00409125 8bff            mov     edi,edi
00409127 55              push    ebp
00409128 8bec            mov     ebp,esp
0040912a 56              push    esi
0040912b 8b7508          mov     esi,dword ptr [ebp+8]
0040912e 85f6            test    esi,esi
00409130 7515            jne     image00400000+0x9147 (00409147)
00409132 e8faacffff      call    image00400000+0x3e31 (00403e31)
00409137 c70016000000    mov     dword ptr [eax],16h
0040913d e89dacffff      call    image00400000+0x3ddf (00403ddf)
00409142 e9fa000000      jmp     image00400000+0x9241 (00409241)
00409147 8b460c          mov     eax,dword ptr [esi+0Ch]
0040914a a883            test    al,83h
0040914c 0f84ef000000    je      image00400000+0x9241 (00409241)
00409152 a840            test    al,40h
00409154 0f85e7000000    jne     image00400000+0x9241 (00409241)
0040915a a802            test    al,2
0040915c 740b            je      image00400000+0x9169 (00409169)
0040915e 83c820          or      eax,20h
00409161 89460c          mov     dword ptr [esi+0Ch],eax
00409164 e9d8000000      jmp     image00400000+0x9241 (00409241)
00409169 83c801          or      eax,1
0040916c 89460c          mov     dword ptr [esi+0Ch],eax
0040916f a90c010000      test    eax,10Ch
00409174 7509            jne     image00400000+0x917f (0040917f)
00409176 56              push    esi
00409177 e8f6f3ffff      call    image00400000+0x8572 (00408572)
0040917c 59              pop     ecx
0040917d eb05            jmp     image00400000+0x9184 (00409184)
0040917f 8b4608          mov     eax,dword ptr [esi+8]
00409182 8906            mov     dword ptr [esi],eax
00409184 ff7618          push    dword ptr [esi+18h]
00409187 ff7608          push    dword ptr [esi+8]
0040918a 56              push    esi
0040918b e836f6ffff      call    image00400000+0x87c6 (004087c6)
00409190 59              pop     ecx
00409191 50              push    eax
00409192 e8e3270000      call    image00400000+0xb97a (0040b97a)
00409197 83c40c          add     esp,0Ch
0040919a 894604          mov     dword ptr [esi+4],eax
0040919d 85c0            test    eax,eax
0040919f 0f848b000000    je      image00400000+0x9230 (00409230)
004091a5 83f8ff          cmp     eax,0FFFFFFFFh
004091a8 0f8482000000    je      image00400000+0x9230 (00409230)
004091ae f6460c82        test    byte ptr [esi+0Ch],82h
004091b2 7551            jne     image00400000+0x9205 (00409205)
004091b4 56              push    esi
004091b5 e80cf6ffff      call    image00400000+0x87c6 (004087c6)
004091ba 59              pop     ecx
004091bb 83f8ff          cmp     eax,0FFFFFFFFh
004091be 7430            je      image00400000+0x91f0 (004091f0)
004091c0 56              push    esi
004091c1 e800f6ffff      call    image00400000+0x87c6 (004087c6)
004091c6 59              pop     ecx
004091c7 83f8fe          cmp     eax,0FFFFFFFEh
004091ca 7424            je      image00400000+0x91f0 (004091f0)
004091cc 57              push    edi
004091cd 56              push    esi
004091ce e8f3f5ffff      call    image00400000+0x87c6 (004087c6)
004091d3 c1f805          sar     eax,5
004091d6 56              push    esi
004091d7 8d3c85a02b4100  lea     edi,image00400000+0x12ba0 (00412ba0)[eax*4]
004091de e8e3f5ffff      call    image00400000+0x87c6 (004087c6)
004091e3 83e01f          and     eax,1Fh
004091e6 59              pop     ecx
004091e7 c1e006          shl     eax,6
004091ea 0307            add     eax,dword ptr [edi]
004091ec 59              pop     ecx
004091ed 5f              pop     edi
004091ee eb05            jmp     image00400000+0x91f5 (004091f5)
004091f0 b820094100      mov     eax,offset image00400000+0x10920 (00410920)
004091f5 8a4004          mov     al,byte ptr [eax+4]
004091f8 2482            and     al,82h
004091fa 3c82            cmp     al,82h
004091fc 7507            jne     image00400000+0x9205 (00409205)
004091fe 814e0c00200000  or      dword ptr [esi+0Ch],2000h
00409205 817e1800020000  cmp     dword ptr [esi+18h],200h
0040920c 7515            jne     image00400000+0x9223 (00409223)
0040920e 8b460c          mov     eax,dword ptr [esi+0Ch]
00409211 a808            test    al,8
00409213 740e            je      image00400000+0x9223 (00409223)
00409215 a900040000      test    eax,400h
0040921a 7507            jne     image00400000+0x9223 (00409223)
0040921c c7461800100000  mov     dword ptr [esi+18h],1000h
00409223 8b0e            mov     ecx,dword ptr [esi]
00409225 ff4e04          dec     dword ptr [esi+4]
00409228 0fb601          movzx   eax,byte ptr [ecx]
0040922b 41              inc     ecx
0040922c 890e            mov     dword ptr [esi],ecx
0040922e eb14            jmp     image00400000+0x9244 (00409244)
00409230 f7d8            neg     eax
00409232 1bc0            sbb     eax,eax
00409234 83e010          and     eax,10h
00409237 83c010          add     eax,10h
0040923a 09460c          or      dword ptr [esi+0Ch],eax
0040923d 83660400        and     dword ptr [esi+4],0
00409241 83c8ff          or      eax,0FFFFFFFFh
00409244 5e              pop     esi
00409245 5d              pop     ebp
00409246 c3              ret
00409247 8bff            mov     edi,edi
00409249 55              push    ebp
0040924a 8bec            mov     ebp,esp
0040924c 53              push    ebx
0040924d 56              push    esi
0040924e 8b750c          mov     esi,dword ptr [ebp+0Ch]
00409251 57              push    edi
00409252 83cfff          or      edi,0FFFFFFFFh
00409255 f6460c40        test    byte ptr [esi+0Ch],40h
00409259 756f            jne     image00400000+0x92ca (004092ca)
0040925b 56              push    esi
0040925c e865f5ffff      call    image00400000+0x87c6 (004087c6)
00409261 59              pop     ecx
00409262 ba20094100      mov     edx,offset image00400000+0x10920 (00410920)
00409267 3bc7            cmp     eax,edi
00409269 741b            je      image00400000+0x9286 (00409286)
0040926b 83f8fe          cmp     eax,0FFFFFFFEh
0040926e 7416            je      image00400000+0x9286 (00409286)
00409270 8bc8            mov     ecx,eax
00409272 83e11f          and     ecx,1Fh
00409275 8bd8            mov     ebx,eax
00409277 c1fb05          sar     ebx,5
0040927a c1e106          shl     ecx,6
0040927d 030c9da02b4100  add     ecx,dword ptr image00400000+0x12ba0 (00412ba0)[ebx*4]
00409284 eb02            jmp     image00400000+0x9288 (00409288)
00409286 8bca            mov     ecx,edx
00409288 f641247f        test    byte ptr [ecx+24h],7Fh
0040928c 7525            jne     image00400000+0x92b3 (004092b3)
0040928e 3bc7            cmp     eax,edi
00409290 7419            je      image00400000+0x92ab (004092ab)
00409292 83f8fe          cmp     eax,0FFFFFFFEh
00409295 7414            je      image00400000+0x92ab (004092ab)
00409297 8bc8            mov     ecx,eax
00409299 83e01f          and     eax,1Fh
0040929c c1f905          sar     ecx,5
0040929f c1e006          shl     eax,6
004092a2 03048da02b4100  add     eax,dword ptr image00400000+0x12ba0 (00412ba0)[ecx*4]
004092a9 eb02            jmp     image00400000+0x92ad (004092ad)
004092ab 8bc2            mov     eax,edx
004092ad f6402480        test    byte ptr [eax+24h],80h
004092b1 7417            je      image00400000+0x92ca (004092ca)
004092b3 e879abffff      call    image00400000+0x3e31 (00403e31)
004092b8 c70016000000    mov     dword ptr [eax],16h
004092be e81cabffff      call    image00400000+0x3ddf (00403ddf)
004092c3 8bc7            mov     eax,edi
004092c5 5f              pop     edi
004092c6 5e              pop     esi
004092c7 5b              pop     ebx
004092c8 5d              pop     ebp
004092c9 c3              ret
004092ca 8b5d08          mov     ebx,dword ptr [ebp+8]
004092cd 3bdf            cmp     ebx,edi
004092cf 74f2            je      image00400000+0x92c3 (004092c3)
004092d1 8b460c          mov     eax,dword ptr [esi+0Ch]
004092d4 a801            test    al,1
004092d6 7508            jne     image00400000+0x92e0 (004092e0)
004092d8 84c0            test    al,al
004092da 79e7            jns     image00400000+0x92c3 (004092c3)
004092dc a802            test    al,2
004092de 75e3            jne     image00400000+0x92c3 (004092c3)
004092e0 837e0800        cmp     dword ptr [esi+8],0
004092e4 7507            jne     image00400000+0x92ed (004092ed)
004092e6 56              push    esi
004092e7 e886f2ffff      call    image00400000+0x8572 (00408572)
004092ec 59              pop     ecx
004092ed 8b06            mov     eax,dword ptr [esi]
004092ef 3b4608          cmp     eax,dword ptr [esi+8]
004092f2 7509            jne     image00400000+0x92fd (004092fd)
004092f4 837e0400        cmp     dword ptr [esi+4],0
004092f8 75c9            jne     image00400000+0x92c3 (004092c3)
004092fa 40              inc     eax
004092fb 8906            mov     dword ptr [esi],eax
004092fd ff0e            dec     dword ptr [esi]
004092ff f6460c40        test    byte ptr [esi+0Ch],40h
00409303 8b06            mov     eax,dword ptr [esi]
00409305 7409            je      image00400000+0x9310 (00409310)
00409307 3818            cmp     byte ptr [eax],bl
00409309 7407            je      image00400000+0x9312 (00409312)
0040930b 40              inc     eax
0040930c 8906            mov     dword ptr [esi],eax
0040930e ebb3            jmp     image00400000+0x92c3 (004092c3)
00409310 8818            mov     byte ptr [eax],bl
00409312 8b460c          mov     eax,dword ptr [esi+0Ch]
00409315 ff4604          inc     dword ptr [esi+4]
00409318 83e0ef          and     eax,0FFFFFFEFh
0040931b 83c801          or      eax,1
0040931e 89460c          mov     dword ptr [esi+0Ch],eax
00409321 8bc3            mov     eax,ebx
00409323 25ff000000      and     eax,0FFh
00409328 eb9b            jmp     image00400000+0x92c5 (004092c5)
0040932a 8bff            mov     edi,edi
0040932c 55              push    ebp
0040932d 8bec            mov     ebp,esp
0040932f 83ec10          sub     esp,10h
00409332 53              push    ebx
00409333 56              push    esi
00409334 8b750c          mov     esi,dword ptr [ebp+0Ch]
00409337 33db            xor     ebx,ebx
00409339 3bf3            cmp     esi,ebx
0040933b 7415            je      image00400000+0x9352 (00409352)
0040933d 395d10          cmp     dword ptr [ebp+10h],ebx
00409340 7410            je      image00400000+0x9352 (00409352)
00409342 381e            cmp     byte ptr [esi],bl
00409344 7512            jne     image00400000+0x9358 (00409358)
00409346 8b4508          mov     eax,dword ptr [ebp+8]
00409349 3bc3            cmp     eax,ebx
0040934b 7405            je      image00400000+0x9352 (00409352)
0040934d 33c9            xor     ecx,ecx
0040934f 668908          mov     word ptr [eax],cx
00409352 33c0            xor     eax,eax
00409354 5e              pop     esi
00409355 5b              pop     ebx
00409356 c9              leave
00409357 c3              ret
00409358 ff7514          push    dword ptr [ebp+14h]
0040935b 8d4df0          lea     ecx,[ebp-10h]
0040935e e86895ffff      call    image00400000+0x28cb (004028cb)
00409363 8b45f0          mov     eax,dword ptr [ebp-10h]
00409366 395814          cmp     dword ptr [eax+14h],ebx
00409369 751e            jne     image00400000+0x9389 (00409389)
0040936b 8b4508          mov     eax,dword ptr [ebp+8]
0040936e 3bc3            cmp     eax,ebx
00409370 7406            je      image00400000+0x9378 (00409378)
00409372 0fb60e          movzx   ecx,byte ptr [esi]
00409375 668908          mov     word ptr [eax],cx
00409378 385dfc          cmp     byte ptr [ebp-4],bl
0040937b 7407            je      image00400000+0x9384 (00409384)
0040937d 8b45f8          mov     eax,dword ptr [ebp-8]
00409380 836070fd        and     dword ptr [eax+70h],0FFFFFFFDh
00409384 33c0            xor     eax,eax
00409386 40              inc     eax
00409387 ebcb            jmp     image00400000+0x9354 (00409354)
00409389 8d45f0          lea     eax,[ebp-10h]
0040938c 50              push    eax
0040938d 0fb606          movzx   eax,byte ptr [esi]
00409390 50              push    eax
00409391 e832f7ffff      call    image00400000+0x8ac8 (00408ac8)
00409396 59              pop     ecx
00409397 59              pop     ecx
00409398 85c0            test    eax,eax
0040939a 747d            je      image00400000+0x9419 (00409419)
0040939c 8b45f0          mov     eax,dword ptr [ebp-10h]
0040939f 8b88ac000000    mov     ecx,dword ptr [eax+0ACh]
004093a5 83f901          cmp     ecx,1
004093a8 7e25            jle     image00400000+0x93cf (004093cf)
004093aa 394d10          cmp     dword ptr [ebp+10h],ecx
004093ad 7c20            jl      image00400000+0x93cf (004093cf)
004093af 33d2            xor     edx,edx
004093b1 395d08          cmp     dword ptr [ebp+8],ebx
004093b4 0f95c2          setne   dl
004093b7 52              push    edx
004093b8 ff7508          push    dword ptr [ebp+8]
004093bb 51              push    ecx
004093bc 56              push    esi
004093bd 6a09            push    9
004093bf ff7004          push    dword ptr [eax+4]
004093c2 ff1544d14000    call    dword ptr [image00400000+0xd144 (0040d144)]
004093c8 85c0            test    eax,eax
004093ca 8b45f0          mov     eax,dword ptr [ebp-10h]
004093cd 7510            jne     image00400000+0x93df (004093df)
004093cf 8b4d10          mov     ecx,dword ptr [ebp+10h]
004093d2 3b88ac000000    cmp     ecx,dword ptr [eax+0ACh]
004093d8 7220            jb      image00400000+0x93fa (004093fa)
004093da 385e01          cmp     byte ptr [esi+1],bl
004093dd 741b            je      image00400000+0x93fa (004093fa)
004093df 8b80ac000000    mov     eax,dword ptr [eax+0ACh]
004093e5 385dfc          cmp     byte ptr [ebp-4],bl
004093e8 0f8466ffffff    je      image00400000+0x9354 (00409354)
004093ee 8b4df8          mov     ecx,dword ptr [ebp-8]
004093f1 836170fd        and     dword ptr [ecx+70h],0FFFFFFFDh
004093f5 e95affffff      jmp     image00400000+0x9354 (00409354)
004093fa e832aaffff      call    image00400000+0x3e31 (00403e31)
004093ff c7002a000000    mov     dword ptr [eax],2Ah
00409405 385dfc          cmp     byte ptr [ebp-4],bl
00409408 7407            je      image00400000+0x9411 (00409411)
0040940a 8b45f8          mov     eax,dword ptr [ebp-8]
0040940d 836070fd        and     dword ptr [eax+70h],0FFFFFFFDh
00409411 83c8ff          or      eax,0FFFFFFFFh
00409414 e93bffffff      jmp     image00400000+0x9354 (00409354)
00409419 33c0            xor     eax,eax
0040941b 395d08          cmp     dword ptr [ebp+8],ebx
0040941e 0f95c0          setne   al
00409421 50              push    eax
00409422 ff7508          push    dword ptr [ebp+8]
00409425 8b45f0          mov     eax,dword ptr [ebp-10h]
00409428 6a01            push    1
0040942a 56              push    esi
0040942b 6a09            push    9
0040942d ff7004          push    dword ptr [eax+4]
00409430 ff1544d14000    call    dword ptr [image00400000+0xd144 (0040d144)]
00409436 85c0            test    eax,eax
00409438 0f853affffff    jne     image00400000+0x9378 (00409378)
0040943e ebba            jmp     image00400000+0x93fa (004093fa)
00409440 8bff            mov     edi,edi
00409442 55              push    ebp
00409443 8bec            mov     ebp,esp
00409445 6a00            push    0
00409447 ff7510          push    dword ptr [ebp+10h]
0040944a ff750c          push    dword ptr [ebp+0Ch]
0040944d ff7508          push    dword ptr [ebp+8]
00409450 e8d5feffff      call    image00400000+0x932a (0040932a)
00409455 83c410          add     esp,10h
00409458 5d              pop     ebp
00409459 c3              ret
0040945a cc              int     3
0040945b cc              int     3
0040945c cc              int     3
0040945d cc              int     3
0040945e cc              int     3
0040945f cc              int     3
00409460 8b442408        mov     eax,dword ptr [esp+8]
00409464 8b4c2410        mov     ecx,dword ptr [esp+10h]
00409468 0bc8            or      ecx,eax
0040946a 8b4c240c        mov     ecx,dword ptr [esp+0Ch]
0040946e 7509            jne     image00400000+0x9479 (00409479)
00409470 8b442404        mov     eax,dword ptr [esp+4]
00409474 f7e1            mul     eax,ecx
00409476 c21000          ret     10h
00409479 53              push    ebx
0040947a f7e1            mul     eax,ecx
0040947c 8bd8            mov     ebx,eax
0040947e 8b442408        mov     eax,dword ptr [esp+8]
00409482 f7642414        mul     eax,dword ptr [esp+14h]
00409486 03d8            add     ebx,eax
00409488 8b442408        mov     eax,dword ptr [esp+8]
0040948c f7e1            mul     eax,ecx
0040948e 03d3            add     edx,ebx
00409490 5b              pop     ebx
00409491 c21000          ret     10h
00409494 8bff            mov     edi,edi
00409496 56              push    esi
00409497 57              push    edi
00409498 33f6            xor     esi,esi
0040949a bfc8194100      mov     edi,offset image00400000+0x119c8 (004119c8)
0040949f 833cf5140c410001 cmp     dword ptr image00400000+0x10c14 (00410c14)[esi*8],1
004094a7 751d            jne     image00400000+0x94c6 (004094c6)
004094a9 8d04f5100c4100  lea     eax,image00400000+0x10c10 (00410c10)[esi*8]
004094b0 8938            mov     dword ptr [eax],edi
004094b2 68a00f0000      push    0FA0h
004094b7 ff30            push    dword ptr [eax]
004094b9 83c718          add     edi,18h
004094bc ff151cd14000    call    dword ptr [image00400000+0xd11c (0040d11c)]
004094c2 85c0            test    eax,eax
004094c4 740c            je      image00400000+0x94d2 (004094d2)
004094c6 46              inc     esi
004094c7 83fe24          cmp     esi,24h
004094ca 7cd3            jl      image00400000+0x949f (0040949f)
004094cc 33c0            xor     eax,eax
004094ce 40              inc     eax
004094cf 5f              pop     edi
004094d0 5e              pop     esi
004094d1 c3              ret
004094d2 8324f5100c410000 and     dword ptr image00400000+0x10c10 (00410c10)[esi*8],0
004094da 33c0            xor     eax,eax
004094dc ebf1            jmp     image00400000+0x94cf (004094cf)
004094de 8bff            mov     edi,edi
004094e0 53              push    ebx
004094e1 8b1d24d14000    mov     ebx,dword ptr [image00400000+0xd124 (0040d124)]
004094e7 56              push    esi
004094e8 be100c4100      mov     esi,offset image00400000+0x10c10 (00410c10)
004094ed 57              push    edi
004094ee 8b3e            mov     edi,dword ptr [esi]
004094f0 85ff            test    edi,edi
004094f2 7413            je      image00400000+0x9507 (00409507)
004094f4 837e0401        cmp     dword ptr [esi+4],1
004094f8 740d            je      image00400000+0x9507 (00409507)
004094fa 57              push    edi
004094fb ffd3            call    ebx
004094fd 57              push    edi
004094fe e81b91ffff      call    image00400000+0x261e (0040261e)
00409503 832600          and     dword ptr [esi],0
00409506 59              pop     ecx
00409507 83c608          add     esi,8
0040950a 81fe300d4100    cmp     esi,offset image00400000+0x10d30 (00410d30)
00409510 7cdc            jl      image00400000+0x94ee (004094ee)
00409512 be100c4100      mov     esi,offset image00400000+0x10c10 (00410c10)
00409517 5f              pop     edi
00409518 8b06            mov     eax,dword ptr [esi]
0040951a 85c0            test    eax,eax
0040951c 7409            je      image00400000+0x9527 (00409527)
0040951e 837e0401        cmp     dword ptr [esi+4],1
00409522 7503            jne     image00400000+0x9527 (00409527)
00409524 50              push    eax
00409525 ffd3            call    ebx
00409527 83c608          add     esi,8
0040952a 81fe300d4100    cmp     esi,offset image00400000+0x10d30 (00410d30)
00409530 7ce6            jl      image00400000+0x9518 (00409518)
00409532 5e              pop     esi
00409533 5b              pop     ebx
00409534 c3              ret
00409535 8bff            mov     edi,edi
00409537 55              push    ebp
00409538 8bec            mov     ebp,esp
0040953a 8b4508          mov     eax,dword ptr [ebp+8]
0040953d ff34c5100c4100  push    dword ptr image00400000+0x10c10 (00410c10)[eax*8]
00409544 ff1540d14000    call    dword ptr [image00400000+0xd140 (0040d140)]
0040954a 5d              pop     ebp
0040954b c3              ret
0040954c 6a0c            push    0Ch
0040954e 68f0ef4000      push    offset image00400000+0xeff0 (0040eff0)
00409553 e848e4ffff      call    image00400000+0x79a0 (004079a0)
00409558 33ff            xor     edi,edi
0040955a 47              inc     edi
0040955b 897de4          mov     dword ptr [ebp-1Ch],edi
0040955e 33db            xor     ebx,ebx
00409560 391d18124100    cmp     dword ptr [image00400000+0x11218 (00411218)],ebx
00409566 7518            jne     image00400000+0x9580 (00409580)
00409568 e837bfffff      call    image00400000+0x54a4 (004054a4)
0040956d 6a1e            push    1Eh
0040956f e881bdffff      call    image00400000+0x52f5 (004052f5)
00409574 68ff000000      push    0FFh
00409579 e891baffff      call    image00400000+0x500f (0040500f)
0040957e 59              pop     ecx
0040957f 59              pop     ecx
00409580 8b7508          mov     esi,dword ptr [ebp+8]
00409583 8d34f5100c4100  lea     esi,image00400000+0x10c10 (00410c10)[esi*8]
0040958a 391e            cmp     dword ptr [esi],ebx
0040958c 7404            je      image00400000+0x9592 (00409592)
0040958e 8bc7            mov     eax,edi
00409590 eb6d            jmp     image00400000+0x95ff (004095ff)
00409592 6a18            push    18h
00409594 e876f2ffff      call    image00400000+0x880f (0040880f)
00409599 59              pop     ecx
0040959a 8bf8            mov     edi,eax
0040959c 3bfb            cmp     edi,ebx
0040959e 750f            jne     image00400000+0x95af (004095af)
004095a0 e88ca8ffff      call    image00400000+0x3e31 (00403e31)
004095a5 c7000c000000    mov     dword ptr [eax],0Ch
004095ab 33c0            xor     eax,eax
004095ad eb50            jmp     image00400000+0x95ff (004095ff)
004095af 6a0a            push    0Ah
004095b1 e858000000      call    image00400000+0x960e (0040960e)
004095b6 59              pop     ecx
004095b7 895dfc          mov     dword ptr [ebp-4],ebx
004095ba 391e            cmp     dword ptr [esi],ebx
004095bc 752b            jne     image00400000+0x95e9 (004095e9)
004095be 68a00f0000      push    0FA0h
004095c3 57              push    edi
004095c4 ff151cd14000    call    dword ptr [image00400000+0xd11c (0040d11c)]
004095ca 85c0            test    eax,eax
004095cc 7517            jne     image00400000+0x95e5 (004095e5)
004095ce 57              push    edi
004095cf e84a90ffff      call    image00400000+0x261e (0040261e)
004095d4 59              pop     ecx
004095d5 e857a8ffff      call    image00400000+0x3e31 (00403e31)
004095da c7000c000000    mov     dword ptr [eax],0Ch
004095e0 895de4          mov     dword ptr [ebp-1Ch],ebx
004095e3 eb0b            jmp     image00400000+0x95f0 (004095f0)
004095e5 893e            mov     dword ptr [esi],edi
004095e7 eb07            jmp     image00400000+0x95f0 (004095f0)
004095e9 57              push    edi
004095ea e82f90ffff      call    image00400000+0x261e (0040261e)
004095ef 59              pop     ecx
004095f0 c745fcfeffffff  mov     dword ptr [ebp-4],0FFFFFFFEh
004095f7 e809000000      call    image00400000+0x9605 (00409605)
004095fc 8b45e4          mov     eax,dword ptr [ebp-1Ch]
004095ff e8e1e3ffff      call    image00400000+0x79e5 (004079e5)
00409604 c3              ret
00409605 6a0a            push    0Ah
00409607 e829ffffff      call    image00400000+0x9535 (00409535)
0040960c 59              pop     ecx
0040960d c3              ret
0040960e 8bff            mov     edi,edi
00409610 55              push    ebp
00409611 8bec            mov     ebp,esp
00409613 8b4508          mov     eax,dword ptr [ebp+8]
00409616 56              push    esi
00409617 8d34c5100c4100  lea     esi,image00400000+0x10c10 (00410c10)[eax*8]
0040961e 833e00          cmp     dword ptr [esi],0
00409621 7513            jne     image00400000+0x9636 (00409636)
00409623 50              push    eax
00409624 e823ffffff      call    image00400000+0x954c (0040954c)
00409629 59              pop     ecx
0040962a 85c0            test    eax,eax
0040962c 7508            jne     image00400000+0x9636 (00409636)
0040962e 6a11            push    11h
00409630 e87cbcffff      call    image00400000+0x52b1 (004052b1)
00409635 59              pop     ecx
00409636 ff36            push    dword ptr [esi]
00409638 ff153cd14000    call    dword ptr [image00400000+0xd13c (0040d13c)]
0040963e 5e              pop     esi
0040963f 5d              pop     ebp
00409640 c3              ret
00409641 6a08            push    8
00409643 6810f04000      push    offset image00400000+0xf010 (0040f010)
00409648 e853e3ffff      call    image00400000+0x79a0 (004079a0)
0040964d e8c8ccffff      call    image00400000+0x631a (0040631a)
00409652 8b4078          mov     eax,dword ptr [eax+78h]
00409655 85c0            test    eax,eax
00409657 7416            je      image00400000+0x966f (0040966f)
00409659 8365fc00        and     dword ptr [ebp-4],0
0040965d ffd0            call    eax
0040965f eb07            jmp     image00400000+0x9668 (00409668)
00409661 33c0            xor     eax,eax
00409663 40              inc     eax
00409664 c3              ret
00409665 8b65e8          mov     esp,dword ptr [ebp-18h]
00409668 c745fcfeffffff  mov     dword ptr [ebp-4],0FFFFFFFEh
0040966f e8fc230000      call    image00400000+0xba70 (0040ba70)
00409674 e86ce3ffff      call    image00400000+0x79e5 (004079e5)
00409679 c3              ret
0040967a 6841964000      push    offset image00400000+0x9641 (00409641)
0040967f ff15b8d04000    call    dword ptr [image00400000+0xd0b8 (0040d0b8)]
00409685 a3181b4100      mov     dword ptr [image00400000+0x11b18 (00411b18)],eax
0040968a c3              ret
0040968b 8bff            mov     edi,edi
0040968d 55              push    ebp
0040968e 8bec            mov     ebp,esp
00409690 8b4508          mov     eax,dword ptr [ebp+8]
00409693 a31c1b4100      mov     dword ptr [image00400000+0x11b1c (00411b1c)],eax
00409698 a3201b4100      mov     dword ptr [image00400000+0x11b20 (00411b20)],eax
0040969d a3241b4100      mov     dword ptr [image00400000+0x11b24 (00411b24)],eax
004096a2 a3281b4100      mov     dword ptr [image00400000+0x11b28 (00411b28)],eax
004096a7 5d              pop     ebp
004096a8 c3              ret
004096a9 8bff            mov     edi,edi
004096ab 55              push    ebp
004096ac 8bec            mov     ebp,esp
004096ae 8b4508          mov     eax,dword ptr [ebp+8]
004096b1 8b0d0ce14000    mov     ecx,dword ptr [image00400000+0xe10c (0040e10c)]
004096b7 56              push    esi
004096b8 395004          cmp     dword ptr [eax+4],edx
004096bb 740f            je      image00400000+0x96cc (004096cc)
004096bd 8bf1            mov     esi,ecx
004096bf 6bf60c          imul    esi,esi,0Ch
004096c2 037508          add     esi,dword ptr [ebp+8]
004096c5 83c00c          add     eax,0Ch
004096c8 3bc6            cmp     eax,esi
004096ca 72ec            jb      image00400000+0x96b8 (004096b8)
004096cc 6bc90c          imul    ecx,ecx,0Ch
004096cf 034d08          add     ecx,dword ptr [ebp+8]
004096d2 5e              pop     esi
004096d3 3bc1            cmp     eax,ecx
004096d5 7305            jae     image00400000+0x96dc (004096dc)
004096d7 395004          cmp     dword ptr [eax+4],edx
004096da 7402            je      image00400000+0x96de (004096de)
004096dc 33c0            xor     eax,eax
004096de 5d              pop     ebp
004096df c3              ret
004096e0 ff35241b4100    push    dword ptr [image00400000+0x11b24 (00411b24)]
004096e6 ff15b4d04000    call    dword ptr [image00400000+0xd0b4 (0040d0b4)]
004096ec c3              ret
004096ed 6a20            push    20h
004096ef 6830f04000      push    offset image00400000+0xf030 (0040f030)
004096f4 e8a7e2ffff      call    image00400000+0x79a0 (004079a0)
004096f9 33ff            xor     edi,edi
004096fb 897de4          mov     dword ptr [ebp-1Ch],edi
004096fe 897dd8          mov     dword ptr [ebp-28h],edi
00409701 8b5d08          mov     ebx,dword ptr [ebp+8]
00409704 83fb0b          cmp     ebx,0Bh
00409707 7f4b            jg      image00400000+0x9754 (00409754)
00409709 7415            je      image00400000+0x9720 (00409720)
0040970b 8bc3            mov     eax,ebx
0040970d 6a02            push    2
0040970f 59              pop     ecx
00409710 2bc1            sub     eax,ecx
00409712 7422            je      image00400000+0x9736 (00409736)
00409714 2bc1            sub     eax,ecx
00409716 7408            je      image00400000+0x9720 (00409720)
00409718 2bc1            sub     eax,ecx
0040971a 7459            je      image00400000+0x9775 (00409775)
0040971c 2bc1            sub     eax,ecx
0040971e 7543            jne     image00400000+0x9763 (00409763)
00409720 e87ccbffff      call    image00400000+0x62a1 (004062a1)
00409725 8bf8            mov     edi,eax
00409727 897dd8          mov     dword ptr [ebp-28h],edi
0040972a 85ff            test    edi,edi
0040972c 7514            jne     image00400000+0x9742 (00409742)
0040972e 83c8ff          or      eax,0FFFFFFFFh
00409731 e954010000      jmp     image00400000+0x988a (0040988a)
00409736 be1c1b4100      mov     esi,offset image00400000+0x11b1c (00411b1c)
0040973b a11c1b4100      mov     eax,dword ptr [image00400000+0x11b1c (00411b1c)]
00409740 eb55            jmp     image00400000+0x9797 (00409797)
00409742 ff775c          push    dword ptr [edi+5Ch]
00409745 8bd3            mov     edx,ebx
00409747 e85dffffff      call    image00400000+0x96a9 (004096a9)
0040974c 59              pop     ecx
0040974d 8d7008          lea     esi,[eax+8]
00409750 8b06            mov     eax,dword ptr [esi]
00409752 eb51            jmp     image00400000+0x97a5 (004097a5)
00409754 8bc3            mov     eax,ebx
00409756 83e80f          sub     eax,0Fh
00409759 7432            je      image00400000+0x978d (0040978d)
0040975b 83e806          sub     eax,6
0040975e 7421            je      image00400000+0x9781 (00409781)
00409760 48              dec     eax
00409761 7412            je      image00400000+0x9775 (00409775)
00409763 e8c9a6ffff      call    image00400000+0x3e31 (00403e31)
00409768 c70016000000    mov     dword ptr [eax],16h
0040976e e86ca6ffff      call    image00400000+0x3ddf (00403ddf)
00409773 ebb9            jmp     image00400000+0x972e (0040972e)
00409775 be241b4100      mov     esi,offset image00400000+0x11b24 (00411b24)
0040977a a1241b4100      mov     eax,dword ptr [image00400000+0x11b24 (00411b24)]
0040977f eb16            jmp     image00400000+0x9797 (00409797)
00409781 be201b4100      mov     esi,offset image00400000+0x11b20 (00411b20)
00409786 a1201b4100      mov     eax,dword ptr [image00400000+0x11b20 (00411b20)]
0040978b eb0a            jmp     image00400000+0x9797 (00409797)
0040978d be281b4100      mov     esi,offset image00400000+0x11b28 (00411b28)
00409792 a1281b4100      mov     eax,dword ptr [image00400000+0x11b28 (00411b28)]
00409797 c745e401000000  mov     dword ptr [ebp-1Ch],1
0040979e 50              push    eax
0040979f ff15b4d04000    call    dword ptr [image00400000+0xd0b4 (0040d0b4)]
004097a5 8945e0          mov     dword ptr [ebp-20h],eax
004097a8 33c0            xor     eax,eax
004097aa 837de001        cmp     dword ptr [ebp-20h],1
004097ae 0f84d6000000    je      image00400000+0x988a (0040988a)
004097b4 3945e0          cmp     dword ptr [ebp-20h],eax
004097b7 7507            jne     image00400000+0x97c0 (004097c0)
004097b9 6a03            push    3
004097bb e8bdbaffff      call    image00400000+0x527d (0040527d)
004097c0 3945e4          cmp     dword ptr [ebp-1Ch],eax
004097c3 7407            je      image00400000+0x97cc (004097cc)
004097c5 50              push    eax
004097c6 e843feffff      call    image00400000+0x960e (0040960e)
004097cb 59              pop     ecx
004097cc 33c0            xor     eax,eax
004097ce 8945fc          mov     dword ptr [ebp-4],eax
004097d1 83fb08          cmp     ebx,8
004097d4 740a            je      image00400000+0x97e0 (004097e0)
004097d6 83fb0b          cmp     ebx,0Bh
004097d9 7405            je      image00400000+0x97e0 (004097e0)
004097db 83fb04          cmp     ebx,4
004097de 751b            jne     image00400000+0x97fb (004097fb)
004097e0 8b4f60          mov     ecx,dword ptr [edi+60h]
004097e3 894dd4          mov     dword ptr [ebp-2Ch],ecx
004097e6 894760          mov     dword ptr [edi+60h],eax
004097e9 83fb08          cmp     ebx,8
004097ec 753e            jne     image00400000+0x982c (0040982c)
004097ee 8b4f64          mov     ecx,dword ptr [edi+64h]
004097f1 894dd0          mov     dword ptr [ebp-30h],ecx
004097f4 c747648c000000  mov     dword ptr [edi+64h],8Ch
004097fb 83fb08          cmp     ebx,8
004097fe 752c            jne     image00400000+0x982c (0040982c)
00409800 8b0d00e14000    mov     ecx,dword ptr [image00400000+0xe100 (0040e100)]
00409806 894ddc          mov     dword ptr [ebp-24h],ecx
00409809 8b0d04e14000    mov     ecx,dword ptr [image00400000+0xe104 (0040e104)]
0040980f 030d00e14000    add     ecx,dword ptr [image00400000+0xe100 (0040e100)]
00409815 394ddc          cmp     dword ptr [ebp-24h],ecx
00409818 7d19            jge     image00400000+0x9833 (00409833)
0040981a 8b4ddc          mov     ecx,dword ptr [ebp-24h]
0040981d 6bc90c          imul    ecx,ecx,0Ch
00409820 8b575c          mov     edx,dword ptr [edi+5Ch]
00409823 89441108        mov     dword ptr [ecx+edx+8],eax
00409827 ff45dc          inc     dword ptr [ebp-24h]
0040982a ebdd            jmp     image00400000+0x9809 (00409809)
0040982c e839c9ffff      call    image00400000+0x616a (0040616a)
00409831 8906            mov     dword ptr [esi],eax
00409833 c745fcfeffffff  mov     dword ptr [ebp-4],0FFFFFFFEh
0040983a e815000000      call    image00400000+0x9854 (00409854)
0040983f 83fb08          cmp     ebx,8
00409842 751f            jne     image00400000+0x9863 (00409863)
00409844 ff7764          push    dword ptr [edi+64h]
00409847 53              push    ebx
00409848 ff55e0          call    dword ptr [ebp-20h]
0040984b 59              pop     ecx
0040984c eb19            jmp     image00400000+0x9867 (00409867)
0040984e 8b5d08          mov     ebx,dword ptr [ebp+8]
00409851 8b7dd8          mov     edi,dword ptr [ebp-28h]
00409854 837de400        cmp     dword ptr [ebp-1Ch],0
00409858 7408            je      image00400000+0x9862 (00409862)
0040985a 6a00            push    0
0040985c e8d4fcffff      call    image00400000+0x9535 (00409535)
00409861 59              pop     ecx
00409862 c3              ret
00409863 53              push    ebx
00409864 ff55e0          call    dword ptr [ebp-20h]
00409867 59              pop     ecx
00409868 83fb08          cmp     ebx,8
0040986b 740a            je      image00400000+0x9877 (00409877)
0040986d 83fb0b          cmp     ebx,0Bh
00409870 7405            je      image00400000+0x9877 (00409877)
00409872 83fb04          cmp     ebx,4
00409875 7511            jne     image00400000+0x9888 (00409888)
00409877 8b45d4          mov     eax,dword ptr [ebp-2Ch]
0040987a 894760          mov     dword ptr [edi+60h],eax
0040987d 83fb08          cmp     ebx,8
00409880 7506            jne     image00400000+0x9888 (00409888)
00409882 8b45d0          mov     eax,dword ptr [ebp-30h]
00409885 894764          mov     dword ptr [edi+64h],eax
00409888 33c0            xor     eax,eax
0040988a e856e1ffff      call    image00400000+0x79e5 (004079e5)
0040988f c3              ret
00409890 8bff            mov     edi,edi
00409892 55              push    ebp
00409893 8bec            mov     ebp,esp
00409895 8b4508          mov     eax,dword ptr [ebp+8]
00409898 a3301b4100      mov     dword ptr [image00400000+0x11b30 (00411b30)],eax
0040989d 5d              pop     ebp
0040989e c3              ret
0040989f 8bff            mov     edi,edi
004098a1 55              push    ebp
004098a2 8bec            mov     ebp,esp
004098a4 8b4508          mov     eax,dword ptr [ebp+8]
004098a7 a3341b4100      mov     dword ptr [image00400000+0x11b34 (00411b34)],eax
004098ac 5d              pop     ebp
004098ad c3              ret
004098ae 8bff            mov     edi,edi
004098b0 55              push    ebp
004098b1 8bec            mov     ebp,esp
004098b3 51              push    ecx
004098b4 53              push    ebx
004098b5 56              push    esi
004098b6 8b35b4d04000    mov     esi,dword ptr [image00400000+0xd0b4 (0040d0b4)]
004098bc 57              push    edi
004098bd ff35a82c4100    push    dword ptr [image00400000+0x12ca8 (00412ca8)]
004098c3 ffd6            call    esi
004098c5 ff35a42c4100    push    dword ptr [image00400000+0x12ca4 (00412ca4)]
004098cb 8bd8            mov     ebx,eax
004098cd 895dfc          mov     dword ptr [ebp-4],ebx
004098d0 ffd6            call    esi
004098d2 8bf0            mov     esi,eax
004098d4 3bf3            cmp     esi,ebx
004098d6 0f8281000000    jb      image00400000+0x995d (0040995d)
004098dc 8bfe            mov     edi,esi
004098de 2bfb            sub     edi,ebx
004098e0 8d4704          lea     eax,[edi+4]
004098e3 83f804          cmp     eax,4
004098e6 7275            jb      image00400000+0x995d (0040995d)
004098e8 53              push    ebx
004098e9 e8b5210000      call    image00400000+0xbaa3 (0040baa3)
004098ee 8bd8            mov     ebx,eax
004098f0 8d4704          lea     eax,[edi+4]
004098f3 59              pop     ecx
004098f4 3bd8            cmp     ebx,eax
004098f6 7348            jae     image00400000+0x9940 (00409940)
004098f8 b800080000      mov     eax,800h
004098fd 3bd8            cmp     ebx,eax
004098ff 7302            jae     image00400000+0x9903 (00409903)
00409901 8bc3            mov     eax,ebx
00409903 03c3            add     eax,ebx
00409905 3bc3            cmp     eax,ebx
00409907 720f            jb      image00400000+0x9918 (00409918)
00409909 50              push    eax
0040990a ff75fc          push    dword ptr [ebp-4]
0040990d e88eefffff      call    image00400000+0x88a0 (004088a0)
00409912 59              pop     ecx
00409913 59              pop     ecx
00409914 85c0            test    eax,eax
00409916 7516            jne     image00400000+0x992e (0040992e)
00409918 8d4310          lea     eax,[ebx+10h]
0040991b 3bc3            cmp     eax,ebx
0040991d 723e            jb      image00400000+0x995d (0040995d)
0040991f 50              push    eax
00409920 ff75fc          push    dword ptr [ebp-4]
00409923 e878efffff      call    image00400000+0x88a0 (004088a0)
00409928 59              pop     ecx
00409929 59              pop     ecx
0040992a 85c0            test    eax,eax
0040992c 742f            je      image00400000+0x995d (0040995d)
0040992e c1ff02          sar     edi,2
00409931 50              push    eax
00409932 8d34b8          lea     esi,[eax+edi*4]
00409935 ff15b8d04000    call    dword ptr [image00400000+0xd0b8 (0040d0b8)]
0040993b a3a82c4100      mov     dword ptr [image00400000+0x12ca8 (00412ca8)],eax
00409940 ff7508          push    dword ptr [ebp+8]
00409943 8b3db8d04000    mov     edi,dword ptr [image00400000+0xd0b8 (0040d0b8)]
00409949 ffd7            call    edi
0040994b 8906            mov     dword ptr [esi],eax
0040994d 83c604          add     esi,4
00409950 56              push    esi
00409951 ffd7            call    edi
00409953 a3a42c4100      mov     dword ptr [image00400000+0x12ca4 (00412ca4)],eax
00409958 8b4508          mov     eax,dword ptr [ebp+8]
0040995b eb02            jmp     image00400000+0x995f (0040995f)
0040995d 33c0            xor     eax,eax
0040995f 5f              pop     edi
00409960 5e              pop     esi
00409961 5b              pop     ebx
00409962 c9              leave
00409963 c3              ret
00409964 8bff            mov     edi,edi
00409966 56              push    esi
00409967 6a04            push    4
00409969 6a20            push    20h
0040996b e8e4eeffff      call    image00400000+0x8854 (00408854)
00409970 59              pop     ecx
00409971 59              pop     ecx
00409972 8bf0            mov     esi,eax
00409974 56              push    esi
00409975 ff15b8d04000    call    dword ptr [image00400000+0xd0b8 (0040d0b8)]
0040997b a3a82c4100      mov     dword ptr [image00400000+0x12ca8 (00412ca8)],eax
00409980 a3a42c4100      mov     dword ptr [image00400000+0x12ca4 (00412ca4)],eax
00409985 85f6            test    esi,esi
00409987 7505            jne     image00400000+0x998e (0040998e)
00409989 6a18            push    18h
0040998b 58              pop     eax
0040998c 5e              pop     esi
0040998d c3              ret
0040998e 832600          and     dword ptr [esi],0
00409991 33c0            xor     eax,eax
00409993 5e              pop     esi
00409994 c3              ret
00409995 6a0c            push    0Ch
00409997 6850f04000      push    offset image00400000+0xf050 (0040f050)
0040999c e8ffdfffff      call    image00400000+0x79a0 (004079a0)
004099a1 e881b6ffff      call    image00400000+0x5027 (00405027)
004099a6 8365fc00        and     dword ptr [ebp-4],0
004099aa ff7508          push    dword ptr [ebp+8]
004099ad e8fcfeffff      call    image00400000+0x98ae (004098ae)
004099b2 59              pop     ecx
004099b3 8945e4          mov     dword ptr [ebp-1Ch],eax
004099b6 c745fcfeffffff  mov     dword ptr [ebp-4],0FFFFFFFEh
004099bd e809000000      call    image00400000+0x99cb (004099cb)
004099c2 8b45e4          mov     eax,dword ptr [ebp-1Ch]
004099c5 e81be0ffff      call    image00400000+0x79e5 (004079e5)
004099ca c3              ret
004099cb e860b6ffff      call    image00400000+0x5030 (00405030)
004099d0 c3              ret
004099d1 8bff            mov     edi,edi
004099d3 55              push    ebp
004099d4 8bec            mov     ebp,esp
004099d6 ff7508          push    dword ptr [ebp+8]
004099d9 e8b7ffffff      call    image00400000+0x9995 (00409995)
004099de f7d8            neg     eax
004099e0 1bc0            sbb     eax,eax
004099e2 f7d8            neg     eax
004099e4 59              pop     ecx
004099e5 48              dec     eax
004099e6 5d              pop     ebp
004099e7 c3              ret
004099e8 cc              int     3
004099e9 cc              int     3
004099ea cc              int     3
004099eb cc              int     3
004099ec cc              int     3
004099ed cc              int     3
004099ee cc              int     3
004099ef cc              int     3
004099f0 8bff            mov     edi,edi
004099f2 55              push    ebp
004099f3 8bec            mov     ebp,esp
004099f5 8b4d08          mov     ecx,dword ptr [ebp+8]
004099f8 b84d5a0000      mov     eax,5A4Dh
004099fd 663901          cmp     word ptr [ecx],ax
00409a00 7404            je      image00400000+0x9a06 (00409a06)
00409a02 33c0            xor     eax,eax
00409a04 5d              pop     ebp
00409a05 c3              ret
00409a06 8b413c          mov     eax,dword ptr [ecx+3Ch]
00409a09 03c1            add     eax,ecx
00409a0b 813850450000    cmp     dword ptr [eax],4550h
00409a11 75ef            jne     image00400000+0x9a02 (00409a02)
00409a13 33d2            xor     edx,edx
00409a15 b90b010000      mov     ecx,10Bh
00409a1a 66394818        cmp     word ptr [eax+18h],cx
00409a1e 0f94c2          sete    dl
00409a21 8bc2            mov     eax,edx
00409a23 5d              pop     ebp
00409a24 c3              ret
00409a25 cc              int     3
00409a26 cc              int     3
00409a27 cc              int     3
00409a28 cc              int     3
00409a29 cc              int     3
00409a2a cc              int     3
00409a2b cc              int     3
00409a2c cc              int     3
00409a2d cc              int     3
00409a2e cc              int     3
00409a2f cc              int     3
00409a30 8bff            mov     edi,edi
00409a32 55              push    ebp
00409a33 8bec            mov     ebp,esp
00409a35 8b4508          mov     eax,dword ptr [ebp+8]
00409a38 8b483c          mov     ecx,dword ptr [eax+3Ch]
00409a3b 03c8            add     ecx,eax
00409a3d 0fb74114        movzx   eax,word ptr [ecx+14h]
00409a41 53              push    ebx
00409a42 56              push    esi
00409a43 0fb77106        movzx   esi,word ptr [ecx+6]
00409a47 33d2            xor     edx,edx
00409a49 57              push    edi
00409a4a 8d440818        lea     eax,[eax+ecx+18h]
00409a4e 85f6            test    esi,esi
00409a50 741b            je      image00400000+0x9a6d (00409a6d)
00409a52 8b7d0c          mov     edi,dword ptr [ebp+0Ch]
00409a55 8b480c          mov     ecx,dword ptr [eax+0Ch]
00409a58 3bf9            cmp     edi,ecx
00409a5a 7209            jb      image00400000+0x9a65 (00409a65)
00409a5c 8b5808          mov     ebx,dword ptr [eax+8]
00409a5f 03d9            add     ebx,ecx
00409a61 3bfb            cmp     edi,ebx
00409a63 720a            jb      image00400000+0x9a6f (00409a6f)
00409a65 42              inc     edx
00409a66 83c028          add     eax,28h
00409a69 3bd6            cmp     edx,esi
00409a6b 72e8            jb      image00400000+0x9a55 (00409a55)
00409a6d 33c0            xor     eax,eax
00409a6f 5f              pop     edi
00409a70 5e              pop     esi
00409a71 5b              pop     ebx
00409a72 5d              pop     ebp
00409a73 c3              ret
00409a74 cc              int     3
00409a75 cc              int     3
00409a76 cc              int     3
00409a77 cc              int     3
00409a78 cc              int     3
00409a79 cc              int     3
00409a7a cc              int     3
00409a7b cc              int     3
00409a7c cc              int     3
00409a7d cc              int     3
00409a7e cc              int     3
00409a7f cc              int     3
00409a80 8bff            mov     edi,edi
00409a82 55              push    ebp
00409a83 8bec            mov     ebp,esp
00409a85 6afe            push    0FFFFFFFEh
00409a87 6870f04000      push    offset image00400000+0xf070 (0040f070)
00409a8c 68007a4000      push    offset image00400000+0x7a00 (00407a00)
00409a91 64a100000000    mov     eax,dword ptr fs:[00000000h]
00409a97 50              push    eax
00409a98 83ec08          sub     esp,8
00409a9b 53              push    ebx
00409a9c 56              push    esi
00409a9d 57              push    edi
00409a9e a104004100      mov     eax,dword ptr [image00400000+0x10004 (00410004)]
00409aa3 3145f8          xor     dword ptr [ebp-8],eax
00409aa6 33c5            xor     eax,ebp
00409aa8 50              push    eax
00409aa9 8d45f0          lea     eax,[ebp-10h]
00409aac 64a300000000    mov     dword ptr fs:[00000000h],eax
00409ab2 8965e8          mov     dword ptr [ebp-18h],esp
00409ab5 c745fc00000000  mov     dword ptr [ebp-4],0
00409abc 6800004000      push    offset image00400000 (00400000)
00409ac1 e82affffff      call    image00400000+0x99f0 (004099f0)
00409ac6 83c404          add     esp,4
00409ac9 85c0            test    eax,eax
00409acb 7454            je      image00400000+0x9b21 (00409b21)
00409acd 8b4508          mov     eax,dword ptr [ebp+8]
00409ad0 2d00004000      sub     eax,offset image00400000 (00400000)
00409ad5 50              push    eax
00409ad6 6800004000      push    offset image00400000 (00400000)
00409adb e850ffffff      call    image00400000+0x9a30 (00409a30)
00409ae0 83c408          add     esp,8
00409ae3 85c0            test    eax,eax
00409ae5 743a            je      image00400000+0x9b21 (00409b21)
00409ae7 8b4024          mov     eax,dword ptr [eax+24h]
00409aea c1e81f          shr     eax,1Fh
00409aed f7d0            not     eax
00409aef 83e001          and     eax,1
00409af2 c745fcfeffffff  mov     dword ptr [ebp-4],0FFFFFFFEh
00409af9 8b4df0          mov     ecx,dword ptr [ebp-10h]
00409afc 64890d00000000  mov     dword ptr fs:[0],ecx
00409b03 59              pop     ecx
00409b04 5f              pop     edi
00409b05 5e              pop     esi
00409b06 5b              pop     ebx
00409b07 8be5            mov     esp,ebp
00409b09 5d              pop     ebp
00409b0a c3              ret
00409b0b 8b45ec          mov     eax,dword ptr [ebp-14h]
00409b0e 8b08            mov     ecx,dword ptr [eax]
00409b10 33d2            xor     edx,edx
00409b12 8139050000c0    cmp     dword ptr [ecx],0C0000005h
00409b18 0f94c2          sete    dl
00409b1b 8bc2            mov     eax,edx
00409b1d c3              ret
00409b1e 8b65e8          mov     esp,dword ptr [ebp-18h]
00409b21 c745fcfeffffff  mov     dword ptr [ebp-4],0FFFFFFFEh
00409b28 33c0            xor     eax,eax
00409b2a 8b4df0          mov     ecx,dword ptr [ebp-10h]
00409b2d 64890d00000000  mov     dword ptr fs:[0],ecx
00409b34 59              pop     ecx
00409b35 5f              pop     edi
00409b36 5e              pop     esi
00409b37 5b              pop     ebx
00409b38 8be5            mov     esp,ebp
00409b3a 5d              pop     ebp
00409b3b c3              ret
00409b3c 8bff            mov     edi,edi
00409b3e 55              push    ebp
00409b3f 8bec            mov     ebp,esp
00409b41 83ec24          sub     esp,24h
00409b44 a104004100      mov     eax,dword ptr [image00400000+0x10004 (00410004)]
00409b49 33c5            xor     eax,ebp
00409b4b 8945fc          mov     dword ptr [ebp-4],eax
00409b4e 8b4508          mov     eax,dword ptr [ebp+8]
00409b51 53              push    ebx
00409b52 8945e0          mov     dword ptr [ebp-20h],eax
00409b55 8b450c          mov     eax,dword ptr [ebp+0Ch]
00409b58 56              push    esi
00409b59 57              push    edi
00409b5a 8945e4          mov     dword ptr [ebp-1Ch],eax
00409b5d e808c6ffff      call    image00400000+0x616a (0040616a)
00409b62 8365ec00        and     dword ptr [ebp-14h],0
00409b66 833d381b410000  cmp     dword ptr [image00400000+0x11b38 (00411b38)],0
00409b6d 8945e8          mov     dword ptr [ebp-18h],eax
00409b70 757d            jne     image00400000+0x9bef (00409bef)
00409b72 68d0e14000      push    offset image00400000+0xe1d0 (0040e1d0)
00409b77 ff1548d14000    call    dword ptr [image00400000+0xd148 (0040d148)]
00409b7d 8bd8            mov     ebx,eax
00409b7f 85db            test    ebx,ebx
00409b81 0f8410010000    je      image00400000+0x9c97 (00409c97)
00409b87 8b3d70d04000    mov     edi,dword ptr [image00400000+0xd070 (0040d070)]
00409b8d 68c4e14000      push    offset image00400000+0xe1c4 (0040e1c4)
00409b92 53              push    ebx
00409b93 ffd7            call    edi
00409b95 85c0            test    eax,eax
00409b97 0f84fa000000    je      image00400000+0x9c97 (00409c97)
00409b9d 8b35b8d04000    mov     esi,dword ptr [image00400000+0xd0b8 (0040d0b8)]
00409ba3 50              push    eax
00409ba4 ffd6            call    esi
00409ba6 68b4e14000      push    offset image00400000+0xe1b4 (0040e1b4)
00409bab 53              push    ebx
00409bac a3381b4100      mov     dword ptr [image00400000+0x11b38 (00411b38)],eax
00409bb1 ffd7            call    edi
00409bb3 50              push    eax
00409bb4 ffd6            call    esi
00409bb6 68a0e14000      push    offset image00400000+0xe1a0 (0040e1a0)
00409bbb 53              push    ebx
00409bbc a33c1b4100      mov     dword ptr [image00400000+0x11b3c (00411b3c)],eax
00409bc1 ffd7            call    edi
00409bc3 50              push    eax
00409bc4 ffd6            call    esi
00409bc6 6884e14000      push    offset image00400000+0xe184 (0040e184)
00409bcb 53              push    ebx
00409bcc a3401b4100      mov     dword ptr [image00400000+0x11b40 (00411b40)],eax
00409bd1 ffd7            call    edi
00409bd3 50              push    eax
00409bd4 ffd6            call    esi
00409bd6 a3481b4100      mov     dword ptr [image00400000+0x11b48 (00411b48)],eax
00409bdb 85c0            test    eax,eax
00409bdd 7410            je      image00400000+0x9bef (00409bef)
00409bdf 686ce14000      push    offset image00400000+0xe16c (0040e16c)
00409be4 53              push    ebx
00409be5 ffd7            call    edi
00409be7 50              push    eax
00409be8 ffd6            call    esi
00409bea a3441b4100      mov     dword ptr [image00400000+0x11b44 (00411b44)],eax
00409bef a1441b4100      mov     eax,dword ptr [image00400000+0x11b44 (00411b44)]
00409bf4 8b4de8          mov     ecx,dword ptr [ebp-18h]
00409bf7 8b35b4d04000    mov     esi,dword ptr [image00400000+0xd0b4 (0040d0b4)]
00409bfd 3bc1            cmp     eax,ecx
00409bff 7447            je      image00400000+0x9c48 (00409c48)
00409c01 390d481b4100    cmp     dword ptr [image00400000+0x11b48 (00411b48)],ecx
00409c07 743f            je      image00400000+0x9c48 (00409c48)
00409c09 50              push    eax
00409c0a ffd6            call    esi
00409c0c ff35481b4100    push    dword ptr [image00400000+0x11b48 (00411b48)]
00409c12 8bf8            mov     edi,eax
00409c14 ffd6            call    esi
00409c16 8bd8            mov     ebx,eax
00409c18 85ff            test    edi,edi
00409c1a 742c            je      image00400000+0x9c48 (00409c48)
00409c1c 85db            test    ebx,ebx
00409c1e 7428            je      image00400000+0x9c48 (00409c48)
00409c20 ffd7            call    edi
00409c22 85c0            test    eax,eax
00409c24 7419            je      image00400000+0x9c3f (00409c3f)
00409c26 8d4ddc          lea     ecx,[ebp-24h]
00409c29 51              push    ecx
00409c2a 6a0c            push    0Ch
00409c2c 8d4df0          lea     ecx,[ebp-10h]
00409c2f 51              push    ecx
00409c30 6a01            push    1
00409c32 50              push    eax
00409c33 ffd3            call    ebx
00409c35 85c0            test    eax,eax
00409c37 7406            je      image00400000+0x9c3f (00409c3f)
00409c39 f645f801        test    byte ptr [ebp-8],1
00409c3d 7509            jne     image00400000+0x9c48 (00409c48)
00409c3f 814d1000002000  or      dword ptr [ebp+10h],200000h
00409c46 eb33            jmp     image00400000+0x9c7b (00409c7b)
00409c48 a13c1b4100      mov     eax,dword ptr [image00400000+0x11b3c (00411b3c)]
00409c4d 3b45e8          cmp     eax,dword ptr [ebp-18h]
00409c50 7429            je      image00400000+0x9c7b (00409c7b)
00409c52 50              push    eax
00409c53 ffd6            call    esi
00409c55 85c0            test    eax,eax
00409c57 7422            je      image00400000+0x9c7b (00409c7b)
00409c59 ffd0            call    eax
00409c5b 8945ec          mov     dword ptr [ebp-14h],eax
00409c5e 85c0            test    eax,eax
00409c60 7419            je      image00400000+0x9c7b (00409c7b)
00409c62 a1401b4100      mov     eax,dword ptr [image00400000+0x11b40 (00411b40)]
00409c67 3b45e8          cmp     eax,dword ptr [ebp-18h]
00409c6a 740f            je      image00400000+0x9c7b (00409c7b)
00409c6c 50              push    eax
00409c6d ffd6            call    esi
00409c6f 85c0            test    eax,eax
00409c71 7408            je      image00400000+0x9c7b (00409c7b)
00409c73 ff75ec          push    dword ptr [ebp-14h]
00409c76 ffd0            call    eax
00409c78 8945ec          mov     dword ptr [ebp-14h],eax
00409c7b ff35381b4100    push    dword ptr [image00400000+0x11b38 (00411b38)]
00409c81 ffd6            call    esi
00409c83 85c0            test    eax,eax
00409c85 7410            je      image00400000+0x9c97 (00409c97)
00409c87 ff7510          push    dword ptr [ebp+10h]
00409c8a ff75e4          push    dword ptr [ebp-1Ch]
00409c8d ff75e0          push    dword ptr [ebp-20h]
00409c90 ff75ec          push    dword ptr [ebp-14h]
00409c93 ffd0            call    eax
00409c95 eb02            jmp     image00400000+0x9c99 (00409c99)
00409c97 33c0            xor     eax,eax
00409c99 8b4dfc          mov     ecx,dword ptr [ebp-4]
00409c9c 5f              pop     edi
00409c9d 5e              pop     esi
00409c9e 33cd            xor     ecx,ebp
00409ca0 5b              pop     ebx
00409ca1 e85588ffff      call    image00400000+0x24fb (004024fb)
00409ca6 c9              leave
00409ca7 c3              ret
00409ca8 8bff            mov     edi,edi
00409caa 55              push    ebp
00409cab 8bec            mov     ebp,esp
00409cad 56              push    esi
00409cae 8b7508          mov     esi,dword ptr [ebp+8]
00409cb1 57              push    edi
00409cb2 85f6            test    esi,esi
00409cb4 7407            je      image00400000+0x9cbd (00409cbd)
00409cb6 8b7d0c          mov     edi,dword ptr [ebp+0Ch]
00409cb9 85ff            test    edi,edi
00409cbb 7515            jne     image00400000+0x9cd2 (00409cd2)
00409cbd e86fa1ffff      call    image00400000+0x3e31 (00403e31)
00409cc2 6a16            push    16h
00409cc4 5e              pop     esi
00409cc5 8930            mov     dword ptr [eax],esi
00409cc7 e813a1ffff      call    image00400000+0x3ddf (00403ddf)
00409ccc 8bc6            mov     eax,esi
00409cce 5f              pop     edi
00409ccf 5e              pop     esi
00409cd0 5d              pop     ebp
00409cd1 c3              ret
00409cd2 8b4d10          mov     ecx,dword ptr [ebp+10h]
00409cd5 85c9            test    ecx,ecx
00409cd7 7507            jne     image00400000+0x9ce0 (00409ce0)
00409cd9 33c0            xor     eax,eax
00409cdb 668906          mov     word ptr [esi],ax
00409cde ebdd            jmp     image00400000+0x9cbd (00409cbd)
00409ce0 8bd6            mov     edx,esi
00409ce2 66833a00        cmp     word ptr [edx],0
00409ce6 7406            je      image00400000+0x9cee (00409cee)
00409ce8 83c202          add     edx,2
00409ceb 4f              dec     edi
00409cec 75f4            jne     image00400000+0x9ce2 (00409ce2)
00409cee 85ff            test    edi,edi
00409cf0 74e7            je      image00400000+0x9cd9 (00409cd9)
00409cf2 2bd1            sub     edx,ecx
00409cf4 0fb701          movzx   eax,word ptr [ecx]
00409cf7 6689040a        mov     word ptr [edx+ecx],ax
00409cfb 83c102          add     ecx,2
00409cfe 6685c0          test    ax,ax
00409d01 7403            je      image00400000+0x9d06 (00409d06)
00409d03 4f              dec     edi
00409d04 75ee            jne     image00400000+0x9cf4 (00409cf4)
00409d06 33c0            xor     eax,eax
00409d08 85ff            test    edi,edi
00409d0a 75c2            jne     image00400000+0x9cce (00409cce)
00409d0c 668906          mov     word ptr [esi],ax
00409d0f e81da1ffff      call    image00400000+0x3e31 (00403e31)
00409d14 6a22            push    22h
00409d16 59              pop     ecx
00409d17 8908            mov     dword ptr [eax],ecx
00409d19 8bf1            mov     esi,ecx
00409d1b ebaa            jmp     image00400000+0x9cc7 (00409cc7)
00409d1d 8bff            mov     edi,edi
00409d1f 55              push    ebp
00409d20 8bec            mov     ebp,esp
00409d22 8b5508          mov     edx,dword ptr [ebp+8]
00409d25 53              push    ebx
00409d26 8b5d14          mov     ebx,dword ptr [ebp+14h]
00409d29 56              push    esi
00409d2a 57              push    edi
00409d2b 85db            test    ebx,ebx
00409d2d 7510            jne     image00400000+0x9d3f (00409d3f)
00409d2f 85d2            test    edx,edx
00409d31 7510            jne     image00400000+0x9d43 (00409d43)
00409d33 39550c          cmp     dword ptr [ebp+0Ch],edx
00409d36 7512            jne     image00400000+0x9d4a (00409d4a)
00409d38 33c0            xor     eax,eax
00409d3a 5f              pop     edi
00409d3b 5e              pop     esi
00409d3c 5b              pop     ebx
00409d3d 5d              pop     ebp
00409d3e c3              ret
00409d3f 85d2            test    edx,edx
00409d41 7407            je      image00400000+0x9d4a (00409d4a)
00409d43 8b7d0c          mov     edi,dword ptr [ebp+0Ch]
00409d46 85ff            test    edi,edi
00409d48 7513            jne     image00400000+0x9d5d (00409d5d)
00409d4a e8e2a0ffff      call    image00400000+0x3e31 (00403e31)
00409d4f 6a16            push    16h
00409d51 5e              pop     esi
00409d52 8930            mov     dword ptr [eax],esi
00409d54 e886a0ffff      call    image00400000+0x3ddf (00403ddf)
00409d59 8bc6            mov     eax,esi
00409d5b ebdd            jmp     image00400000+0x9d3a (00409d3a)
00409d5d 85db            test    ebx,ebx
00409d5f 7507            jne     image00400000+0x9d68 (00409d68)
00409d61 33c0            xor     eax,eax
00409d63 668902          mov     word ptr [edx],ax
00409d66 ebd0            jmp     image00400000+0x9d38 (00409d38)
00409d68 8b4d10          mov     ecx,dword ptr [ebp+10h]
00409d6b 85c9            test    ecx,ecx
00409d6d 7507            jne     image00400000+0x9d76 (00409d76)
00409d6f 33c0            xor     eax,eax
00409d71 668902          mov     word ptr [edx],ax
00409d74 ebd4            jmp     image00400000+0x9d4a (00409d4a)
00409d76 8bc2            mov     eax,edx
00409d78 83fbff          cmp     ebx,0FFFFFFFFh
00409d7b 7518            jne     image00400000+0x9d95 (00409d95)
00409d7d 8bf2            mov     esi,edx
00409d7f 2bf1            sub     esi,ecx
00409d81 0fb701          movzx   eax,word ptr [ecx]
00409d84 6689040e        mov     word ptr [esi+ecx],ax
00409d88 83c102          add     ecx,2
00409d8b 6685c0          test    ax,ax
00409d8e 7427            je      image00400000+0x9db7 (00409db7)
00409d90 4f              dec     edi
00409d91 75ee            jne     image00400000+0x9d81 (00409d81)
00409d93 eb22            jmp     image00400000+0x9db7 (00409db7)
00409d95 8bf1            mov     esi,ecx
00409d97 2bf2            sub     esi,edx
00409d99 0fb70c06        movzx   ecx,word ptr [esi+eax]
00409d9d 668908          mov     word ptr [eax],cx
00409da0 83c002          add     eax,2
00409da3 6685c9          test    cx,cx
00409da6 7406            je      image00400000+0x9dae (00409dae)
00409da8 4f              dec     edi
00409da9 7403            je      image00400000+0x9dae (00409dae)
00409dab 4b              dec     ebx
00409dac 75eb            jne     image00400000+0x9d99 (00409d99)
00409dae 85db            test    ebx,ebx
00409db0 7505            jne     image00400000+0x9db7 (00409db7)
00409db2 33c9            xor     ecx,ecx
00409db4 668908          mov     word ptr [eax],cx
00409db7 85ff            test    edi,edi
00409db9 0f8579ffffff    jne     image00400000+0x9d38 (00409d38)
00409dbf 33c0            xor     eax,eax
00409dc1 83fbff          cmp     ebx,0FFFFFFFFh
00409dc4 7510            jne     image00400000+0x9dd6 (00409dd6)
00409dc6 8b4d0c          mov     ecx,dword ptr [ebp+0Ch]
00409dc9 6a50            push    50h
00409dcb 6689444afe      mov     word ptr [edx+ecx*2-2],ax
00409dd0 58              pop     eax
00409dd1 e964ffffff      jmp     image00400000+0x9d3a (00409d3a)
00409dd6 668902          mov     word ptr [edx],ax
00409dd9 e853a0ffff      call    image00400000+0x3e31 (00403e31)
00409dde 6a22            push    22h
00409de0 59              pop     ecx
00409de1 8908            mov     dword ptr [eax],ecx
00409de3 8bf1            mov     esi,ecx
00409de5 e96affffff      jmp     image00400000+0x9d54 (00409d54)
00409dea 8bff            mov     edi,edi
00409dec 55              push    ebp
00409ded 8bec            mov     ebp,esp
00409def 8b4508          mov     eax,dword ptr [ebp+8]
00409df2 668b08          mov     cx,word ptr [eax]
00409df5 83c002          add     eax,2
00409df8 6685c9          test    cx,cx
00409dfb 75f5            jne     image00400000+0x9df2 (00409df2)
00409dfd 2b4508          sub     eax,dword ptr [ebp+8]
00409e00 d1f8            sar     eax,1
00409e02 48              dec     eax
00409e03 5d              pop     ebp
00409e04 c3              ret
00409e05 8bff            mov     edi,edi
00409e07 55              push    ebp
00409e08 8bec            mov     ebp,esp
00409e0a 8b4d08          mov     ecx,dword ptr [ebp+8]
00409e0d 85c9            test    ecx,ecx
00409e0f 781e            js      image00400000+0x9e2f (00409e2f)
00409e11 83f902          cmp     ecx,2
00409e14 7e0c            jle     image00400000+0x9e22 (00409e22)
00409e16 83f903          cmp     ecx,3
00409e19 7514            jne     image00400000+0x9e2f (00409e2f)
00409e1b a1e80e4100      mov     eax,dword ptr [image00400000+0x10ee8 (00410ee8)]
00409e20 5d              pop     ebp
00409e21 c3              ret
00409e22 a1e80e4100      mov     eax,dword ptr [image00400000+0x10ee8 (00410ee8)]
00409e27 890de80e4100    mov     dword ptr [image00400000+0x10ee8 (00410ee8)],ecx
00409e2d 5d              pop     ebp
00409e2e c3              ret
00409e2f e8fd9fffff      call    image00400000+0x3e31 (00403e31)
00409e34 c70016000000    mov     dword ptr [eax],16h
00409e3a e8a09fffff      call    image00400000+0x3ddf (00403ddf)
00409e3f 83c8ff          or      eax,0FFFFFFFFh
00409e42 5d              pop     ebp
00409e43 c3              ret
00409e44 8bff            mov     edi,edi
00409e46 55              push    ebp
00409e47 8bec            mov     ebp,esp
00409e49 83ec10          sub     esp,10h
00409e4c a104004100      mov     eax,dword ptr [image00400000+0x10004 (00410004)]
00409e51 33c5            xor     eax,ebp
00409e53 8945fc          mov     dword ptr [ebp-4],eax
00409e56 53              push    ebx
00409e57 56              push    esi
00409e58 8b750c          mov     esi,dword ptr [ebp+0Ch]
00409e5b f6460c40        test    byte ptr [esi+0Ch],40h
00409e5f 57              push    edi
00409e60 0f8536010000    jne     image00400000+0x9f9c (00409f9c)
00409e66 56              push    esi
00409e67 e85ae9ffff      call    image00400000+0x87c6 (004087c6)
00409e6c 59              pop     ecx
00409e6d bb20094100      mov     ebx,offset image00400000+0x10920 (00410920)
00409e72 83f8ff          cmp     eax,0FFFFFFFFh
00409e75 742e            je      image00400000+0x9ea5 (00409ea5)
00409e77 56              push    esi
00409e78 e849e9ffff      call    image00400000+0x87c6 (004087c6)
00409e7d 59              pop     ecx
00409e7e 83f8fe          cmp     eax,0FFFFFFFEh
00409e81 7422            je      image00400000+0x9ea5 (00409ea5)
00409e83 56              push    esi
00409e84 e83de9ffff      call    image00400000+0x87c6 (004087c6)
00409e89 c1f805          sar     eax,5
00409e8c 56              push    esi
00409e8d 8d3c85a02b4100  lea     edi,image00400000+0x12ba0 (00412ba0)[eax*4]
00409e94 e82de9ffff      call    image00400000+0x87c6 (004087c6)
00409e99 83e01f          and     eax,1Fh
00409e9c 59              pop     ecx
00409e9d c1e006          shl     eax,6
00409ea0 0307            add     eax,dword ptr [edi]
00409ea2 59              pop     ecx
00409ea3 eb02            jmp     image00400000+0x9ea7 (00409ea7)
00409ea5 8bc3            mov     eax,ebx
00409ea7 8a4024          mov     al,byte ptr [eax+24h]
00409eaa 247f            and     al,7Fh
00409eac 3c02            cmp     al,2
00409eae 0f84e8000000    je      image00400000+0x9f9c (00409f9c)
00409eb4 56              push    esi
00409eb5 e80ce9ffff      call    image00400000+0x87c6 (004087c6)
00409eba 59              pop     ecx
00409ebb 83f8ff          cmp     eax,0FFFFFFFFh
00409ebe 742e            je      image00400000+0x9eee (00409eee)
00409ec0 56              push    esi
00409ec1 e800e9ffff      call    image00400000+0x87c6 (004087c6)
00409ec6 59              pop     ecx
00409ec7 83f8fe          cmp     eax,0FFFFFFFEh
00409eca 7422            je      image00400000+0x9eee (00409eee)
00409ecc 56              push    esi
00409ecd e8f4e8ffff      call    image00400000+0x87c6 (004087c6)
00409ed2 c1f805          sar     eax,5
00409ed5 56              push    esi
00409ed6 8d3c85a02b4100  lea     edi,image00400000+0x12ba0 (00412ba0)[eax*4]
00409edd e8e4e8ffff      call    image00400000+0x87c6 (004087c6)
00409ee2 83e01f          and     eax,1Fh
00409ee5 59              pop     ecx
00409ee6 c1e006          shl     eax,6
00409ee9 0307            add     eax,dword ptr [edi]
00409eeb 59              pop     ecx
00409eec eb02            jmp     image00400000+0x9ef0 (00409ef0)
00409eee 8bc3            mov     eax,ebx
00409ef0 8a4024          mov     al,byte ptr [eax+24h]
00409ef3 247f            and     al,7Fh
00409ef5 3c01            cmp     al,1
00409ef7 0f849f000000    je      image00400000+0x9f9c (00409f9c)
00409efd 56              push    esi
00409efe e8c3e8ffff      call    image00400000+0x87c6 (004087c6)
00409f03 59              pop     ecx
00409f04 83f8ff          cmp     eax,0FFFFFFFFh
00409f07 742e            je      image00400000+0x9f37 (00409f37)
00409f09 56              push    esi
00409f0a e8b7e8ffff      call    image00400000+0x87c6 (004087c6)
00409f0f 59              pop     ecx
00409f10 83f8fe          cmp     eax,0FFFFFFFEh
00409f13 7422            je      image00400000+0x9f37 (00409f37)
00409f15 56              push    esi
00409f16 e8abe8ffff      call    image00400000+0x87c6 (004087c6)
00409f1b c1f805          sar     eax,5
00409f1e 56              push    esi
00409f1f 8d3c85a02b4100  lea     edi,image00400000+0x12ba0 (00412ba0)[eax*4]
00409f26 e89be8ffff      call    image00400000+0x87c6 (004087c6)
00409f2b 83e01f          and     eax,1Fh
00409f2e 59              pop     ecx
00409f2f c1e006          shl     eax,6
00409f32 0307            add     eax,dword ptr [edi]
00409f34 59              pop     ecx
00409f35 eb02            jmp     image00400000+0x9f39 (00409f39)
00409f37 8bc3            mov     eax,ebx
00409f39 f6400480        test    byte ptr [eax+4],80h
00409f3d 745d            je      image00400000+0x9f9c (00409f9c)
00409f3f ff7508          push    dword ptr [ebp+8]
00409f42 8d45f4          lea     eax,[ebp-0Ch]
00409f45 6a05            push    5
00409f47 50              push    eax
00409f48 8d45f0          lea     eax,[ebp-10h]
00409f4b 50              push    eax
00409f4c e85aebffff      call    image00400000+0x8aab (00408aab)
00409f51 83c410          add     esp,10h
00409f54 85c0            test    eax,eax
00409f56 7407            je      image00400000+0x9f5f (00409f5f)
00409f58 b8ffff0000      mov     eax,0FFFFh
00409f5d eb5d            jmp     image00400000+0x9fbc (00409fbc)
00409f5f 33ff            xor     edi,edi
00409f61 397df0          cmp     dword ptr [ebp-10h],edi
00409f64 7e30            jle     image00400000+0x9f96 (00409f96)
00409f66 ff4e04          dec     dword ptr [esi+4]
00409f69 7812            js      image00400000+0x9f7d (00409f7d)
00409f6b 8b06            mov     eax,dword ptr [esi]
00409f6d 8a4c3df4        mov     cl,byte ptr [ebp+edi-0Ch]
00409f71 8808            mov     byte ptr [eax],cl
00409f73 8b0e            mov     ecx,dword ptr [esi]
00409f75 0fb601          movzx   eax,byte ptr [ecx]
00409f78 41              inc     ecx
00409f79 890e            mov     dword ptr [esi],ecx
00409f7b eb0e            jmp     image00400000+0x9f8b (00409f8b)
00409f7d 0fbe443df4      movsx   eax,byte ptr [ebp+edi-0Ch]
00409f82 56              push    esi
00409f83 50              push    eax
00409f84 e8cb8effff      call    image00400000+0x2e54 (00402e54)
00409f89 59              pop     ecx
00409f8a 59              pop     ecx
00409f8b 83f8ff          cmp     eax,0FFFFFFFFh
00409f8e 74c8            je      image00400000+0x9f58 (00409f58)
00409f90 47              inc     edi
00409f91 3b7df0          cmp     edi,dword ptr [ebp-10h]
00409f94 7cd0            jl      image00400000+0x9f66 (00409f66)
00409f96 668b4508        mov     ax,word ptr [ebp+8]
00409f9a eb20            jmp     image00400000+0x9fbc (00409fbc)
00409f9c 834604fe        add     dword ptr [esi+4],0FFFFFFFEh
00409fa0 780d            js      image00400000+0x9faf (00409faf)
00409fa2 8b0e            mov     ecx,dword ptr [esi]
00409fa4 8b4508          mov     eax,dword ptr [ebp+8]
00409fa7 668901          mov     word ptr [ecx],ax
00409faa 830602          add     dword ptr [esi],2
00409fad eb0d            jmp     image00400000+0x9fbc (00409fbc)
00409faf 0fb74508        movzx   eax,word ptr [ebp+8]
00409fb3 56              push    esi
00409fb4 50              push    eax
00409fb5 e81c1b0000      call    image00400000+0xbad6 (0040bad6)
00409fba 59              pop     ecx
00409fbb 59              pop     ecx
00409fbc 8b4dfc          mov     ecx,dword ptr [ebp-4]
00409fbf 5f              pop     edi
00409fc0 5e              pop     esi
00409fc1 33cd            xor     ecx,ebp
00409fc3 5b              pop     ebx
00409fc4 e83285ffff      call    image00400000+0x24fb (004024fb)
00409fc9 c9              leave
00409fca c3              ret
00409fcb 8bff            mov     edi,edi
00409fcd 55              push    ebp
00409fce 8bec            mov     ebp,esp
00409fd0 83ec10          sub     esp,10h
00409fd3 a104004100      mov     eax,dword ptr [image00400000+0x10004 (00410004)]
00409fd8 33c5            xor     eax,ebp
00409fda 8945fc          mov     dword ptr [ebp-4],eax
00409fdd 8b5518          mov     edx,dword ptr [ebp+18h]
00409fe0 53              push    ebx
00409fe1 33db            xor     ebx,ebx
00409fe3 56              push    esi
00409fe4 57              push    edi
00409fe5 3bd3            cmp     edx,ebx
00409fe7 7e1f            jle     image00400000+0xa008 (0040a008)
00409fe9 8b4514          mov     eax,dword ptr [ebp+14h]
00409fec 8bca            mov     ecx,edx
00409fee 49              dec     ecx
00409fef 3818            cmp     byte ptr [eax],bl
00409ff1 7408            je      image00400000+0x9ffb (00409ffb)
00409ff3 40              inc     eax
00409ff4 3bcb            cmp     ecx,ebx
00409ff6 75f6            jne     image00400000+0x9fee (00409fee)
00409ff8 83c9ff          or      ecx,0FFFFFFFFh
00409ffb 8bc2            mov     eax,edx
00409ffd 2bc1            sub     eax,ecx
00409fff 48              dec     eax
0040a000 3bc2            cmp     eax,edx
0040a002 7d01            jge     image00400000+0xa005 (0040a005)
0040a004 40              inc     eax
0040a005 894518          mov     dword ptr [ebp+18h],eax
0040a008 895df8          mov     dword ptr [ebp-8],ebx
0040a00b 395d24          cmp     dword ptr [ebp+24h],ebx
0040a00e 750b            jne     image00400000+0xa01b (0040a01b)
0040a010 8b4508          mov     eax,dword ptr [ebp+8]
0040a013 8b00            mov     eax,dword ptr [eax]
0040a015 8b4004          mov     eax,dword ptr [eax+4]
0040a018 894524          mov     dword ptr [ebp+24h],eax
0040a01b 8b3544d14000    mov     esi,dword ptr [image00400000+0xd144 (0040d144)]
0040a021 33c0            xor     eax,eax
0040a023 395d28          cmp     dword ptr [ebp+28h],ebx
0040a026 53              push    ebx
0040a027 53              push    ebx
0040a028 ff7518          push    dword ptr [ebp+18h]
0040a02b 0f95c0          setne   al
0040a02e ff7514          push    dword ptr [ebp+14h]
0040a031 8d04c501000000  lea     eax,[eax*8+1]
0040a038 50              push    eax
0040a039 ff7524          push    dword ptr [ebp+24h]
0040a03c ffd6            call    esi
0040a03e 8bf8            mov     edi,eax
0040a040 897df0          mov     dword ptr [ebp-10h],edi
0040a043 3bfb            cmp     edi,ebx
0040a045 7507            jne     image00400000+0xa04e (0040a04e)
0040a047 33c0            xor     eax,eax
0040a049 e952010000      jmp     image00400000+0xa1a0 (0040a1a0)
0040a04e 7e43            jle     image00400000+0xa093 (0040a093)
0040a050 6ae0            push    0FFFFFFE0h
0040a052 33d2            xor     edx,edx
0040a054 58              pop     eax
0040a055 f7f7            div     eax,edi
0040a057 83f802          cmp     eax,2
0040a05a 7237            jb      image00400000+0xa093 (0040a093)
0040a05c 8d443f08        lea     eax,[edi+edi+8]
0040a060 3d00040000      cmp     eax,400h
0040a065 7713            ja      image00400000+0xa07a (0040a07a)
0040a067 e844d0ffff      call    image00400000+0x70b0 (004070b0)
0040a06c 8bc4            mov     eax,esp
0040a06e 3bc3            cmp     eax,ebx
0040a070 741c            je      image00400000+0xa08e (0040a08e)
0040a072 c700cccc0000    mov     dword ptr [eax],0CCCCh
0040a078 eb11            jmp     image00400000+0xa08b (0040a08b)
0040a07a 50              push    eax
0040a07b e8d885ffff      call    image00400000+0x2658 (00402658)
0040a080 59              pop     ecx
0040a081 3bc3            cmp     eax,ebx
0040a083 7409            je      image00400000+0xa08e (0040a08e)
0040a085 c700dddd0000    mov     dword ptr [eax],0DDDDh
0040a08b 83c008          add     eax,8
0040a08e 8945f4          mov     dword ptr [ebp-0Ch],eax
0040a091 eb03            jmp     image00400000+0xa096 (0040a096)
0040a093 895df4          mov     dword ptr [ebp-0Ch],ebx
0040a096 395df4          cmp     dword ptr [ebp-0Ch],ebx
0040a099 74ac            je      image00400000+0xa047 (0040a047)
0040a09b 57              push    edi
0040a09c ff75f4          push    dword ptr [ebp-0Ch]
0040a09f ff7518          push    dword ptr [ebp+18h]
0040a0a2 ff7514          push    dword ptr [ebp+14h]
0040a0a5 6a01            push    1
0040a0a7 ff7524          push    dword ptr [ebp+24h]
0040a0aa ffd6            call    esi
0040a0ac 85c0            test    eax,eax
0040a0ae 0f84e0000000    je      image00400000+0xa194 (0040a194)
0040a0b4 8b3504d14000    mov     esi,dword ptr [image00400000+0xd104 (0040d104)]
0040a0ba 53              push    ebx
0040a0bb 53              push    ebx
0040a0bc 57              push    edi
0040a0bd ff75f4          push    dword ptr [ebp-0Ch]
0040a0c0 ff7510          push    dword ptr [ebp+10h]
0040a0c3 ff750c          push    dword ptr [ebp+0Ch]
0040a0c6 ffd6            call    esi
0040a0c8 8945f8          mov     dword ptr [ebp-8],eax
0040a0cb 3bc3            cmp     eax,ebx
0040a0cd 0f84c1000000    je      image00400000+0xa194 (0040a194)
0040a0d3 b900040000      mov     ecx,400h
0040a0d8 854d10          test    dword ptr [ebp+10h],ecx
0040a0db 7429            je      image00400000+0xa106 (0040a106)
0040a0dd 8b4520          mov     eax,dword ptr [ebp+20h]
0040a0e0 3bc3            cmp     eax,ebx
0040a0e2 0f84ac000000    je      image00400000+0xa194 (0040a194)
0040a0e8 3945f8          cmp     dword ptr [ebp-8],eax
0040a0eb 0f8fa3000000    jg      image00400000+0xa194 (0040a194)
0040a0f1 50              push    eax
0040a0f2 ff751c          push    dword ptr [ebp+1Ch]
0040a0f5 57              push    edi
0040a0f6 ff75f4          push    dword ptr [ebp-0Ch]
0040a0f9 ff7510          push    dword ptr [ebp+10h]
0040a0fc ff750c          push    dword ptr [ebp+0Ch]
0040a0ff ffd6            call    esi
0040a101 e98e000000      jmp     image00400000+0xa194 (0040a194)
0040a106 8b7df8          mov     edi,dword ptr [ebp-8]
0040a109 3bfb            cmp     edi,ebx
0040a10b 7e42            jle     image00400000+0xa14f (0040a14f)
0040a10d 6ae0            push    0FFFFFFE0h
0040a10f 33d2            xor     edx,edx
0040a111 58              pop     eax
0040a112 f7f7            div     eax,edi
0040a114 83f802          cmp     eax,2
0040a117 7236            jb      image00400000+0xa14f (0040a14f)
0040a119 8d443f08        lea     eax,[edi+edi+8]
0040a11d 3bc1            cmp     eax,ecx
0040a11f 7716            ja      image00400000+0xa137 (0040a137)
0040a121 e88acfffff      call    image00400000+0x70b0 (004070b0)
0040a126 8bfc            mov     edi,esp
0040a128 3bfb            cmp     edi,ebx
0040a12a 7468            je      image00400000+0xa194 (0040a194)
0040a12c c707cccc0000    mov     dword ptr [edi],0CCCCh
0040a132 83c708          add     edi,8
0040a135 eb1a            jmp     image00400000+0xa151 (0040a151)
0040a137 50              push    eax
0040a138 e81b85ffff      call    image00400000+0x2658 (00402658)
0040a13d 59              pop     ecx
0040a13e 3bc3            cmp     eax,ebx
0040a140 7409            je      image00400000+0xa14b (0040a14b)
0040a142 c700dddd0000    mov     dword ptr [eax],0DDDDh
0040a148 83c008          add     eax,8
0040a14b 8bf8            mov     edi,eax
0040a14d eb02            jmp     image00400000+0xa151 (0040a151)
0040a14f 33ff            xor     edi,edi
0040a151 3bfb            cmp     edi,ebx
0040a153 743f            je      image00400000+0xa194 (0040a194)
0040a155 ff75f8          push    dword ptr [ebp-8]
0040a158 57              push    edi
0040a159 ff75f0          push    dword ptr [ebp-10h]
0040a15c ff75f4          push    dword ptr [ebp-0Ch]
0040a15f ff7510          push    dword ptr [ebp+10h]
0040a162 ff750c          push    dword ptr [ebp+0Ch]
0040a165 ffd6            call    esi
0040a167 85c0            test    eax,eax
0040a169 7422            je      image00400000+0xa18d (0040a18d)
0040a16b 53              push    ebx
0040a16c 53              push    ebx
0040a16d 395d20          cmp     dword ptr [ebp+20h],ebx
0040a170 7504            jne     image00400000+0xa176 (0040a176)
0040a172 53              push    ebx
0040a173 53              push    ebx
0040a174 eb06            jmp     image00400000+0xa17c (0040a17c)
0040a176 ff7520          push    dword ptr [ebp+20h]
0040a179 ff751c          push    dword ptr [ebp+1Ch]
0040a17c ff75f8          push    dword ptr [ebp-8]
0040a17f 57              push    edi
0040a180 53              push    ebx
0040a181 ff7524          push    dword ptr [ebp+24h]
0040a184 ff1510d14000    call    dword ptr [image00400000+0xd110 (0040d110)]
0040a18a 8945f8          mov     dword ptr [ebp-8],eax
0040a18d 57              push    edi
0040a18e e81887ffff      call    image00400000+0x28ab (004028ab)
0040a193 59              pop     ecx
0040a194 ff75f4          push    dword ptr [ebp-0Ch]
0040a197 e80f87ffff      call    image00400000+0x28ab (004028ab)
0040a19c 8b45f8          mov     eax,dword ptr [ebp-8]
0040a19f 59              pop     ecx
0040a1a0 8d65e4          lea     esp,[ebp-1Ch]
0040a1a3 5f              pop     edi
0040a1a4 5e              pop     esi
0040a1a5 5b              pop     ebx
0040a1a6 8b4dfc          mov     ecx,dword ptr [ebp-4]
0040a1a9 33cd            xor     ecx,ebp
0040a1ab e84b83ffff      call    image00400000+0x24fb (004024fb)
0040a1b0 c9              leave
0040a1b1 c3              ret
0040a1b2 8bff            mov     edi,edi
0040a1b4 55              push    ebp
0040a1b5 8bec            mov     ebp,esp
0040a1b7 83ec10          sub     esp,10h
0040a1ba ff7508          push    dword ptr [ebp+8]
0040a1bd 8d4df0          lea     ecx,[ebp-10h]
0040a1c0 e80687ffff      call    image00400000+0x28cb (004028cb)
0040a1c5 ff7528          push    dword ptr [ebp+28h]
0040a1c8 8d45f0          lea     eax,[ebp-10h]
0040a1cb ff7524          push    dword ptr [ebp+24h]
0040a1ce ff7520          push    dword ptr [ebp+20h]
0040a1d1 ff751c          push    dword ptr [ebp+1Ch]
0040a1d4 ff7518          push    dword ptr [ebp+18h]
0040a1d7 ff7514          push    dword ptr [ebp+14h]
0040a1da ff7510          push    dword ptr [ebp+10h]
0040a1dd ff750c          push    dword ptr [ebp+0Ch]
0040a1e0 50              push    eax
0040a1e1 e8e5fdffff      call    image00400000+0x9fcb (00409fcb)
0040a1e6 83c424          add     esp,24h
0040a1e9 807dfc00        cmp     byte ptr [ebp-4],0
0040a1ed 7407            je      image00400000+0xa1f6 (0040a1f6)
0040a1ef 8b4df8          mov     ecx,dword ptr [ebp-8]
0040a1f2 836170fd        and     dword ptr [ecx+70h],0FFFFFFFDh
0040a1f6 c9              leave
0040a1f7 c3              ret
0040a1f8 8bff            mov     edi,edi
0040a1fa 55              push    ebp
0040a1fb 8bec            mov     ebp,esp
0040a1fd 51              push    ecx
0040a1fe 51              push    ecx
0040a1ff a104004100      mov     eax,dword ptr [image00400000+0x10004 (00410004)]
0040a204 33c5            xor     eax,ebp
0040a206 8945fc          mov     dword ptr [ebp-4],eax
0040a209 53              push    ebx
0040a20a 33db            xor     ebx,ebx
0040a20c 56              push    esi
0040a20d 57              push    edi
0040a20e 895df8          mov     dword ptr [ebp-8],ebx
0040a211 395d1c          cmp     dword ptr [ebp+1Ch],ebx
0040a214 750b            jne     image00400000+0xa221 (0040a221)
0040a216 8b4508          mov     eax,dword ptr [ebp+8]
0040a219 8b00            mov     eax,dword ptr [eax]
0040a21b 8b4004          mov     eax,dword ptr [eax+4]
0040a21e 89451c          mov     dword ptr [ebp+1Ch],eax
0040a221 8b3544d14000    mov     esi,dword ptr [image00400000+0xd144 (0040d144)]
0040a227 33c0            xor     eax,eax
0040a229 395d20          cmp     dword ptr [ebp+20h],ebx
0040a22c 53              push    ebx
0040a22d 53              push    ebx
0040a22e ff7514          push    dword ptr [ebp+14h]
0040a231 0f95c0          setne   al
0040a234 ff7510          push    dword ptr [ebp+10h]
0040a237 8d04c501000000  lea     eax,[eax*8+1]
0040a23e 50              push    eax
0040a23f ff751c          push    dword ptr [ebp+1Ch]
0040a242 ffd6            call    esi
0040a244 8bf8            mov     edi,eax
0040a246 3bfb            cmp     edi,ebx
0040a248 7504            jne     image00400000+0xa24e (0040a24e)
0040a24a 33c0            xor     eax,eax
0040a24c eb7f            jmp     image00400000+0xa2cd (0040a2cd)
0040a24e 7e3c            jle     image00400000+0xa28c (0040a28c)
0040a250 81fff0ffff7f    cmp     edi,7FFFFFF0h
0040a256 7734            ja      image00400000+0xa28c (0040a28c)
0040a258 8d443f08        lea     eax,[edi+edi+8]
0040a25c 3d00040000      cmp     eax,400h
0040a261 7713            ja      image00400000+0xa276 (0040a276)
0040a263 e848ceffff      call    image00400000+0x70b0 (004070b0)
0040a268 8bc4            mov     eax,esp
0040a26a 3bc3            cmp     eax,ebx
0040a26c 741c            je      image00400000+0xa28a (0040a28a)
0040a26e c700cccc0000    mov     dword ptr [eax],0CCCCh
0040a274 eb11            jmp     image00400000+0xa287 (0040a287)
0040a276 50              push    eax
0040a277 e8dc83ffff      call    image00400000+0x2658 (00402658)
0040a27c 59              pop     ecx
0040a27d 3bc3            cmp     eax,ebx
0040a27f 7409            je      image00400000+0xa28a (0040a28a)
0040a281 c700dddd0000    mov     dword ptr [eax],0DDDDh
0040a287 83c008          add     eax,8
0040a28a 8bd8            mov     ebx,eax
0040a28c 85db            test    ebx,ebx
0040a28e 74ba            je      image00400000+0xa24a (0040a24a)
0040a290 8d043f          lea     eax,[edi+edi]
0040a293 50              push    eax
0040a294 6a00            push    0
0040a296 53              push    ebx
0040a297 e824e9ffff      call    image00400000+0x8bc0 (00408bc0)
0040a29c 83c40c          add     esp,0Ch
0040a29f 57              push    edi
0040a2a0 53              push    ebx
0040a2a1 ff7514          push    dword ptr [ebp+14h]
0040a2a4 ff7510          push    dword ptr [ebp+10h]
0040a2a7 6a01            push    1
0040a2a9 ff751c          push    dword ptr [ebp+1Ch]
0040a2ac ffd6            call    esi
0040a2ae 85c0            test    eax,eax
0040a2b0 7411            je      image00400000+0xa2c3 (0040a2c3)
0040a2b2 ff7518          push    dword ptr [ebp+18h]
0040a2b5 50              push    eax
0040a2b6 53              push    ebx
0040a2b7 ff750c          push    dword ptr [ebp+0Ch]
0040a2ba ff154cd14000    call    dword ptr [image00400000+0xd14c (0040d14c)]
0040a2c0 8945f8          mov     dword ptr [ebp-8],eax
0040a2c3 53              push    ebx
0040a2c4 e8e285ffff      call    image00400000+0x28ab (004028ab)
0040a2c9 8b45f8          mov     eax,dword ptr [ebp-8]
0040a2cc 59              pop     ecx
0040a2cd 8d65ec          lea     esp,[ebp-14h]
0040a2d0 5f              pop     edi
0040a2d1 5e              pop     esi
0040a2d2 5b              pop     ebx
0040a2d3 8b4dfc          mov     ecx,dword ptr [ebp-4]
0040a2d6 33cd            xor     ecx,ebp
0040a2d8 e81e82ffff      call    image00400000+0x24fb (004024fb)
0040a2dd c9              leave
0040a2de c3              ret
0040a2df 8bff            mov     edi,edi
0040a2e1 55              push    ebp
0040a2e2 8bec            mov     ebp,esp
0040a2e4 83ec10          sub     esp,10h
0040a2e7 ff7508          push    dword ptr [ebp+8]
0040a2ea 8d4df0          lea     ecx,[ebp-10h]
0040a2ed e8d985ffff      call    image00400000+0x28cb (004028cb)
0040a2f2 ff7524          push    dword ptr [ebp+24h]
0040a2f5 8d45f0          lea     eax,[ebp-10h]
0040a2f8 ff751c          push    dword ptr [ebp+1Ch]
0040a2fb ff7518          push    dword ptr [ebp+18h]
0040a2fe ff7514          push    dword ptr [ebp+14h]
0040a301 ff7510          push    dword ptr [ebp+10h]
0040a304 ff750c          push    dword ptr [ebp+0Ch]
0040a307 50              push    eax
0040a308 e8ebfeffff      call    image00400000+0xa1f8 (0040a1f8)
0040a30d 83c41c          add     esp,1Ch
0040a310 807dfc00        cmp     byte ptr [ebp-4],0
0040a314 7407            je      image00400000+0xa31d (0040a31d)
0040a316 8b4df8          mov     ecx,dword ptr [ebp-8]
0040a319 836170fd        and     dword ptr [ecx+70h],0FFFFFFFDh
0040a31d c9              leave
0040a31e c3              ret
0040a31f 8bff            mov     edi,edi
0040a321 55              push    ebp
0040a322 8bec            mov     ebp,esp
0040a324 56              push    esi
0040a325 8b7508          mov     esi,dword ptr [ebp+8]
0040a328 85f6            test    esi,esi
0040a32a 0f8463030000    je      image00400000+0xa693 (0040a693)
0040a330 ff7604          push    dword ptr [esi+4]
0040a333 e8e682ffff      call    image00400000+0x261e (0040261e)
0040a338 ff7608          push    dword ptr [esi+8]
0040a33b e8de82ffff      call    image00400000+0x261e (0040261e)
0040a340 ff760c          push    dword ptr [esi+0Ch]
0040a343 e8d682ffff      call    image00400000+0x261e (0040261e)
0040a348 ff7610          push    dword ptr [esi+10h]
0040a34b e8ce82ffff      call    image00400000+0x261e (0040261e)
0040a350 ff7614          push    dword ptr [esi+14h]
0040a353 e8c682ffff      call    image00400000+0x261e (0040261e)
0040a358 ff7618          push    dword ptr [esi+18h]
0040a35b e8be82ffff      call    image00400000+0x261e (0040261e)
0040a360 ff36            push    dword ptr [esi]
0040a362 e8b782ffff      call    image00400000+0x261e (0040261e)
0040a367 ff7620          push    dword ptr [esi+20h]
0040a36a e8af82ffff      call    image00400000+0x261e (0040261e)
0040a36f ff7624          push    dword ptr [esi+24h]
0040a372 e8a782ffff      call    image00400000+0x261e (0040261e)
0040a377 ff7628          push    dword ptr [esi+28h]
0040a37a e89f82ffff      call    image00400000+0x261e (0040261e)
0040a37f ff762c          push    dword ptr [esi+2Ch]
0040a382 e89782ffff      call    image00400000+0x261e (0040261e)
0040a387 ff7630          push    dword ptr [esi+30h]
0040a38a e88f82ffff      call    image00400000+0x261e (0040261e)
0040a38f ff7634          push    dword ptr [esi+34h]
0040a392 e88782ffff      call    image00400000+0x261e (0040261e)
0040a397 ff761c          push    dword ptr [esi+1Ch]
0040a39a e87f82ffff      call    image00400000+0x261e (0040261e)
0040a39f ff7638          push    dword ptr [esi+38h]
0040a3a2 e87782ffff      call    image00400000+0x261e (0040261e)
0040a3a7 ff763c          push    dword ptr [esi+3Ch]
0040a3aa e86f82ffff      call    image00400000+0x261e (0040261e)
0040a3af 83c440          add     esp,40h
0040a3b2 ff7640          push    dword ptr [esi+40h]
0040a3b5 e86482ffff      call    image00400000+0x261e (0040261e)
0040a3ba ff7644          push    dword ptr [esi+44h]
0040a3bd e85c82ffff      call    image00400000+0x261e (0040261e)
0040a3c2 ff7648          push    dword ptr [esi+48h]
0040a3c5 e85482ffff      call    image00400000+0x261e (0040261e)
0040a3ca ff764c          push    dword ptr [esi+4Ch]
0040a3cd e84c82ffff      call    image00400000+0x261e (0040261e)
0040a3d2 ff7650          push    dword ptr [esi+50h]
0040a3d5 e84482ffff      call    image00400000+0x261e (0040261e)
0040a3da ff7654          push    dword ptr [esi+54h]
0040a3dd e83c82ffff      call    image00400000+0x261e (0040261e)
0040a3e2 ff7658          push    dword ptr [esi+58h]
0040a3e5 e83482ffff      call    image00400000+0x261e (0040261e)
0040a3ea ff765c          push    dword ptr [esi+5Ch]
0040a3ed e82c82ffff      call    image00400000+0x261e (0040261e)
0040a3f2 ff7660          push    dword ptr [esi+60h]
0040a3f5 e82482ffff      call    image00400000+0x261e (0040261e)
0040a3fa ff7664          push    dword ptr [esi+64h]
0040a3fd e81c82ffff      call    image00400000+0x261e (0040261e)
0040a402 ff7668          push    dword ptr [esi+68h]
0040a405 e81482ffff      call    image00400000+0x261e (0040261e)
0040a40a ff766c          push    dword ptr [esi+6Ch]
0040a40d e80c82ffff      call    image00400000+0x261e (0040261e)
0040a412 ff7670          push    dword ptr [esi+70h]
0040a415 e80482ffff      call    image00400000+0x261e (0040261e)
0040a41a ff7674          push    dword ptr [esi+74h]
0040a41d e8fc81ffff      call    image00400000+0x261e (0040261e)
0040a422 ff7678          push    dword ptr [esi+78h]
0040a425 e8f481ffff      call    image00400000+0x261e (0040261e)
0040a42a ff767c          push    dword ptr [esi+7Ch]
0040a42d e8ec81ffff      call    image00400000+0x261e (0040261e)
0040a432 83c440          add     esp,40h
0040a435 ffb680000000    push    dword ptr [esi+80h]
0040a43b e8de81ffff      call    image00400000+0x261e (0040261e)
0040a440 ffb684000000    push    dword ptr [esi+84h]
0040a446 e8d381ffff      call    image00400000+0x261e (0040261e)
0040a44b ffb688000000    push    dword ptr [esi+88h]
0040a451 e8c881ffff      call    image00400000+0x261e (0040261e)
0040a456 ffb68c000000    push    dword ptr [esi+8Ch]
0040a45c e8bd81ffff      call    image00400000+0x261e (0040261e)
0040a461 ffb690000000    push    dword ptr [esi+90h]
0040a467 e8b281ffff      call    image00400000+0x261e (0040261e)
0040a46c ffb694000000    push    dword ptr [esi+94h]
0040a472 e8a781ffff      call    image00400000+0x261e (0040261e)
0040a477 ffb698000000    push    dword ptr [esi+98h]
0040a47d e89c81ffff      call    image00400000+0x261e (0040261e)
0040a482 ffb69c000000    push    dword ptr [esi+9Ch]
0040a488 e89181ffff      call    image00400000+0x261e (0040261e)
0040a48d ffb6a0000000    push    dword ptr [esi+0A0h]
0040a493 e88681ffff      call    image00400000+0x261e (0040261e)
0040a498 ffb6a4000000    push    dword ptr [esi+0A4h]
0040a49e e87b81ffff      call    image00400000+0x261e (0040261e)
0040a4a3 ffb6a8000000    push    dword ptr [esi+0A8h]
0040a4a9 e87081ffff      call    image00400000+0x261e (0040261e)
0040a4ae ffb6bc000000    push    dword ptr [esi+0BCh]
0040a4b4 e86581ffff      call    image00400000+0x261e (0040261e)
0040a4b9 ffb6c0000000    push    dword ptr [esi+0C0h]
0040a4bf e85a81ffff      call    image00400000+0x261e (0040261e)
0040a4c4 ffb6c4000000    push    dword ptr [esi+0C4h]
0040a4ca e84f81ffff      call    image00400000+0x261e (0040261e)
0040a4cf ffb6c8000000    push    dword ptr [esi+0C8h]
0040a4d5 e84481ffff      call    image00400000+0x261e (0040261e)
0040a4da ffb6cc000000    push    dword ptr [esi+0CCh]
0040a4e0 e83981ffff      call    image00400000+0x261e (0040261e)
0040a4e5 83c440          add     esp,40h
0040a4e8 ffb6d0000000    push    dword ptr [esi+0D0h]
0040a4ee e82b81ffff      call    image00400000+0x261e (0040261e)
0040a4f3 ffb6b8000000    push    dword ptr [esi+0B8h]
0040a4f9 e82081ffff      call    image00400000+0x261e (0040261e)
0040a4fe ffb6d8000000    push    dword ptr [esi+0D8h]
0040a504 e81581ffff      call    image00400000+0x261e (0040261e)
0040a509 ffb6dc000000    push    dword ptr [esi+0DCh]
0040a50f e80a81ffff      call    image00400000+0x261e (0040261e)
0040a514 ffb6e0000000    push    dword ptr [esi+0E0h]
0040a51a e8ff80ffff      call    image00400000+0x261e (0040261e)
0040a51f ffb6e4000000    push    dword ptr [esi+0E4h]
0040a525 e8f480ffff      call    image00400000+0x261e (0040261e)
0040a52a ffb6e8000000    push    dword ptr [esi+0E8h]
0040a530 e8e980ffff      call    image00400000+0x261e (0040261e)
0040a535 ffb6ec000000    push    dword ptr [esi+0ECh]
0040a53b e8de80ffff      call    image00400000+0x261e (0040261e)
0040a540 ffb6d4000000    push    dword ptr [esi+0D4h]
0040a546 e8d380ffff      call    image00400000+0x261e (0040261e)
0040a54b ffb6f0000000    push    dword ptr [esi+0F0h]
0040a551 e8c880ffff      call    image00400000+0x261e (0040261e)
0040a556 ffb6f4000000    push    dword ptr [esi+0F4h]
0040a55c e8bd80ffff      call    image00400000+0x261e (0040261e)
0040a561 ffb6f8000000    push    dword ptr [esi+0F8h]
0040a567 e8b280ffff      call    image00400000+0x261e (0040261e)
0040a56c ffb6fc000000    push    dword ptr [esi+0FCh]
0040a572 e8a780ffff      call    image00400000+0x261e (0040261e)
0040a577 ffb600010000    push    dword ptr [esi+100h]
0040a57d e89c80ffff      call    image00400000+0x261e (0040261e)
0040a582 ffb604010000    push    dword ptr [esi+104h]
0040a588 e89180ffff      call    image00400000+0x261e (0040261e)
0040a58d ffb608010000    push    dword ptr [esi+108h]
0040a593 e88680ffff      call    image00400000+0x261e (0040261e)
0040a598 83c440          add     esp,40h
0040a59b ffb60c010000    push    dword ptr [esi+10Ch]
0040a5a1 e87880ffff      call    image00400000+0x261e (0040261e)
0040a5a6 ffb610010000    push    dword ptr [esi+110h]
0040a5ac e86d80ffff      call    image00400000+0x261e (0040261e)
0040a5b1 ffb614010000    push    dword ptr [esi+114h]
0040a5b7 e86280ffff      call    image00400000+0x261e (0040261e)
0040a5bc ffb618010000    push    dword ptr [esi+118h]
0040a5c2 e85780ffff      call    image00400000+0x261e (0040261e)
0040a5c7 ffb61c010000    push    dword ptr [esi+11Ch]
0040a5cd e84c80ffff      call    image00400000+0x261e (0040261e)
0040a5d2 ffb620010000    push    dword ptr [esi+120h]
0040a5d8 e84180ffff      call    image00400000+0x261e (0040261e)
0040a5dd ffb624010000    push    dword ptr [esi+124h]
0040a5e3 e83680ffff      call    image00400000+0x261e (0040261e)
0040a5e8 ffb628010000    push    dword ptr [esi+128h]
0040a5ee e82b80ffff      call    image00400000+0x261e (0040261e)
0040a5f3 ffb62c010000    push    dword ptr [esi+12Ch]
0040a5f9 e82080ffff      call    image00400000+0x261e (0040261e)
0040a5fe ffb630010000    push    dword ptr [esi+130h]
0040a604 e81580ffff      call    image00400000+0x261e (0040261e)
0040a609 ffb634010000    push    dword ptr [esi+134h]
0040a60f e80a80ffff      call    image00400000+0x261e (0040261e)
0040a614 ffb638010000    push    dword ptr [esi+138h]
0040a61a e8ff7fffff      call    image00400000+0x261e (0040261e)
0040a61f ffb63c010000    push    dword ptr [esi+13Ch]
0040a625 e8f47fffff      call    image00400000+0x261e (0040261e)
0040a62a ffb640010000    push    dword ptr [esi+140h]
0040a630 e8e97fffff      call    image00400000+0x261e (0040261e)
0040a635 ffb644010000    push    dword ptr [esi+144h]
0040a63b e8de7fffff      call    image00400000+0x261e (0040261e)
0040a640 ffb648010000    push    dword ptr [esi+148h]
0040a646 e8d37fffff      call    image00400000+0x261e (0040261e)
0040a64b 83c440          add     esp,40h
0040a64e ffb64c010000    push    dword ptr [esi+14Ch]
0040a654 e8c57fffff      call    image00400000+0x261e (0040261e)
0040a659 ffb650010000    push    dword ptr [esi+150h]
0040a65f e8ba7fffff      call    image00400000+0x261e (0040261e)
0040a664 ffb654010000    push    dword ptr [esi+154h]
0040a66a e8af7fffff      call    image00400000+0x261e (0040261e)
0040a66f ffb658010000    push    dword ptr [esi+158h]
0040a675 e8a47fffff      call    image00400000+0x261e (0040261e)
0040a67a ffb65c010000    push    dword ptr [esi+15Ch]
0040a680 e8997fffff      call    image00400000+0x261e (0040261e)
0040a685 ffb660010000    push    dword ptr [esi+160h]
0040a68b e88e7fffff      call    image00400000+0x261e (0040261e)
0040a690 83c418          add     esp,18h
0040a693 5e              pop     esi
0040a694 5d              pop     ebp
0040a695 c3              ret
0040a696 8bff            mov     edi,edi
0040a698 55              push    ebp
0040a699 8bec            mov     ebp,esp
0040a69b 56              push    esi
0040a69c 8b7508          mov     esi,dword ptr [ebp+8]
0040a69f 85f6            test    esi,esi
0040a6a1 7459            je      image00400000+0xa6fc (0040a6fc)
0040a6a3 8b06            mov     eax,dword ptr [esi]
0040a6a5 3b05380d4100    cmp     eax,dword ptr [image00400000+0x10d38 (00410d38)]
0040a6ab 7407            je      image00400000+0xa6b4 (0040a6b4)
0040a6ad 50              push    eax
0040a6ae e86b7fffff      call    image00400000+0x261e (0040261e)
0040a6b3 59              pop     ecx
0040a6b4 8b4604          mov     eax,dword ptr [esi+4]
0040a6b7 3b053c0d4100    cmp     eax,dword ptr [image00400000+0x10d3c (00410d3c)]
0040a6bd 7407            je      image00400000+0xa6c6 (0040a6c6)
0040a6bf 50              push    eax
0040a6c0 e8597fffff      call    image00400000+0x261e (0040261e)
0040a6c5 59              pop     ecx
0040a6c6 8b4608          mov     eax,dword ptr [esi+8]
0040a6c9 3b05400d4100    cmp     eax,dword ptr [image00400000+0x10d40 (00410d40)]
0040a6cf 7407            je      image00400000+0xa6d8 (0040a6d8)
0040a6d1 50              push    eax
0040a6d2 e8477fffff      call    image00400000+0x261e (0040261e)
0040a6d7 59              pop     ecx
0040a6d8 8b4630          mov     eax,dword ptr [esi+30h]
0040a6db 3b05680d4100    cmp     eax,dword ptr [image00400000+0x10d68 (00410d68)]
0040a6e1 7407            je      image00400000+0xa6ea (0040a6ea)
0040a6e3 50              push    eax
0040a6e4 e8357fffff      call    image00400000+0x261e (0040261e)
0040a6e9 59              pop     ecx
0040a6ea 8b7634          mov     esi,dword ptr [esi+34h]
0040a6ed 3b356c0d4100    cmp     esi,dword ptr [image00400000+0x10d6c (00410d6c)]
0040a6f3 7407            je      image00400000+0xa6fc (0040a6fc)
0040a6f5 56              push    esi
0040a6f6 e8237fffff      call    image00400000+0x261e (0040261e)
0040a6fb 59              pop     ecx
0040a6fc 5e              pop     esi
0040a6fd 5d              pop     ebp
0040a6fe c3              ret
0040a6ff 8bff            mov     edi,edi
0040a701 55              push    ebp
0040a702 8bec            mov     ebp,esp
0040a704 56              push    esi
0040a705 8b7508          mov     esi,dword ptr [ebp+8]
0040a708 85f6            test    esi,esi
0040a70a 0f84ea000000    je      image00400000+0xa7fa (0040a7fa)
0040a710 8b460c          mov     eax,dword ptr [esi+0Ch]
0040a713 3b05440d4100    cmp     eax,dword ptr [image00400000+0x10d44 (00410d44)]
0040a719 7407            je      image00400000+0xa722 (0040a722)
0040a71b 50              push    eax
0040a71c e8fd7effff      call    image00400000+0x261e (0040261e)
0040a721 59              pop     ecx
0040a722 8b4610          mov     eax,dword ptr [esi+10h]
0040a725 3b05480d4100    cmp     eax,dword ptr [image00400000+0x10d48 (00410d48)]
0040a72b 7407            je      image00400000+0xa734 (0040a734)
0040a72d 50              push    eax
0040a72e e8eb7effff      call    image00400000+0x261e (0040261e)
0040a733 59              pop     ecx
0040a734 8b4614          mov     eax,dword ptr [esi+14h]
0040a737 3b054c0d4100    cmp     eax,dword ptr [image00400000+0x10d4c (00410d4c)]
0040a73d 7407            je      image00400000+0xa746 (0040a746)
0040a73f 50              push    eax
0040a740 e8d97effff      call    image00400000+0x261e (0040261e)
0040a745 59              pop     ecx
0040a746 8b4618          mov     eax,dword ptr [esi+18h]
0040a749 3b05500d4100    cmp     eax,dword ptr [image00400000+0x10d50 (00410d50)]
0040a74f 7407            je      image00400000+0xa758 (0040a758)
0040a751 50              push    eax
0040a752 e8c77effff      call    image00400000+0x261e (0040261e)
0040a757 59              pop     ecx
0040a758 8b461c          mov     eax,dword ptr [esi+1Ch]
0040a75b 3b05540d4100    cmp     eax,dword ptr [image00400000+0x10d54 (00410d54)]
0040a761 7407            je      image00400000+0xa76a (0040a76a)
0040a763 50              push    eax
0040a764 e8b57effff      call    image00400000+0x261e (0040261e)
0040a769 59              pop     ecx
0040a76a 8b4620          mov     eax,dword ptr [esi+20h]
0040a76d 3b05580d4100    cmp     eax,dword ptr [image00400000+0x10d58 (00410d58)]
0040a773 7407            je      image00400000+0xa77c (0040a77c)
0040a775 50              push    eax
0040a776 e8a37effff      call    image00400000+0x261e (0040261e)
0040a77b 59              pop     ecx
0040a77c 8b4624          mov     eax,dword ptr [esi+24h]
0040a77f 3b055c0d4100    cmp     eax,dword ptr [image00400000+0x10d5c (00410d5c)]
0040a785 7407            je      image00400000+0xa78e (0040a78e)
0040a787 50              push    eax
0040a788 e8917effff      call    image00400000+0x261e (0040261e)
0040a78d 59              pop     ecx
0040a78e 8b4638          mov     eax,dword ptr [esi+38h]
0040a791 3b05700d4100    cmp     eax,dword ptr [image00400000+0x10d70 (00410d70)]
0040a797 7407            je      image00400000+0xa7a0 (0040a7a0)
0040a799 50              push    eax
0040a79a e87f7effff      call    image00400000+0x261e (0040261e)
0040a79f 59              pop     ecx
0040a7a0 8b463c          mov     eax,dword ptr [esi+3Ch]
0040a7a3 3b05740d4100    cmp     eax,dword ptr [image00400000+0x10d74 (00410d74)]
0040a7a9 7407            je      image00400000+0xa7b2 (0040a7b2)
0040a7ab 50              push    eax
0040a7ac e86d7effff      call    image00400000+0x261e (0040261e)
0040a7b1 59              pop     ecx
0040a7b2 8b4640          mov     eax,dword ptr [esi+40h]
0040a7b5 3b05780d4100    cmp     eax,dword ptr [image00400000+0x10d78 (00410d78)]
0040a7bb 7407            je      image00400000+0xa7c4 (0040a7c4)
0040a7bd 50              push    eax
0040a7be e85b7effff      call    image00400000+0x261e (0040261e)
0040a7c3 59              pop     ecx
0040a7c4 8b4644          mov     eax,dword ptr [esi+44h]
0040a7c7 3b057c0d4100    cmp     eax,dword ptr [image00400000+0x10d7c (00410d7c)]
0040a7cd 7407            je      image00400000+0xa7d6 (0040a7d6)
0040a7cf 50              push    eax
0040a7d0 e8497effff      call    image00400000+0x261e (0040261e)
0040a7d5 59              pop     ecx
0040a7d6 8b4648          mov     eax,dword ptr [esi+48h]
0040a7d9 3b05800d4100    cmp     eax,dword ptr [image00400000+0x10d80 (00410d80)]
0040a7df 7407            je      image00400000+0xa7e8 (0040a7e8)
0040a7e1 50              push    eax
0040a7e2 e8377effff      call    image00400000+0x261e (0040261e)
0040a7e7 59              pop     ecx
0040a7e8 8b764c          mov     esi,dword ptr [esi+4Ch]
0040a7eb 3b35840d4100    cmp     esi,dword ptr [image00400000+0x10d84 (00410d84)]
0040a7f1 7407            je      image00400000+0xa7fa (0040a7fa)
0040a7f3 56              push    esi
0040a7f4 e8257effff      call    image00400000+0x261e (0040261e)
0040a7f9 59              pop     ecx
0040a7fa 5e              pop     esi
0040a7fb 5d              pop     ebp
0040a7fc c3              ret
0040a7fd cc              int     3
0040a7fe cc              int     3
0040a7ff cc              int     3
0040a800 51              push    ecx
0040a801 8d4c2404        lea     ecx,[esp+4]
0040a805 2bc8            sub     ecx,eax
0040a807 1bc0            sbb     eax,eax
0040a809 f7d0            not     eax
0040a80b 23c8            and     ecx,eax
0040a80d 8bc4            mov     eax,esp
0040a80f 2500f0ffff      and     eax,0FFFFF000h
0040a814 3bc8            cmp     ecx,eax
0040a816 720a            jb      image00400000+0xa822 (0040a822)
0040a818 8bc1            mov     eax,ecx
0040a81a 59              pop     ecx
0040a81b 94              xchg    eax,esp
0040a81c 8b00            mov     eax,dword ptr [eax]
0040a81e 890424          mov     dword ptr [esp],eax
0040a821 c3              ret
0040a822 2d00100000      sub     eax,1000h
0040a827 8500            test    dword ptr [eax],eax
0040a829 ebe9            jmp     image00400000+0xa814 (0040a814)
0040a82b cc              int     3
0040a82c cc              int     3
0040a82d cc              int     3
0040a82e cc              int     3
0040a82f cc              int     3
0040a830 55              push    ebp
0040a831 8bec            mov     ebp,esp
0040a833 56              push    esi
0040a834 33c0            xor     eax,eax
0040a836 50              push    eax
0040a837 50              push    eax
0040a838 50              push    eax
0040a839 50              push    eax
0040a83a 50              push    eax
0040a83b 50              push    eax
0040a83c 50              push    eax
0040a83d 50              push    eax
0040a83e 8b550c          mov     edx,dword ptr [ebp+0Ch]
0040a841 8d4900          lea     ecx,[ecx]
0040a844 8a02            mov     al,byte ptr [edx]
0040a846 0ac0            or      al,al
0040a848 7409            je      image00400000+0xa853 (0040a853)
0040a84a 83c201          add     edx,1
0040a84d 0fab0424        bts     dword ptr [esp],eax
0040a851 ebf1            jmp     image00400000+0xa844 (0040a844)
0040a853 8b7508          mov     esi,dword ptr [ebp+8]
0040a856 83c9ff          or      ecx,0FFFFFFFFh
0040a859 8d4900          lea     ecx,[ecx]
0040a85c 83c101          add     ecx,1
0040a85f 8a06            mov     al,byte ptr [esi]
0040a861 0ac0            or      al,al
0040a863 7409            je      image00400000+0xa86e (0040a86e)
0040a865 83c601          add     esi,1
0040a868 0fa30424        bt      dword ptr [esp],eax
0040a86c 73ee            jae     image00400000+0xa85c (0040a85c)
0040a86e 8bc1            mov     eax,ecx
0040a870 83c420          add     esp,20h
0040a873 5e              pop     esi
0040a874 c9              leave
0040a875 c3              ret
0040a876 8bff            mov     edi,edi
0040a878 55              push    ebp
0040a879 8bec            mov     ebp,esp
0040a87b 8b5508          mov     edx,dword ptr [ebp+8]
0040a87e 56              push    esi
0040a87f 57              push    edi
0040a880 85d2            test    edx,edx
0040a882 7407            je      image00400000+0xa88b (0040a88b)
0040a884 8b7d0c          mov     edi,dword ptr [ebp+0Ch]
0040a887 85ff            test    edi,edi
0040a889 7513            jne     image00400000+0xa89e (0040a89e)
0040a88b e8a195ffff      call    image00400000+0x3e31 (00403e31)
0040a890 6a16            push    16h
0040a892 5e              pop     esi
0040a893 8930            mov     dword ptr [eax],esi
0040a895 e84595ffff      call    image00400000+0x3ddf (00403ddf)
0040a89a 8bc6            mov     eax,esi
0040a89c eb33            jmp     image00400000+0xa8d1 (0040a8d1)
0040a89e 8b4510          mov     eax,dword ptr [ebp+10h]
0040a8a1 85c0            test    eax,eax
0040a8a3 7504            jne     image00400000+0xa8a9 (0040a8a9)
0040a8a5 8802            mov     byte ptr [edx],al
0040a8a7 ebe2            jmp     image00400000+0xa88b (0040a88b)
0040a8a9 8bf2            mov     esi,edx
0040a8ab 2bf0            sub     esi,eax
0040a8ad 8a08            mov     cl,byte ptr [eax]
0040a8af 880c06          mov     byte ptr [esi+eax],cl
0040a8b2 40              inc     eax
0040a8b3 84c9            test    cl,cl
0040a8b5 7403            je      image00400000+0xa8ba (0040a8ba)
0040a8b7 4f              dec     edi
0040a8b8 75f3            jne     image00400000+0xa8ad (0040a8ad)
0040a8ba 85ff            test    edi,edi
0040a8bc 7511            jne     image00400000+0xa8cf (0040a8cf)
0040a8be c60200          mov     byte ptr [edx],0
0040a8c1 e86b95ffff      call    image00400000+0x3e31 (00403e31)
0040a8c6 6a22            push    22h
0040a8c8 59              pop     ecx
0040a8c9 8908            mov     dword ptr [eax],ecx
0040a8cb 8bf1            mov     esi,ecx
0040a8cd ebc6            jmp     image00400000+0xa895 (0040a895)
0040a8cf 33c0            xor     eax,eax
0040a8d1 5f              pop     edi
0040a8d2 5e              pop     esi
0040a8d3 5d              pop     ebp
0040a8d4 c3              ret
0040a8d5 cc              int     3
0040a8d6 cc              int     3
0040a8d7 cc              int     3
0040a8d8 cc              int     3
0040a8d9 cc              int     3
0040a8da cc              int     3
0040a8db cc              int     3
0040a8dc cc              int     3
0040a8dd cc              int     3
0040a8de cc              int     3
0040a8df cc              int     3
0040a8e0 8b542404        mov     edx,dword ptr [esp+4]
0040a8e4 8b4c2408        mov     ecx,dword ptr [esp+8]
0040a8e8 f7c203000000    test    edx,3
0040a8ee 753c            jne     image00400000+0xa92c (0040a92c)
0040a8f0 8b02            mov     eax,dword ptr [edx]
0040a8f2 3a01            cmp     al,byte ptr [ecx]
0040a8f4 752e            jne     image00400000+0xa924 (0040a924)
0040a8f6 0ac0            or      al,al
0040a8f8 7426            je      image00400000+0xa920 (0040a920)
0040a8fa 3a6101          cmp     ah,byte ptr [ecx+1]
0040a8fd 7525            jne     image00400000+0xa924 (0040a924)
0040a8ff 0ae4            or      ah,ah
0040a901 741d            je      image00400000+0xa920 (0040a920)
0040a903 c1e810          shr     eax,10h
0040a906 3a4102          cmp     al,byte ptr [ecx+2]
0040a909 7519            jne     image00400000+0xa924 (0040a924)
0040a90b 0ac0            or      al,al
0040a90d 7411            je      image00400000+0xa920 (0040a920)
0040a90f 3a6103          cmp     ah,byte ptr [ecx+3]
0040a912 7510            jne     image00400000+0xa924 (0040a924)
0040a914 83c104          add     ecx,4
0040a917 83c204          add     edx,4
0040a91a 0ae4            or      ah,ah
0040a91c 75d2            jne     image00400000+0xa8f0 (0040a8f0)
0040a91e 8bff            mov     edi,edi
0040a920 33c0            xor     eax,eax
0040a922 c3              ret
0040a923 90              nop
0040a924 1bc0            sbb     eax,eax
0040a926 d1e0            shl     eax,1
0040a928 83c001          add     eax,1
0040a92b c3              ret
0040a92c f7c201000000    test    edx,1
0040a932 7418            je      image00400000+0xa94c (0040a94c)
0040a934 8a02            mov     al,byte ptr [edx]
0040a936 83c201          add     edx,1
0040a939 3a01            cmp     al,byte ptr [ecx]
0040a93b 75e7            jne     image00400000+0xa924 (0040a924)
0040a93d 83c101          add     ecx,1
0040a940 0ac0            or      al,al
0040a942 74dc            je      image00400000+0xa920 (0040a920)
0040a944 f7c202000000    test    edx,2
0040a94a 74a4            je      image00400000+0xa8f0 (0040a8f0)
0040a94c 668b02          mov     ax,word ptr [edx]
0040a94f 83c202          add     edx,2
0040a952 3a01            cmp     al,byte ptr [ecx]
0040a954 75ce            jne     image00400000+0xa924 (0040a924)
0040a956 0ac0            or      al,al
0040a958 74c6            je      image00400000+0xa920 (0040a920)
0040a95a 3a6101          cmp     ah,byte ptr [ecx+1]
0040a95d 75c5            jne     image00400000+0xa924 (0040a924)
0040a95f 0ae4            or      ah,ah
0040a961 74bd            je      image00400000+0xa920 (0040a920)
0040a963 83c102          add     ecx,2
0040a966 eb88            jmp     image00400000+0xa8f0 (0040a8f0)
0040a968 cc              int     3
0040a969 cc              int     3
0040a96a cc              int     3
0040a96b cc              int     3
0040a96c cc              int     3
0040a96d cc              int     3
0040a96e cc              int     3
0040a96f cc              int     3
0040a970 55              push    ebp
0040a971 8bec            mov     ebp,esp
0040a973 56              push    esi
0040a974 33c0            xor     eax,eax
0040a976 50              push    eax
0040a977 50              push    eax
0040a978 50              push    eax
0040a979 50              push    eax
0040a97a 50              push    eax
0040a97b 50              push    eax
0040a97c 50              push    eax
0040a97d 50              push    eax
0040a97e 8b550c          mov     edx,dword ptr [ebp+0Ch]
0040a981 8d4900          lea     ecx,[ecx]
0040a984 8a02            mov     al,byte ptr [edx]
0040a986 0ac0            or      al,al
0040a988 7409            je      image00400000+0xa993 (0040a993)
0040a98a 83c201          add     edx,1
0040a98d 0fab0424        bts     dword ptr [esp],eax
0040a991 ebf1            jmp     image00400000+0xa984 (0040a984)
0040a993 8b7508          mov     esi,dword ptr [ebp+8]
0040a996 8bff            mov     edi,edi
0040a998 8a06            mov     al,byte ptr [esi]
0040a99a 0ac0            or      al,al
0040a99c 740c            je      image00400000+0xa9aa (0040a9aa)
0040a99e 83c601          add     esi,1
0040a9a1 0fa30424        bt      dword ptr [esp],eax
0040a9a5 73f1            jae     image00400000+0xa998 (0040a998)
0040a9a7 8d46ff          lea     eax,[esi-1]
0040a9aa 83c420          add     esp,20h
0040a9ad 5e              pop     esi
0040a9ae c9              leave
0040a9af c3              ret
0040a9b0 8bff            mov     edi,edi
0040a9b2 55              push    ebp
0040a9b3 8bec            mov     ebp,esp
0040a9b5 83ec10          sub     esp,10h
0040a9b8 ff7508          push    dword ptr [ebp+8]
0040a9bb 8d4df0          lea     ecx,[ebp-10h]
0040a9be e8087fffff      call    image00400000+0x28cb (004028cb)
0040a9c3 0fb6450c        movzx   eax,byte ptr [ebp+0Ch]
0040a9c7 8b4df4          mov     ecx,dword ptr [ebp-0Ch]
0040a9ca 8a5514          mov     dl,byte ptr [ebp+14h]
0040a9cd 8454011d        test    byte ptr [ecx+eax+1Dh],dl
0040a9d1 751e            jne     image00400000+0xa9f1 (0040a9f1)
0040a9d3 837d1000        cmp     dword ptr [ebp+10h],0
0040a9d7 7412            je      image00400000+0xa9eb (0040a9eb)
0040a9d9 8b4df0          mov     ecx,dword ptr [ebp-10h]
0040a9dc 8b89c8000000    mov     ecx,dword ptr [ecx+0C8h]
0040a9e2 0fb70441        movzx   eax,word ptr [ecx+eax*2]
0040a9e6 234510          and     eax,dword ptr [ebp+10h]
0040a9e9 eb02            jmp     image00400000+0xa9ed (0040a9ed)
0040a9eb 33c0            xor     eax,eax
0040a9ed 85c0            test    eax,eax
0040a9ef 7403            je      image00400000+0xa9f4 (0040a9f4)
0040a9f1 33c0            xor     eax,eax
0040a9f3 40              inc     eax
0040a9f4 807dfc00        cmp     byte ptr [ebp-4],0
0040a9f8 7407            je      image00400000+0xaa01 (0040aa01)
0040a9fa 8b4df8          mov     ecx,dword ptr [ebp-8]
0040a9fd 836170fd        and     dword ptr [ecx+70h],0FFFFFFFDh
0040aa01 c9              leave
0040aa02 c3              ret
0040aa03 8bff            mov     edi,edi
0040aa05 55              push    ebp
0040aa06 8bec            mov     ebp,esp
0040aa08 6a04            push    4
0040aa0a 6a00            push    0
0040aa0c ff7508          push    dword ptr [ebp+8]
0040aa0f 6a00            push    0
0040aa11 e89affffff      call    image00400000+0xa9b0 (0040a9b0)
0040aa16 83c410          add     esp,10h
0040aa19 5d              pop     ebp
0040aa1a c3              ret
0040aa1b cc              int     3
0040aa1c cc              int     3
0040aa1d cc              int     3
0040aa1e cc              int     3
0040aa1f cc              int     3
0040aa20 53              push    ebx
0040aa21 56              push    esi
0040aa22 57              push    edi
0040aa23 8b542410        mov     edx,dword ptr [esp+10h]
0040aa27 8b442414        mov     eax,dword ptr [esp+14h]
0040aa2b 8b4c2418        mov     ecx,dword ptr [esp+18h]
0040aa2f 55              push    ebp
0040aa30 52              push    edx
0040aa31 50              push    eax
0040aa32 51              push    ecx
0040aa33 51              push    ecx
0040aa34 68b0aa4000      push    offset image00400000+0xaab0 (0040aab0)
0040aa39 64ff3500000000  push    dword ptr fs:[0]
0040aa40 a104004100      mov     eax,dword ptr [image00400000+0x10004 (00410004)]
0040aa45 33c4            xor     eax,esp
0040aa47 89442408        mov     dword ptr [esp+8],eax
0040aa4b 64892500000000  mov     dword ptr fs:[0],esp
0040aa52 8b442430        mov     eax,dword ptr [esp+30h]
0040aa56 8b5808          mov     ebx,dword ptr [eax+8]
0040aa59 8b4c242c        mov     ecx,dword ptr [esp+2Ch]
0040aa5d 3319            xor     ebx,dword ptr [ecx]
0040aa5f 8b700c          mov     esi,dword ptr [eax+0Ch]
0040aa62 83fefe          cmp     esi,0FFFFFFFEh
0040aa65 743b            je      image00400000+0xaaa2 (0040aaa2)
0040aa67 8b542434        mov     edx,dword ptr [esp+34h]
0040aa6b 83fafe          cmp     edx,0FFFFFFFEh
0040aa6e 7404            je      image00400000+0xaa74 (0040aa74)
0040aa70 3bf2            cmp     esi,edx
0040aa72 762e            jbe     image00400000+0xaaa2 (0040aaa2)
0040aa74 8d3476          lea     esi,[esi+esi*2]
0040aa77 8d5cb310        lea     ebx,[ebx+esi*4+10h]
0040aa7b 8b0b            mov     ecx,dword ptr [ebx]
0040aa7d 89480c          mov     dword ptr [eax+0Ch],ecx
0040aa80 837b0400        cmp     dword ptr [ebx+4],0
0040aa84 75cc            jne     image00400000+0xaa52 (0040aa52)
0040aa86 6801010000      push    101h
0040aa8b 8b4308          mov     eax,dword ptr [ebx+8]
0040aa8e e8d2120000      call    image00400000+0xbd65 (0040bd65)
0040aa93 b901000000      mov     ecx,1
0040aa98 8b4308          mov     eax,dword ptr [ebx+8]
0040aa9b e8e4120000      call    image00400000+0xbd84 (0040bd84)
0040aaa0 ebb0            jmp     image00400000+0xaa52 (0040aa52)
0040aaa2 648f0500000000  pop     dword ptr fs:[0]
0040aaa9 83c418          add     esp,18h
0040aaac 5f              pop     edi
0040aaad 5e              pop     esi
0040aaae 5b              pop     ebx
0040aaaf c3              ret
0040aab0 8b4c2404        mov     ecx,dword ptr [esp+4]
0040aab4 f7410406000000  test    dword ptr [ecx+4],6
0040aabb b801000000      mov     eax,1
0040aac0 7433            je      image00400000+0xaaf5 (0040aaf5)
0040aac2 8b442408        mov     eax,dword ptr [esp+8]
0040aac6 8b4808          mov     ecx,dword ptr [eax+8]
0040aac9 33c8            xor     ecx,eax
0040aacb e82b7affff      call    image00400000+0x24fb (004024fb)
0040aad0 55              push    ebp
0040aad1 8b6818          mov     ebp,dword ptr [eax+18h]
0040aad4 ff700c          push    dword ptr [eax+0Ch]
0040aad7 ff7010          push    dword ptr [eax+10h]
0040aada ff7014          push    dword ptr [eax+14h]
0040aadd e83effffff      call    image00400000+0xaa20 (0040aa20)
0040aae2 83c40c          add     esp,0Ch
0040aae5 5d              pop     ebp
0040aae6 8b442408        mov     eax,dword ptr [esp+8]
0040aaea 8b542410        mov     edx,dword ptr [esp+10h]
0040aaee 8902            mov     dword ptr [edx],eax
0040aaf0 b803000000      mov     eax,3
0040aaf5 c3              ret
0040aaf6 55              push    ebp
0040aaf7 8b4c2408        mov     ecx,dword ptr [esp+8]
0040aafb 8b29            mov     ebp,dword ptr [ecx]
0040aafd ff711c          push    dword ptr [ecx+1Ch]
0040ab00 ff7118          push    dword ptr [ecx+18h]
0040ab03 ff7128          push    dword ptr [ecx+28h]
0040ab06 e815ffffff      call    image00400000+0xaa20 (0040aa20)
0040ab0b 83c40c          add     esp,0Ch
0040ab0e 5d              pop     ebp
0040ab0f c20400          ret     4
0040ab12 55              push    ebp
0040ab13 56              push    esi
0040ab14 57              push    edi
0040ab15 53              push    ebx
0040ab16 8bea            mov     ebp,edx
0040ab18 33c0            xor     eax,eax
0040ab1a 33db            xor     ebx,ebx
0040ab1c 33d2            xor     edx,edx
0040ab1e 33f6            xor     esi,esi
0040ab20 33ff            xor     edi,edi
0040ab22 ffd1            call    ecx
0040ab24 5b              pop     ebx
0040ab25 5f              pop     edi
0040ab26 5e              pop     esi
0040ab27 5d              pop     ebp
0040ab28 c3              ret
0040ab29 8bea            mov     ebp,edx
0040ab2b 8bf1            mov     esi,ecx
0040ab2d 8bc1            mov     eax,ecx
0040ab2f 6a01            push    1
0040ab31 e82f120000      call    image00400000+0xbd65 (0040bd65)
0040ab36 33c0            xor     eax,eax
0040ab38 33db            xor     ebx,ebx
0040ab3a 33c9            xor     ecx,ecx
0040ab3c 33d2            xor     edx,edx
0040ab3e 33ff            xor     edi,edi
0040ab40 ffe6            jmp     esi
0040ab42 55              push    ebp
0040ab43 8bec            mov     ebp,esp
0040ab45 53              push    ebx
0040ab46 56              push    esi
0040ab47 57              push    edi
0040ab48 6a00            push    0
0040ab4a 52              push    edx
0040ab4b 6856ab4000      push    offset image00400000+0xab56 (0040ab56)
0040ab50 51              push    ecx
0040ab51 e81c160000      call    image00400000+0xc172 (0040c172)
0040ab56 5f              pop     edi
0040ab57 5e              pop     esi
0040ab58 5b              pop     ebx
0040ab59 5d              pop     ebp
0040ab5a c3              ret
0040ab5b 55              push    ebp
0040ab5c 8b6c2408        mov     ebp,dword ptr [esp+8]
0040ab60 52              push    edx
0040ab61 51              push    ecx
0040ab62 ff742414        push    dword ptr [esp+14h]
0040ab66 e8b5feffff      call    image00400000+0xaa20 (0040aa20)
0040ab6b 83c40c          add     esp,0Ch
0040ab6e 5d              pop     ebp
0040ab6f c20800          ret     8
0040ab72 8bff            mov     edi,edi
0040ab74 55              push    ebp
0040ab75 8bec            mov     ebp,esp
0040ab77 8b4d08          mov     ecx,dword ptr [ebp+8]
0040ab7a 53              push    ebx
0040ab7b 33db            xor     ebx,ebx
0040ab7d 56              push    esi
0040ab7e 57              push    edi
0040ab7f 3bcb            cmp     ecx,ebx
0040ab81 7c5b            jl      image00400000+0xabde (0040abde)
0040ab83 3b0d8c2b4100    cmp     ecx,dword ptr [image00400000+0x12b8c (00412b8c)]
0040ab89 7353            jae     image00400000+0xabde (0040abde)
0040ab8b 8bc1            mov     eax,ecx
0040ab8d c1f805          sar     eax,5
0040ab90 8bf1            mov     esi,ecx
0040ab92 83e61f          and     esi,1Fh
0040ab95 8d3c85a02b4100  lea     edi,image00400000+0x12ba0 (00412ba0)[eax*4]
0040ab9c 8b07            mov     eax,dword ptr [edi]
0040ab9e c1e606          shl     esi,6
0040aba1 f644300401      test    byte ptr [eax+esi+4],1
0040aba6 7436            je      image00400000+0xabde (0040abde)
0040aba8 833c30ff        cmp     dword ptr [eax+esi],0FFFFFFFFh
0040abac 7430            je      image00400000+0xabde (0040abde)
0040abae 833d0000410001  cmp     dword ptr [image00400000+0x10000 (00410000)],1
0040abb5 751d            jne     image00400000+0xabd4 (0040abd4)
0040abb7 2bcb            sub     ecx,ebx
0040abb9 7410            je      image00400000+0xabcb (0040abcb)
0040abbb 49              dec     ecx
0040abbc 7408            je      image00400000+0xabc6 (0040abc6)
0040abbe 49              dec     ecx
0040abbf 7513            jne     image00400000+0xabd4 (0040abd4)
0040abc1 53              push    ebx
0040abc2 6af4            push    0FFFFFFF4h
0040abc4 eb08            jmp     image00400000+0xabce (0040abce)
0040abc6 53              push    ebx
0040abc7 6af5            push    0FFFFFFF5h
0040abc9 eb03            jmp     image00400000+0xabce (0040abce)
0040abcb 53              push    ebx
0040abcc 6af6            push    0FFFFFFF6h
0040abce ff157cd04000    call    dword ptr [image00400000+0xd07c (0040d07c)]
0040abd4 8b07            mov     eax,dword ptr [edi]
0040abd6 830c06ff        or      dword ptr [esi+eax],0FFFFFFFFh
0040abda 33c0            xor     eax,eax
0040abdc eb15            jmp     image00400000+0xabf3 (0040abf3)
0040abde e84e92ffff      call    image00400000+0x3e31 (00403e31)
0040abe3 c70009000000    mov     dword ptr [eax],9
0040abe9 e85692ffff      call    image00400000+0x3e44 (00403e44)
0040abee 8918            mov     dword ptr [eax],ebx
0040abf0 83c8ff          or      eax,0FFFFFFFFh
0040abf3 5f              pop     edi
0040abf4 5e              pop     esi
0040abf5 5b              pop     ebx
0040abf6 5d              pop     ebp
0040abf7 c3              ret
0040abf8 8bff            mov     edi,edi
0040abfa 55              push    ebp
0040abfb 8bec            mov     ebp,esp
0040abfd 8b4508          mov     eax,dword ptr [ebp+8]
0040ac00 83f8fe          cmp     eax,0FFFFFFFEh
0040ac03 7518            jne     image00400000+0xac1d (0040ac1d)
0040ac05 e83a92ffff      call    image00400000+0x3e44 (00403e44)
0040ac0a 832000          and     dword ptr [eax],0
0040ac0d e81f92ffff      call    image00400000+0x3e31 (00403e31)
0040ac12 c70009000000    mov     dword ptr [eax],9
0040ac18 83c8ff          or      eax,0FFFFFFFFh
0040ac1b 5d              pop     ebp
0040ac1c c3              ret
0040ac1d 85c0            test    eax,eax
0040ac1f 7808            js      image00400000+0xac29 (0040ac29)
0040ac21 3b058c2b4100    cmp     eax,dword ptr [image00400000+0x12b8c (00412b8c)]
0040ac27 721a            jb      image00400000+0xac43 (0040ac43)
0040ac29 e81692ffff      call    image00400000+0x3e44 (00403e44)
0040ac2e 832000          and     dword ptr [eax],0
0040ac31 e8fb91ffff      call    image00400000+0x3e31 (00403e31)
0040ac36 c70009000000    mov     dword ptr [eax],9
0040ac3c e89e91ffff      call    image00400000+0x3ddf (00403ddf)
0040ac41 ebd5            jmp     image00400000+0xac18 (0040ac18)
0040ac43 8bc8            mov     ecx,eax
0040ac45 c1f905          sar     ecx,5
0040ac48 8b0c8da02b4100  mov     ecx,dword ptr image00400000+0x12ba0 (00412ba0)[ecx*4]
0040ac4f 83e01f          and     eax,1Fh
0040ac52 c1e006          shl     eax,6
0040ac55 f644080401      test    byte ptr [eax+ecx+4],1
0040ac5a 74cd            je      image00400000+0xac29 (0040ac29)
0040ac5c 8b0408          mov     eax,dword ptr [eax+ecx]
0040ac5f 5d              pop     ebp
0040ac60 c3              ret
0040ac61 6a0c            push    0Ch
0040ac63 6890f04000      push    offset image00400000+0xf090 (0040f090)
0040ac68 e833cdffff      call    image00400000+0x79a0 (004079a0)
0040ac6d 8b7d08          mov     edi,dword ptr [ebp+8]
0040ac70 8bc7            mov     eax,edi
0040ac72 c1f805          sar     eax,5
0040ac75 8bf7            mov     esi,edi
0040ac77 83e61f          and     esi,1Fh
0040ac7a c1e606          shl     esi,6
0040ac7d 033485a02b4100  add     esi,dword ptr image00400000+0x12ba0 (00412ba0)[eax*4]
0040ac84 c745e401000000  mov     dword ptr [ebp-1Ch],1
0040ac8b 33db            xor     ebx,ebx
0040ac8d 395e08          cmp     dword ptr [esi+8],ebx
0040ac90 7535            jne     image00400000+0xacc7 (0040acc7)
0040ac92 6a0a            push    0Ah
0040ac94 e875e9ffff      call    image00400000+0x960e (0040960e)
0040ac99 59              pop     ecx
0040ac9a 895dfc          mov     dword ptr [ebp-4],ebx
0040ac9d 395e08          cmp     dword ptr [esi+8],ebx
0040aca0 7519            jne     image00400000+0xacbb (0040acbb)
0040aca2 68a00f0000      push    0FA0h
0040aca7 8d460c          lea     eax,[esi+0Ch]
0040acaa 50              push    eax
0040acab ff151cd14000    call    dword ptr [image00400000+0xd11c (0040d11c)]
0040acb1 85c0            test    eax,eax
0040acb3 7503            jne     image00400000+0xacb8 (0040acb8)
0040acb5 895de4          mov     dword ptr [ebp-1Ch],ebx
0040acb8 ff4608          inc     dword ptr [esi+8]
0040acbb c745fcfeffffff  mov     dword ptr [ebp-4],0FFFFFFFEh
0040acc2 e830000000      call    image00400000+0xacf7 (0040acf7)
0040acc7 395de4          cmp     dword ptr [ebp-1Ch],ebx
0040acca 741d            je      image00400000+0xace9 (0040ace9)
0040accc 8bc7            mov     eax,edi
0040acce c1f805          sar     eax,5
0040acd1 83e71f          and     edi,1Fh
0040acd4 c1e706          shl     edi,6
0040acd7 8b0485a02b4100  mov     eax,dword ptr image00400000+0x12ba0 (00412ba0)[eax*4]
0040acde 8d44380c        lea     eax,[eax+edi+0Ch]
0040ace2 50              push    eax
0040ace3 ff153cd14000    call    dword ptr [image00400000+0xd13c (0040d13c)]
0040ace9 8b45e4          mov     eax,dword ptr [ebp-1Ch]
0040acec e8f4ccffff      call    image00400000+0x79e5 (004079e5)
0040acf1 c3              ret
0040acf2 33db            xor     ebx,ebx
0040acf4 8b7d08          mov     edi,dword ptr [ebp+8]
0040acf7 6a0a            push    0Ah
0040acf9 e837e8ffff      call    image00400000+0x9535 (00409535)
0040acfe 59              pop     ecx
0040acff c3              ret
0040ad00 8bff            mov     edi,edi
0040ad02 55              push    ebp
0040ad03 8bec            mov     ebp,esp
0040ad05 8b4508          mov     eax,dword ptr [ebp+8]
0040ad08 8bc8            mov     ecx,eax
0040ad0a 83e01f          and     eax,1Fh
0040ad0d c1f905          sar     ecx,5
0040ad10 8b0c8da02b4100  mov     ecx,dword ptr image00400000+0x12ba0 (00412ba0)[ecx*4]
0040ad17 c1e006          shl     eax,6
0040ad1a 8d44010c        lea     eax,[ecx+eax+0Ch]
0040ad1e 50              push    eax
0040ad1f ff1540d14000    call    dword ptr [image00400000+0xd140 (0040d140)]
0040ad25 5d              pop     ebp
0040ad26 c3              ret
0040ad27 8bff            mov     edi,edi
0040ad29 55              push    ebp
0040ad2a 8bec            mov     ebp,esp
0040ad2c 51              push    ecx
0040ad2d 833dd00e4100fe  cmp     dword ptr [image00400000+0x10ed0 (00410ed0)],0FFFFFFFEh
0040ad34 7505            jne     image00400000+0xad3b (0040ad3b)
0040ad36 e84c100000      call    image00400000+0xbd87 (0040bd87)
0040ad3b a1d00e4100      mov     eax,dword ptr [image00400000+0x10ed0 (00410ed0)]
0040ad40 83f8ff          cmp     eax,0FFFFFFFFh
0040ad43 7507            jne     image00400000+0xad4c (0040ad4c)
0040ad45 b8ffff0000      mov     eax,0FFFFh
0040ad4a c9              leave
0040ad4b c3              ret
0040ad4c 6a00            push    0
0040ad4e 8d4dfc          lea     ecx,[ebp-4]
0040ad51 51              push    ecx
0040ad52 6a01            push    1
0040ad54 8d4d08          lea     ecx,[ebp+8]
0040ad57 51              push    ecx
0040ad58 50              push    eax
0040ad59 ff1540d04000    call    dword ptr [image00400000+0xd040 (0040d040)]
0040ad5f 85c0            test    eax,eax
0040ad61 74e2            je      image00400000+0xad45 (0040ad45)
0040ad63 668b4508        mov     ax,word ptr [ebp+8]
0040ad67 c9              leave
0040ad68 c3              ret
0040ad69 6a10            push    10h
0040ad6b 68b0f04000      push    offset image00400000+0xf0b0 (0040f0b0)
0040ad70 e82bccffff      call    image00400000+0x79a0 (004079a0)
0040ad75 33db            xor     ebx,ebx
0040ad77 895de4          mov     dword ptr [ebp-1Ch],ebx
0040ad7a 6a01            push    1
0040ad7c e88de8ffff      call    image00400000+0x960e (0040960e)
0040ad81 59              pop     ecx
0040ad82 895dfc          mov     dword ptr [ebp-4],ebx
0040ad85 6a03            push    3
0040ad87 5f              pop     edi
0040ad88 897de0          mov     dword ptr [ebp-20h],edi
0040ad8b 3b3d802b4100    cmp     edi,dword ptr [image00400000+0x12b80 (00412b80)]
0040ad91 7d54            jge     image00400000+0xade7 (0040ade7)
0040ad93 8bf7            mov     esi,edi
0040ad95 a1701b4100      mov     eax,dword ptr [image00400000+0x11b70 (00411b70)]
0040ad9a 391cb0          cmp     dword ptr [eax+esi*4],ebx
0040ad9d 7445            je      image00400000+0xade4 (0040ade4)
0040ad9f 8b04b0          mov     eax,dword ptr [eax+esi*4]
0040ada2 f6400c83        test    byte ptr [eax+0Ch],83h
0040ada6 740f            je      image00400000+0xadb7 (0040adb7)
0040ada8 50              push    eax
0040ada9 e87c100000      call    image00400000+0xbe2a (0040be2a)
0040adae 59              pop     ecx
0040adaf 83f8ff          cmp     eax,0FFFFFFFFh
0040adb2 7403            je      image00400000+0xadb7 (0040adb7)
0040adb4 ff45e4          inc     dword ptr [ebp-1Ch]
0040adb7 83ff14          cmp     edi,14h
0040adba 7c28            jl      image00400000+0xade4 (0040ade4)
0040adbc a1701b4100      mov     eax,dword ptr [image00400000+0x11b70 (00411b70)]
0040adc1 8b04b0          mov     eax,dword ptr [eax+esi*4]
0040adc4 83c020          add     eax,20h
0040adc7 50              push    eax
0040adc8 ff1524d14000    call    dword ptr [image00400000+0xd124 (0040d124)]
0040adce a1701b4100      mov     eax,dword ptr [image00400000+0x11b70 (00411b70)]
0040add3 ff34b0          push    dword ptr [eax+esi*4]
0040add6 e84378ffff      call    image00400000+0x261e (0040261e)
0040addb 59              pop     ecx
0040addc a1701b4100      mov     eax,dword ptr [image00400000+0x11b70 (00411b70)]
0040ade1 891cb0          mov     dword ptr [eax+esi*4],ebx
0040ade4 47              inc     edi
0040ade5 eba1            jmp     image00400000+0xad88 (0040ad88)
0040ade7 c745fcfeffffff  mov     dword ptr [ebp-4],0FFFFFFFEh
0040adee e809000000      call    image00400000+0xadfc (0040adfc)
0040adf3 8b45e4          mov     eax,dword ptr [ebp-1Ch]
0040adf6 e8eacbffff      call    image00400000+0x79e5 (004079e5)
0040adfb c3              ret
0040adfc 6a01            push    1
0040adfe e832e7ffff      call    image00400000+0x9535 (00409535)
0040ae03 59              pop     ecx
0040ae04 c3              ret
0040ae05 8bff            mov     edi,edi
0040ae07 55              push    ebp
0040ae08 8bec            mov     ebp,esp
0040ae0a 53              push    ebx
0040ae0b 56              push    esi
0040ae0c 8b7508          mov     esi,dword ptr [ebp+8]
0040ae0f 8b460c          mov     eax,dword ptr [esi+0Ch]
0040ae12 8bc8            mov     ecx,eax
0040ae14 80e103          and     cl,3
0040ae17 33db            xor     ebx,ebx
0040ae19 80f902          cmp     cl,2
0040ae1c 7540            jne     image00400000+0xae5e (0040ae5e)
0040ae1e a908010000      test    eax,108h
0040ae23 7439            je      image00400000+0xae5e (0040ae5e)
0040ae25 8b4608          mov     eax,dword ptr [esi+8]
0040ae28 57              push    edi
0040ae29 8b3e            mov     edi,dword ptr [esi]
0040ae2b 2bf8            sub     edi,eax
0040ae2d 85ff            test    edi,edi
0040ae2f 7e2c            jle     image00400000+0xae5d (0040ae5d)
0040ae31 57              push    edi
0040ae32 50              push    eax
0040ae33 56              push    esi
0040ae34 e88dd9ffff      call    image00400000+0x87c6 (004087c6)
0040ae39 59              pop     ecx
0040ae3a 50              push    eax
0040ae3b e85ed6ffff      call    image00400000+0x849e (0040849e)
0040ae40 83c40c          add     esp,0Ch
0040ae43 3bc7            cmp     eax,edi
0040ae45 750f            jne     image00400000+0xae56 (0040ae56)
0040ae47 8b460c          mov     eax,dword ptr [esi+0Ch]
0040ae4a 84c0            test    al,al
0040ae4c 790f            jns     image00400000+0xae5d (0040ae5d)
0040ae4e 83e0fd          and     eax,0FFFFFFFDh
0040ae51 89460c          mov     dword ptr [esi+0Ch],eax
0040ae54 eb07            jmp     image00400000+0xae5d (0040ae5d)
0040ae56 834e0c20        or      dword ptr [esi+0Ch],20h
0040ae5a 83cbff          or      ebx,0FFFFFFFFh
0040ae5d 5f              pop     edi
0040ae5e 8b4608          mov     eax,dword ptr [esi+8]
0040ae61 83660400        and     dword ptr [esi+4],0
0040ae65 8906            mov     dword ptr [esi],eax
0040ae67 5e              pop     esi
0040ae68 8bc3            mov     eax,ebx
0040ae6a 5b              pop     ebx
0040ae6b 5d              pop     ebp
0040ae6c c3              ret
0040ae6d 8bff            mov     edi,edi
0040ae6f 55              push    ebp
0040ae70 8bec            mov     ebp,esp
0040ae72 56              push    esi
0040ae73 8b7508          mov     esi,dword ptr [ebp+8]
0040ae76 85f6            test    esi,esi
0040ae78 7509            jne     image00400000+0xae83 (0040ae83)
0040ae7a 56              push    esi
0040ae7b e835000000      call    image00400000+0xaeb5 (0040aeb5)
0040ae80 59              pop     ecx
0040ae81 eb2f            jmp     image00400000+0xaeb2 (0040aeb2)
0040ae83 56              push    esi
0040ae84 e87cffffff      call    image00400000+0xae05 (0040ae05)
0040ae89 59              pop     ecx
0040ae8a 85c0            test    eax,eax
0040ae8c 7405            je      image00400000+0xae93 (0040ae93)
0040ae8e 83c8ff          or      eax,0FFFFFFFFh
0040ae91 eb1f            jmp     image00400000+0xaeb2 (0040aeb2)
0040ae93 f7460c00400000  test    dword ptr [esi+0Ch],4000h
0040ae9a 7414            je      image00400000+0xaeb0 (0040aeb0)
0040ae9c 56              push    esi
0040ae9d e824d9ffff      call    image00400000+0x87c6 (004087c6)
0040aea2 50              push    eax
0040aea3 e8f60f0000      call    image00400000+0xbe9e (0040be9e)
0040aea8 59              pop     ecx
0040aea9 f7d8            neg     eax
0040aeab 59              pop     ecx
0040aeac 1bc0            sbb     eax,eax
0040aeae eb02            jmp     image00400000+0xaeb2 (0040aeb2)
0040aeb0 33c0            xor     eax,eax
0040aeb2 5e              pop     esi
0040aeb3 5d              pop     ebp
0040aeb4 c3              ret
0040aeb5 6a14            push    14h
0040aeb7 68d0f04000      push    offset image00400000+0xf0d0 (0040f0d0)
0040aebc e8dfcaffff      call    image00400000+0x79a0 (004079a0)
0040aec1 33ff            xor     edi,edi
0040aec3 897de4          mov     dword ptr [ebp-1Ch],edi
0040aec6 897ddc          mov     dword ptr [ebp-24h],edi
0040aec9 6a01            push    1
0040aecb e83ee7ffff      call    image00400000+0x960e (0040960e)
0040aed0 59              pop     ecx
0040aed1 897dfc          mov     dword ptr [ebp-4],edi
0040aed4 33f6            xor     esi,esi
0040aed6 8975e0          mov     dword ptr [ebp-20h],esi
0040aed9 3b35802b4100    cmp     esi,dword ptr [image00400000+0x12b80 (00412b80)]
0040aedf 0f8d83000000    jge     image00400000+0xaf68 (0040af68)
0040aee5 a1701b4100      mov     eax,dword ptr [image00400000+0x11b70 (00411b70)]
0040aeea 8d04b0          lea     eax,[eax+esi*4]
0040aeed 3938            cmp     dword ptr [eax],edi
0040aeef 745e            je      image00400000+0xaf4f (0040af4f)
0040aef1 8b00            mov     eax,dword ptr [eax]
0040aef3 f6400c83        test    byte ptr [eax+0Ch],83h
0040aef7 7456            je      image00400000+0xaf4f (0040af4f)
0040aef9 50              push    eax
0040aefa 56              push    esi
0040aefb e829d8ffff      call    image00400000+0x8729 (00408729)
0040af00 59              pop     ecx
0040af01 59              pop     ecx
0040af02 33d2            xor     edx,edx
0040af04 42              inc     edx
0040af05 8955fc          mov     dword ptr [ebp-4],edx
0040af08 a1701b4100      mov     eax,dword ptr [image00400000+0x11b70 (00411b70)]
0040af0d 8b04b0          mov     eax,dword ptr [eax+esi*4]
0040af10 8b480c          mov     ecx,dword ptr [eax+0Ch]
0040af13 f6c183          test    cl,83h
0040af16 742f            je      image00400000+0xaf47 (0040af47)
0040af18 395508          cmp     dword ptr [ebp+8],edx
0040af1b 7511            jne     image00400000+0xaf2e (0040af2e)
0040af1d 50              push    eax
0040af1e e84affffff      call    image00400000+0xae6d (0040ae6d)
0040af23 59              pop     ecx
0040af24 83f8ff          cmp     eax,0FFFFFFFFh
0040af27 741e            je      image00400000+0xaf47 (0040af47)
0040af29 ff45e4          inc     dword ptr [ebp-1Ch]
0040af2c eb19            jmp     image00400000+0xaf47 (0040af47)
0040af2e 397d08          cmp     dword ptr [ebp+8],edi
0040af31 7514            jne     image00400000+0xaf47 (0040af47)
0040af33 f6c102          test    cl,2
0040af36 740f            je      image00400000+0xaf47 (0040af47)
0040af38 50              push    eax
0040af39 e82fffffff      call    image00400000+0xae6d (0040ae6d)
0040af3e 59              pop     ecx
0040af3f 83f8ff          cmp     eax,0FFFFFFFFh
0040af42 7503            jne     image00400000+0xaf47 (0040af47)
0040af44 0945dc          or      dword ptr [ebp-24h],eax
0040af47 897dfc          mov     dword ptr [ebp-4],edi
0040af4a e808000000      call    image00400000+0xaf57 (0040af57)
0040af4f 46              inc     esi
0040af50 eb84            jmp     image00400000+0xaed6 (0040aed6)
0040af52 33ff            xor     edi,edi
0040af54 8b75e0          mov     esi,dword ptr [ebp-20h]
0040af57 a1701b4100      mov     eax,dword ptr [image00400000+0x11b70 (00411b70)]
0040af5c ff34b0          push    dword ptr [eax+esi*4]
0040af5f 56              push    esi
0040af60 e832d8ffff      call    image00400000+0x8797 (00408797)
0040af65 59              pop     ecx
0040af66 59              pop     ecx
0040af67 c3              ret
0040af68 c745fcfeffffff  mov     dword ptr [ebp-4],0FFFFFFFEh
0040af6f e812000000      call    image00400000+0xaf86 (0040af86)
0040af74 837d0801        cmp     dword ptr [ebp+8],1
0040af78 8b45e4          mov     eax,dword ptr [ebp-1Ch]
0040af7b 7403            je      image00400000+0xaf80 (0040af80)
0040af7d 8b45dc          mov     eax,dword ptr [ebp-24h]
0040af80 e860caffff      call    image00400000+0x79e5 (004079e5)
0040af85 c3              ret
0040af86 6a01            push    1
0040af88 e8a8e5ffff      call    image00400000+0x9535 (00409535)
0040af8d 59              pop     ecx
0040af8e c3              ret
0040af8f 6a01            push    1
0040af91 e81fffffff      call    image00400000+0xaeb5 (0040aeb5)
0040af96 59              pop     ecx
0040af97 c3              ret
0040af98 6a02            push    2
0040af9a e812a3ffff      call    image00400000+0x52b1 (004052b1)
0040af9f 59              pop     ecx
0040afa0 c3              ret
0040afa1 8bff            mov     edi,edi
0040afa3 55              push    ebp
0040afa4 8bec            mov     ebp,esp
0040afa6 8b4d08          mov     ecx,dword ptr [ebp+8]
0040afa9 85c9            test    ecx,ecx
0040afab 741b            je      image00400000+0xafc8 (0040afc8)
0040afad 6ae0            push    0FFFFFFE0h
0040afaf 33d2            xor     edx,edx
0040afb1 58              pop     eax
0040afb2 f7f1            div     eax,ecx
0040afb4 3b450c          cmp     eax,dword ptr [ebp+0Ch]
0040afb7 730f            jae     image00400000+0xafc8 (0040afc8)
0040afb9 e8738effff      call    image00400000+0x3e31 (00403e31)
0040afbe c7000c000000    mov     dword ptr [eax],0Ch
0040afc4 33c0            xor     eax,eax
0040afc6 5d              pop     ebp
0040afc7 c3              ret
0040afc8 0faf4d0c        imul    ecx,dword ptr [ebp+0Ch]
0040afcc 56              push    esi
0040afcd 8bf1            mov     esi,ecx
0040afcf 85f6            test    esi,esi
0040afd1 7501            jne     image00400000+0xafd4 (0040afd4)
0040afd3 46              inc     esi
0040afd4 33c0            xor     eax,eax
0040afd6 83fee0          cmp     esi,0FFFFFFE0h
0040afd9 7713            ja      image00400000+0xafee (0040afee)
0040afdb 56              push    esi
0040afdc 6a08            push    8
0040afde ff3518124100    push    dword ptr [image00400000+0x11218 (00411218)]
0040afe4 ff158cd04000    call    dword ptr [image00400000+0xd08c (0040d08c)]
0040afea 85c0            test    eax,eax
0040afec 7532            jne     image00400000+0xb020 (0040b020)
0040afee 833d7c18410000  cmp     dword ptr [image00400000+0x1187c (0041187c)],0
0040aff5 741c            je      image00400000+0xb013 (0040b013)
0040aff7 56              push    esi
0040aff8 e8efa4ffff      call    image00400000+0x54ec (004054ec)
0040affd 59              pop     ecx
0040affe 85c0            test    eax,eax
0040b000 75d2            jne     image00400000+0xafd4 (0040afd4)
0040b002 8b4510          mov     eax,dword ptr [ebp+10h]
0040b005 85c0            test    eax,eax
0040b007 7406            je      image00400000+0xb00f (0040b00f)
0040b009 c7000c000000    mov     dword ptr [eax],0Ch
0040b00f 33c0            xor     eax,eax
0040b011 eb0d            jmp     image00400000+0xb020 (0040b020)
0040b013 8b4d10          mov     ecx,dword ptr [ebp+10h]
0040b016 85c9            test    ecx,ecx
0040b018 7406            je      image00400000+0xb020 (0040b020)
0040b01a c7010c000000    mov     dword ptr [ecx],0Ch
0040b020 5e              pop     esi
0040b021 5d              pop     ebp
0040b022 c3              ret
0040b023 8bff            mov     edi,edi
0040b025 55              push    ebp
0040b026 8bec            mov     ebp,esp
0040b028 837d0800        cmp     dword ptr [ebp+8],0
0040b02c 750b            jne     image00400000+0xb039 (0040b039)
0040b02e ff750c          push    dword ptr [ebp+0Ch]
0040b031 e82276ffff      call    image00400000+0x2658 (00402658)
0040b036 59              pop     ecx
0040b037 5d              pop     ebp
0040b038 c3              ret
0040b039 56              push    esi
0040b03a 8b750c          mov     esi,dword ptr [ebp+0Ch]
0040b03d 85f6            test    esi,esi
0040b03f 750d            jne     image00400000+0xb04e (0040b04e)
0040b041 ff7508          push    dword ptr [ebp+8]
0040b044 e8d575ffff      call    image00400000+0x261e (0040261e)
0040b049 59              pop     ecx
0040b04a 33c0            xor     eax,eax
0040b04c eb4d            jmp     image00400000+0xb09b (0040b09b)
0040b04e 57              push    edi
0040b04f eb30            jmp     image00400000+0xb081 (0040b081)
0040b051 85f6            test    esi,esi
0040b053 7501            jne     image00400000+0xb056 (0040b056)
0040b055 46              inc     esi
0040b056 56              push    esi
0040b057 ff7508          push    dword ptr [ebp+8]
0040b05a 6a00            push    0
0040b05c ff3518124100    push    dword ptr [image00400000+0x11218 (00411218)]
0040b062 ff153cd04000    call    dword ptr [image00400000+0xd03c (0040d03c)]
0040b068 8bf8            mov     edi,eax
0040b06a 85ff            test    edi,edi
0040b06c 755e            jne     image00400000+0xb0cc (0040b0cc)
0040b06e 39057c184100    cmp     dword ptr [image00400000+0x1187c (0041187c)],eax
0040b074 7440            je      image00400000+0xb0b6 (0040b0b6)
0040b076 56              push    esi
0040b077 e870a4ffff      call    image00400000+0x54ec (004054ec)
0040b07c 59              pop     ecx
0040b07d 85c0            test    eax,eax
0040b07f 741d            je      image00400000+0xb09e (0040b09e)
0040b081 83fee0          cmp     esi,0FFFFFFE0h
0040b084 76cb            jbe     image00400000+0xb051 (0040b051)
0040b086 56              push    esi
0040b087 e860a4ffff      call    image00400000+0x54ec (004054ec)
0040b08c 59              pop     ecx
0040b08d e89f8dffff      call    image00400000+0x3e31 (00403e31)
0040b092 c7000c000000    mov     dword ptr [eax],0Ch
0040b098 33c0            xor     eax,eax
0040b09a 5f              pop     edi
0040b09b 5e              pop     esi
0040b09c 5d              pop     ebp
0040b09d c3              ret
0040b09e e88e8dffff      call    image00400000+0x3e31 (00403e31)
0040b0a3 8bf0            mov     esi,eax
0040b0a5 ff1584d04000    call    dword ptr [image00400000+0xd084 (0040d084)]
0040b0ab 50              push    eax
0040b0ac e83e8dffff      call    image00400000+0x3def (00403def)
0040b0b1 59              pop     ecx
0040b0b2 8906            mov     dword ptr [esi],eax
0040b0b4 ebe2            jmp     image00400000+0xb098 (0040b098)
0040b0b6 e8768dffff      call    image00400000+0x3e31 (00403e31)
0040b0bb 8bf0            mov     esi,eax
0040b0bd ff1584d04000    call    dword ptr [image00400000+0xd084 (0040d084)]
0040b0c3 50              push    eax
0040b0c4 e8268dffff      call    image00400000+0x3def (00403def)
0040b0c9 59              pop     ecx
0040b0ca 8906            mov     dword ptr [esi],eax
0040b0cc 8bc7            mov     eax,edi
0040b0ce ebca            jmp     image00400000+0xb09a (0040b09a)
0040b0d0 8bff            mov     edi,edi
0040b0d2 55              push    ebp
0040b0d3 8bec            mov     ebp,esp
0040b0d5 8b4d0c          mov     ecx,dword ptr [ebp+0Ch]
0040b0d8 53              push    ebx
0040b0d9 33db            xor     ebx,ebx
0040b0db 3bcb            cmp     ecx,ebx
0040b0dd 761b            jbe     image00400000+0xb0fa (0040b0fa)
0040b0df 6ae0            push    0FFFFFFE0h
0040b0e1 33d2            xor     edx,edx
0040b0e3 58              pop     eax
0040b0e4 f7f1            div     eax,ecx
0040b0e6 3b4510          cmp     eax,dword ptr [ebp+10h]
0040b0e9 730f            jae     image00400000+0xb0fa (0040b0fa)
0040b0eb e8418dffff      call    image00400000+0x3e31 (00403e31)
0040b0f0 c7000c000000    mov     dword ptr [eax],0Ch
0040b0f6 33c0            xor     eax,eax
0040b0f8 eb41            jmp     image00400000+0xb13b (0040b13b)
0040b0fa 0faf4d10        imul    ecx,dword ptr [ebp+10h]
0040b0fe 56              push    esi
0040b0ff 57              push    edi
0040b100 8bf1            mov     esi,ecx
0040b102 395d08          cmp     dword ptr [ebp+8],ebx
0040b105 740b            je      image00400000+0xb112 (0040b112)
0040b107 ff7508          push    dword ptr [ebp+8]
0040b10a e894090000      call    image00400000+0xbaa3 (0040baa3)
0040b10f 59              pop     ecx
0040b110 8bd8            mov     ebx,eax
0040b112 56              push    esi
0040b113 ff7508          push    dword ptr [ebp+8]
0040b116 e808ffffff      call    image00400000+0xb023 (0040b023)
0040b11b 8bf8            mov     edi,eax
0040b11d 59              pop     ecx
0040b11e 59              pop     ecx
0040b11f 85ff            test    edi,edi
0040b121 7414            je      image00400000+0xb137 (0040b137)
0040b123 3bde            cmp     ebx,esi
0040b125 7310            jae     image00400000+0xb137 (0040b137)
0040b127 2bf3            sub     esi,ebx
0040b129 56              push    esi
0040b12a 6a00            push    0
0040b12c 03df            add     ebx,edi
0040b12e 53              push    ebx
0040b12f e88cdaffff      call    image00400000+0x8bc0 (00408bc0)
0040b134 83c40c          add     esp,0Ch
0040b137 8bc7            mov     eax,edi
0040b139 5f              pop     edi
0040b13a 5e              pop     esi
0040b13b 5b              pop     ebx
0040b13c 5d              pop     ebp
0040b13d c3              ret
0040b13e 660fefc0        pxor    xmm0,xmm0
0040b142 51              push    ecx
0040b143 53              push    ebx
0040b144 8bc1            mov     eax,ecx
0040b146 83e00f          and     eax,0Fh
0040b149 85c0            test    eax,eax
0040b14b 757f            jne     image00400000+0xb1cc (0040b1cc)
0040b14d 8bc2            mov     eax,edx
0040b14f 83e27f          and     edx,7Fh
0040b152 c1e807          shr     eax,7
0040b155 7437            je      image00400000+0xb18e (0040b18e)
0040b157 8da42400000000  lea     esp,[esp]
0040b15e 660f7f01        movdqa  xmmword ptr [ecx],xmm0
0040b162 660f7f4110      movdqa  xmmword ptr [ecx+10h],xmm0
0040b167 660f7f4120      movdqa  xmmword ptr [ecx+20h],xmm0
0040b16c 660f7f4130      movdqa  xmmword ptr [ecx+30h],xmm0
0040b171 660f7f4140      movdqa  xmmword ptr [ecx+40h],xmm0
0040b176 660f7f4150      movdqa  xmmword ptr [ecx+50h],xmm0
0040b17b 660f7f4160      movdqa  xmmword ptr [ecx+60h],xmm0
0040b180 660f7f4170      movdqa  xmmword ptr [ecx+70h],xmm0
0040b185 8d8980000000    lea     ecx,[ecx+80h]
0040b18b 48              dec     eax
0040b18c 75d0            jne     image00400000+0xb15e (0040b15e)
0040b18e 85d2            test    edx,edx
0040b190 7437            je      image00400000+0xb1c9 (0040b1c9)
0040b192 8bc2            mov     eax,edx
0040b194 c1e804          shr     eax,4
0040b197 740f            je      image00400000+0xb1a8 (0040b1a8)
0040b199 eb03            jmp     image00400000+0xb19e (0040b19e)
0040b19b 8d4900          lea     ecx,[ecx]
0040b19e 660f7f01        movdqa  xmmword ptr [ecx],xmm0
0040b1a2 8d4910          lea     ecx,[ecx+10h]
0040b1a5 48              dec     eax
0040b1a6 75f6            jne     image00400000+0xb19e (0040b19e)
0040b1a8 83e20f          and     edx,0Fh
0040b1ab 741c            je      image00400000+0xb1c9 (0040b1c9)
0040b1ad 8bc2            mov     eax,edx
0040b1af 33db            xor     ebx,ebx
0040b1b1 c1ea02          shr     edx,2
0040b1b4 7408            je      image00400000+0xb1be (0040b1be)
0040b1b6 8919            mov     dword ptr [ecx],ebx
0040b1b8 8d4904          lea     ecx,[ecx+4]
0040b1bb 4a              dec     edx
0040b1bc 75f8            jne     image00400000+0xb1b6 (0040b1b6)
0040b1be 83e003          and     eax,3
0040b1c1 7406            je      image00400000+0xb1c9 (0040b1c9)
0040b1c3 8819            mov     byte ptr [ecx],bl
0040b1c5 41              inc     ecx
0040b1c6 48              dec     eax
0040b1c7 75fa            jne     image00400000+0xb1c3 (0040b1c3)
0040b1c9 5b              pop     ebx
0040b1ca 58              pop     eax
0040b1cb c3              ret
0040b1cc 8bd8            mov     ebx,eax
0040b1ce f7db            neg     ebx
0040b1d0 83c310          add     ebx,10h
0040b1d3 2bd3            sub     edx,ebx
0040b1d5 33c0            xor     eax,eax
0040b1d7 52              push    edx
0040b1d8 8bd3            mov     edx,ebx
0040b1da 83e203          and     edx,3
0040b1dd 7406            je      image00400000+0xb1e5 (0040b1e5)
0040b1df 8801            mov     byte ptr [ecx],al
0040b1e1 41              inc     ecx
0040b1e2 4a              dec     edx
0040b1e3 75fa            jne     image00400000+0xb1df (0040b1df)
0040b1e5 c1eb02          shr     ebx,2
0040b1e8 7408            je      image00400000+0xb1f2 (0040b1f2)
0040b1ea 8901            mov     dword ptr [ecx],eax
0040b1ec 8d4904          lea     ecx,[ecx+4]
0040b1ef 4b              dec     ebx
0040b1f0 75f8            jne     image00400000+0xb1ea (0040b1ea)
0040b1f2 5a              pop     edx
0040b1f3 e955ffffff      jmp     image00400000+0xb14d (0040b14d)
0040b1f8 6a0a            push    0Ah
0040b1fa ff1544d04000    call    dword ptr [image00400000+0xd044 (0040d044)]
0040b200 a36c1b4100      mov     dword ptr [image00400000+0x11b6c (00411b6c)],eax
0040b205 33c0            xor     eax,eax
0040b207 c3              ret
0040b208 57              push    edi
0040b209 8bc6            mov     eax,esi
0040b20b 83e00f          and     eax,0Fh
0040b20e 85c0            test    eax,eax
0040b210 0f85c1000000    jne     image00400000+0xb2d7 (0040b2d7)
0040b216 8bd1            mov     edx,ecx
0040b218 83e17f          and     ecx,7Fh
0040b21b c1ea07          shr     edx,7
0040b21e 7465            je      image00400000+0xb285 (0040b285)
0040b220 eb06            jmp     image00400000+0xb228 (0040b228)
0040b222 8d9b00000000    lea     ebx,[ebx]
0040b228 660f6f06        movdqa  xmm0,xmmword ptr [esi]
0040b22c 660f6f4e10      movdqa  xmm1,xmmword ptr [esi+10h]
0040b231 660f6f5620      movdqa  xmm2,xmmword ptr [esi+20h]
0040b236 660f6f5e30      movdqa  xmm3,xmmword ptr [esi+30h]
0040b23b 660f7f07        movdqa  xmmword ptr [edi],xmm0
0040b23f 660f7f4f10      movdqa  xmmword ptr [edi+10h],xmm1
0040b244 660f7f5720      movdqa  xmmword ptr [edi+20h],xmm2
0040b249 660f7f5f30      movdqa  xmmword ptr [edi+30h],xmm3
0040b24e 660f6f6640      movdqa  xmm4,xmmword ptr [esi+40h]
0040b253 660f6f6e50      movdqa  xmm5,xmmword ptr [esi+50h]
0040b258 660f6f7660      movdqa  xmm6,xmmword ptr [esi+60h]
0040b25d 660f6f7e70      movdqa  xmm7,xmmword ptr [esi+70h]
0040b262 660f7f6740      movdqa  xmmword ptr [edi+40h],xmm4
0040b267 660f7f6f50      movdqa  xmmword ptr [edi+50h],xmm5
0040b26c 660f7f7760      movdqa  xmmword ptr [edi+60h],xmm6
0040b271 660f7f7f70      movdqa  xmmword ptr [edi+70h],xmm7
0040b276 8db680000000    lea     esi,[esi+80h]
0040b27c 8dbf80000000    lea     edi,[edi+80h]
0040b282 4a              dec     edx
0040b283 75a3            jne     image00400000+0xb228 (0040b228)
0040b285 85c9            test    ecx,ecx
0040b287 7449            je      image00400000+0xb2d2 (0040b2d2)
0040b289 8bd1            mov     edx,ecx
0040b28b c1ea04          shr     edx,4
0040b28e 85d2            test    edx,edx
0040b290 7417            je      image00400000+0xb2a9 (0040b2a9)
0040b292 8d9b00000000    lea     ebx,[ebx]
0040b298 660f6f06        movdqa  xmm0,xmmword ptr [esi]
0040b29c 660f7f07        movdqa  xmmword ptr [edi],xmm0
0040b2a0 8d7610          lea     esi,[esi+10h]
0040b2a3 8d7f10          lea     edi,[edi+10h]
0040b2a6 4a              dec     edx
0040b2a7 75ef            jne     image00400000+0xb298 (0040b298)
0040b2a9 83e10f          and     ecx,0Fh
0040b2ac 7424            je      image00400000+0xb2d2 (0040b2d2)
0040b2ae 8bc1            mov     eax,ecx
0040b2b0 c1e902          shr     ecx,2
0040b2b3 740d            je      image00400000+0xb2c2 (0040b2c2)
0040b2b5 8b16            mov     edx,dword ptr [esi]
0040b2b7 8917            mov     dword ptr [edi],edx
0040b2b9 8d7604          lea     esi,[esi+4]
0040b2bc 8d7f04          lea     edi,[edi+4]
0040b2bf 49              dec     ecx
0040b2c0 75f3            jne     image00400000+0xb2b5 (0040b2b5)
0040b2c2 8bc8            mov     ecx,eax
0040b2c4 83e103          and     ecx,3
0040b2c7 7409            je      image00400000+0xb2d2 (0040b2d2)
0040b2c9 8a06            mov     al,byte ptr [esi]
0040b2cb 8807            mov     byte ptr [edi],al
0040b2cd 46              inc     esi
0040b2ce 47              inc     edi
0040b2cf 49              dec     ecx
0040b2d0 75f7            jne     image00400000+0xb2c9 (0040b2c9)
0040b2d2 58              pop     eax
0040b2d3 5e              pop     esi
0040b2d4 5f              pop     edi
0040b2d5 5d              pop     ebp
0040b2d6 c3              ret
0040b2d7 ba10000000      mov     edx,10h
0040b2dc 2bd0            sub     edx,eax
0040b2de 2bca            sub     ecx,edx
0040b2e0 51              push    ecx
0040b2e1 8bc2            mov     eax,edx
0040b2e3 8bc8            mov     ecx,eax
0040b2e5 83e103          and     ecx,3
0040b2e8 7409            je      image00400000+0xb2f3 (0040b2f3)
0040b2ea 8a16            mov     dl,byte ptr [esi]
0040b2ec 8817            mov     byte ptr [edi],dl
0040b2ee 46              inc     esi
0040b2ef 47              inc     edi
0040b2f0 49              dec     ecx
0040b2f1 75f7            jne     image00400000+0xb2ea (0040b2ea)
0040b2f3 c1e802          shr     eax,2
0040b2f6 740d            je      image00400000+0xb305 (0040b305)
0040b2f8 8b16            mov     edx,dword ptr [esi]
0040b2fa 8917            mov     dword ptr [edi],edx
0040b2fc 8d7604          lea     esi,[esi+4]
0040b2ff 8d7f04          lea     edi,[edi+4]
0040b302 48              dec     eax
0040b303 75f3            jne     image00400000+0xb2f8 (0040b2f8)
0040b305 59              pop     ecx
0040b306 e90bffffff      jmp     image00400000+0xb216 (0040b216)
0040b30b 8bff            mov     edi,edi
0040b30d 55              push    ebp
0040b30e 8bec            mov     ebp,esp
0040b310 83ec18          sub     esp,18h
0040b313 53              push    ebx
0040b314 ff7510          push    dword ptr [ebp+10h]
0040b317 8d4de8          lea     ecx,[ebp-18h]
0040b31a e8ac75ffff      call    image00400000+0x28cb (004028cb)
0040b31f 8b5d08          mov     ebx,dword ptr [ebp+8]
0040b322 8d4301          lea     eax,[ebx+1]
0040b325 3d00010000      cmp     eax,100h
0040b32a 770f            ja      image00400000+0xb33b (0040b33b)
0040b32c 8b45e8          mov     eax,dword ptr [ebp-18h]
0040b32f 8b80c8000000    mov     eax,dword ptr [eax+0C8h]
0040b335 0fb70458        movzx   eax,word ptr [eax+ebx*2]
0040b339 eb75            jmp     image00400000+0xb3b0 (0040b3b0)
0040b33b 895d08          mov     dword ptr [ebp+8],ebx
0040b33e c17d0808        sar     dword ptr [ebp+8],8
0040b342 8d45e8          lea     eax,[ebp-18h]
0040b345 50              push    eax
0040b346 8b4508          mov     eax,dword ptr [ebp+8]
0040b349 25ff000000      and     eax,0FFh
0040b34e 50              push    eax
0040b34f e874d7ffff      call    image00400000+0x8ac8 (00408ac8)
0040b354 59              pop     ecx
0040b355 59              pop     ecx
0040b356 85c0            test    eax,eax
0040b358 7412            je      image00400000+0xb36c (0040b36c)
0040b35a 8a4508          mov     al,byte ptr [ebp+8]
0040b35d 6a02            push    2
0040b35f 8845f8          mov     byte ptr [ebp-8],al
0040b362 885df9          mov     byte ptr [ebp-7],bl
0040b365 c645fa00        mov     byte ptr [ebp-6],0
0040b369 59              pop     ecx
0040b36a eb0a            jmp     image00400000+0xb376 (0040b376)
0040b36c 33c9            xor     ecx,ecx
0040b36e 885df8          mov     byte ptr [ebp-8],bl
0040b371 c645f900        mov     byte ptr [ebp-7],0
0040b375 41              inc     ecx
0040b376 8b45e8          mov     eax,dword ptr [ebp-18h]
0040b379 6a01            push    1
0040b37b ff7014          push    dword ptr [eax+14h]
0040b37e ff7004          push    dword ptr [eax+4]
0040b381 8d45fc          lea     eax,[ebp-4]
0040b384 50              push    eax
0040b385 51              push    ecx
0040b386 8d45f8          lea     eax,[ebp-8]
0040b389 50              push    eax
0040b38a 8d45e8          lea     eax,[ebp-18h]
0040b38d 6a01            push    1
0040b38f 50              push    eax
0040b390 e84aefffff      call    image00400000+0xa2df (0040a2df)
0040b395 83c420          add     esp,20h
0040b398 85c0            test    eax,eax
0040b39a 7510            jne     image00400000+0xb3ac (0040b3ac)
0040b39c 3845f4          cmp     byte ptr [ebp-0Ch],al
0040b39f 7407            je      image00400000+0xb3a8 (0040b3a8)
0040b3a1 8b45f0          mov     eax,dword ptr [ebp-10h]
0040b3a4 836070fd        and     dword ptr [eax+70h],0FFFFFFFDh
0040b3a8 33c0            xor     eax,eax
0040b3aa eb14            jmp     image00400000+0xb3c0 (0040b3c0)
0040b3ac 0fb745fc        movzx   eax,word ptr [ebp-4]
0040b3b0 23450c          and     eax,dword ptr [ebp+0Ch]
0040b3b3 807df400        cmp     byte ptr [ebp-0Ch],0
0040b3b7 7407            je      image00400000+0xb3c0 (0040b3c0)
0040b3b9 8b4df0          mov     ecx,dword ptr [ebp-10h]
0040b3bc 836170fd        and     dword ptr [ecx+70h],0FFFFFFFDh
0040b3c0 5b              pop     ebx
0040b3c1 c9              leave
0040b3c2 c3              ret
0040b3c3 8bff            mov     edi,edi
0040b3c5 55              push    ebp
0040b3c6 8bec            mov     ebp,esp
0040b3c8 83ec1c          sub     esp,1Ch
0040b3cb 8b5510          mov     edx,dword ptr [ebp+10h]
0040b3ce 56              push    esi
0040b3cf 8b7508          mov     esi,dword ptr [ebp+8]
0040b3d2 6afe            push    0FFFFFFFEh
0040b3d4 58              pop     eax
0040b3d5 8945ec          mov     dword ptr [ebp-14h],eax
0040b3d8 8955e4          mov     dword ptr [ebp-1Ch],edx
0040b3db 3bf0            cmp     esi,eax
0040b3dd 751b            jne     image00400000+0xb3fa (0040b3fa)
0040b3df e8608affff      call    image00400000+0x3e44 (00403e44)
0040b3e4 832000          and     dword ptr [eax],0
0040b3e7 e8458affff      call    image00400000+0x3e31 (00403e31)
0040b3ec c70009000000    mov     dword ptr [eax],9
0040b3f2 83c8ff          or      eax,0FFFFFFFFh
0040b3f5 e97d050000      jmp     image00400000+0xb977 (0040b977)
0040b3fa 53              push    ebx
0040b3fb 33db            xor     ebx,ebx
0040b3fd 3bf3            cmp     esi,ebx
0040b3ff 7c08            jl      image00400000+0xb409 (0040b409)
0040b401 3b358c2b4100    cmp     esi,dword ptr [image00400000+0x12b8c (00412b8c)]
0040b407 721f            jb      image00400000+0xb428 (0040b428)
0040b409 e8368affff      call    image00400000+0x3e44 (00403e44)
0040b40e 8918            mov     dword ptr [eax],ebx
0040b410 e81c8affff      call    image00400000+0x3e31 (00403e31)
0040b415 c70009000000    mov     dword ptr [eax],9
0040b41b e8bf89ffff      call    image00400000+0x3ddf (00403ddf)
0040b420 83c8ff          or      eax,0FFFFFFFFh
0040b423 e94e050000      jmp     image00400000+0xb976 (0040b976)
0040b428 8bc6            mov     eax,esi
0040b42a c1f805          sar     eax,5
0040b42d 57              push    edi
0040b42e 83e61f          and     esi,1Fh
0040b431 8d3c85a02b4100  lea     edi,image00400000+0x12ba0 (00412ba0)[eax*4]
0040b438 8b07            mov     eax,dword ptr [edi]
0040b43a c1e606          shl     esi,6
0040b43d 8a4c3004        mov     cl,byte ptr [eax+esi+4]
0040b441 f6c101          test    cl,1
0040b444 7514            jne     image00400000+0xb45a (0040b45a)
0040b446 e8f989ffff      call    image00400000+0x3e44 (00403e44)
0040b44b 8918            mov     dword ptr [eax],ebx
0040b44d e8df89ffff      call    image00400000+0x3e31 (00403e31)
0040b452 c70009000000    mov     dword ptr [eax],9
0040b458 eb68            jmp     image00400000+0xb4c2 (0040b4c2)
0040b45a 81faffffff7f    cmp     edx,7FFFFFFFh
0040b460 774e            ja      image00400000+0xb4b0 (0040b4b0)
0040b462 895df4          mov     dword ptr [ebp-0Ch],ebx
0040b465 3bd3            cmp     edx,ebx
0040b467 0f8406050000    je      image00400000+0xb973 (0040b973)
0040b46d f6c102          test    cl,2
0040b470 0f85fd040000    jne     image00400000+0xb973 (0040b973)
0040b476 395d0c          cmp     dword ptr [ebp+0Ch],ebx
0040b479 7435            je      image00400000+0xb4b0 (0040b4b0)
0040b47b 8a443024        mov     al,byte ptr [eax+esi+24h]
0040b47f 02c0            add     al,al
0040b481 d0f8            sar     al,1
0040b483 8845fe          mov     byte ptr [ebp-2],al
0040b486 0fbec0          movsx   eax,al
0040b489 48              dec     eax
0040b48a 6a04            push    4
0040b48c 59              pop     ecx
0040b48d 7419            je      image00400000+0xb4a8 (0040b4a8)
0040b48f 48              dec     eax
0040b490 750e            jne     image00400000+0xb4a0 (0040b4a0)
0040b492 8bc2            mov     eax,edx
0040b494 f7d0            not     eax
0040b496 a801            test    al,1
0040b498 7416            je      image00400000+0xb4b0 (0040b4b0)
0040b49a 83e2fe          and     edx,0FFFFFFFEh
0040b49d 895510          mov     dword ptr [ebp+10h],edx
0040b4a0 8b5d0c          mov     ebx,dword ptr [ebp+0Ch]
0040b4a3 895df0          mov     dword ptr [ebp-10h],ebx
0040b4a6 eb7a            jmp     image00400000+0xb522 (0040b522)
0040b4a8 8bc2            mov     eax,edx
0040b4aa f7d0            not     eax
0040b4ac a801            test    al,1
0040b4ae 7519            jne     image00400000+0xb4c9 (0040b4c9)
0040b4b0 e88f89ffff      call    image00400000+0x3e44 (00403e44)
0040b4b5 8918            mov     dword ptr [eax],ebx
0040b4b7 e87589ffff      call    image00400000+0x3e31 (00403e31)
0040b4bc c70016000000    mov     dword ptr [eax],16h
0040b4c2 e81889ffff      call    image00400000+0x3ddf (00403ddf)
0040b4c7 eb36            jmp     image00400000+0xb4ff (0040b4ff)
0040b4c9 8bc2            mov     eax,edx
0040b4cb d1e8            shr     eax,1
0040b4cd 894d10          mov     dword ptr [ebp+10h],ecx
0040b4d0 3bc1            cmp     eax,ecx
0040b4d2 7203            jb      image00400000+0xb4d7 (0040b4d7)
0040b4d4 894510          mov     dword ptr [ebp+10h],eax
0040b4d7 ff7510          push    dword ptr [ebp+10h]
0040b4da e830d3ffff      call    image00400000+0x880f (0040880f)
0040b4df 8bd8            mov     ebx,eax
0040b4e1 59              pop     ecx
0040b4e2 895df0          mov     dword ptr [ebp-10h],ebx
0040b4e5 85db            test    ebx,ebx
0040b4e7 751e            jne     image00400000+0xb507 (0040b507)
0040b4e9 e84389ffff      call    image00400000+0x3e31 (00403e31)
0040b4ee c7000c000000    mov     dword ptr [eax],0Ch
0040b4f4 e84b89ffff      call    image00400000+0x3e44 (00403e44)
0040b4f9 c70008000000    mov     dword ptr [eax],8
0040b4ff 83c8ff          or      eax,0FFFFFFFFh
0040b502 e96e040000      jmp     image00400000+0xb975 (0040b975)
0040b507 6a01            push    1
0040b509 6a00            push    0
0040b50b 6a00            push    0
0040b50d ff7508          push    dword ptr [ebp+8]
0040b510 e81dc7ffff      call    image00400000+0x7c32 (00407c32)
0040b515 8b0f            mov     ecx,dword ptr [edi]
0040b517 89440e28        mov     dword ptr [esi+ecx+28h],eax
0040b51b 83c410          add     esp,10h
0040b51e 89540e2c        mov     dword ptr [esi+ecx+2Ch],edx
0040b522 8b0f            mov     ecx,dword ptr [edi]
0040b524 03ce            add     ecx,esi
0040b526 f6410448        test    byte ptr [ecx+4],48h
0040b52a 8bc3            mov     eax,ebx
0040b52c 747a            je      image00400000+0xb5a8 (0040b5a8)
0040b52e 8a4905          mov     cl,byte ptr [ecx+5]
0040b531 80f90a          cmp     cl,0Ah
0040b534 7472            je      image00400000+0xb5a8 (0040b5a8)
0040b536 837d1000        cmp     dword ptr [ebp+10h],0
0040b53a 746c            je      image00400000+0xb5a8 (0040b5a8)
0040b53c ff4d10          dec     dword ptr [ebp+10h]
0040b53f 807dfe00        cmp     byte ptr [ebp-2],0
0040b543 880b            mov     byte ptr [ebx],cl
0040b545 8b0f            mov     ecx,dword ptr [edi]
0040b547 8d4301          lea     eax,[ebx+1]
0040b54a c745f401000000  mov     dword ptr [ebp-0Ch],1
0040b551 c6440e050a      mov     byte ptr [esi+ecx+5],0Ah
0040b556 7450            je      image00400000+0xb5a8 (0040b5a8)
0040b558 8b0f            mov     ecx,dword ptr [edi]
0040b55a 8a4c0e25        mov     cl,byte ptr [esi+ecx+25h]
0040b55e 80f90a          cmp     cl,0Ah
0040b561 7445            je      image00400000+0xb5a8 (0040b5a8)
0040b563 837d1000        cmp     dword ptr [ebp+10h],0
0040b567 743f            je      image00400000+0xb5a8 (0040b5a8)
0040b569 8808            mov     byte ptr [eax],cl
0040b56b 8b0f            mov     ecx,dword ptr [edi]
0040b56d 40              inc     eax
0040b56e ff4d10          dec     dword ptr [ebp+10h]
0040b571 807dfe01        cmp     byte ptr [ebp-2],1
0040b575 c745f402000000  mov     dword ptr [ebp-0Ch],2
0040b57c c6440e250a      mov     byte ptr [esi+ecx+25h],0Ah
0040b581 7525            jne     image00400000+0xb5a8 (0040b5a8)
0040b583 8b0f            mov     ecx,dword ptr [edi]
0040b585 8a4c0e26        mov     cl,byte ptr [esi+ecx+26h]
0040b589 80f90a          cmp     cl,0Ah
0040b58c 741a            je      image00400000+0xb5a8 (0040b5a8)
0040b58e 837d1000        cmp     dword ptr [ebp+10h],0
0040b592 7414            je      image00400000+0xb5a8 (0040b5a8)
0040b594 8808            mov     byte ptr [eax],cl
0040b596 8b0f            mov     ecx,dword ptr [edi]
0040b598 40              inc     eax
0040b599 ff4d10          dec     dword ptr [ebp+10h]
0040b59c c745f403000000  mov     dword ptr [ebp-0Ch],3
0040b5a3 c6440e260a      mov     byte ptr [esi+ecx+26h],0Ah
0040b5a8 6a00            push    0
0040b5aa 8d4de8          lea     ecx,[ebp-18h]
0040b5ad 51              push    ecx
0040b5ae ff7510          push    dword ptr [ebp+10h]
0040b5b1 50              push    eax
0040b5b2 8b07            mov     eax,dword ptr [edi]
0040b5b4 ff3406          push    dword ptr [esi+eax]
0040b5b7 ff154cd04000    call    dword ptr [image00400000+0xd04c (0040d04c)]
0040b5bd 85c0            test    eax,eax
0040b5bf 0f8478030000    je      image00400000+0xb93d (0040b93d)
0040b5c5 8b4de8          mov     ecx,dword ptr [ebp-18h]
0040b5c8 85c9            test    ecx,ecx
0040b5ca 0f886d030000    js      image00400000+0xb93d (0040b93d)
0040b5d0 3b4d10          cmp     ecx,dword ptr [ebp+10h]
0040b5d3 0f8764030000    ja      image00400000+0xb93d (0040b93d)
0040b5d9 8b07            mov     eax,dword ptr [edi]
0040b5db 014df4          add     dword ptr [ebp-0Ch],ecx
0040b5de 8d440604        lea     eax,[esi+eax+4]
0040b5e2 f60080          test    byte ptr [eax],80h
0040b5e5 0f84e4010000    je      image00400000+0xb7cf (0040b7cf)
0040b5eb 807dfe02        cmp     byte ptr [ebp-2],2
0040b5ef 0f8414020000    je      image00400000+0xb809 (0040b809)
0040b5f5 85c9            test    ecx,ecx
0040b5f7 740a            je      image00400000+0xb603 (0040b603)
0040b5f9 803b0a          cmp     byte ptr [ebx],0Ah
0040b5fc 7505            jne     image00400000+0xb603 (0040b603)
0040b5fe 800804          or      byte ptr [eax],4
0040b601 eb03            jmp     image00400000+0xb606 (0040b606)
0040b603 8020fb          and     byte ptr [eax],0FBh
0040b606 8b5df0          mov     ebx,dword ptr [ebp-10h]
0040b609 8b45f4          mov     eax,dword ptr [ebp-0Ch]
0040b60c 03c3            add     eax,ebx
0040b60e 895d10          mov     dword ptr [ebp+10h],ebx
0040b611 8945f4          mov     dword ptr [ebp-0Ch],eax
0040b614 3bd8            cmp     ebx,eax
0040b616 0f83d1000000    jae     image00400000+0xb6ed (0040b6ed)
0040b61c 8b4d10          mov     ecx,dword ptr [ebp+10h]
0040b61f 8a01            mov     al,byte ptr [ecx]
0040b621 3c1a            cmp     al,1Ah
0040b623 0f84af000000    je      image00400000+0xb6d8 (0040b6d8)
0040b629 3c0d            cmp     al,0Dh
0040b62b 740c            je      image00400000+0xb639 (0040b639)
0040b62d 8803            mov     byte ptr [ebx],al
0040b62f 43              inc     ebx
0040b630 41              inc     ecx
0040b631 894d10          mov     dword ptr [ebp+10h],ecx
0040b634 e991000000      jmp     image00400000+0xb6ca (0040b6ca)
0040b639 8b45f4          mov     eax,dword ptr [ebp-0Ch]
0040b63c 48              dec     eax
0040b63d 3bc8            cmp     ecx,eax
0040b63f 7318            jae     image00400000+0xb659 (0040b659)
0040b641 8d4101          lea     eax,[ecx+1]
0040b644 80380a          cmp     byte ptr [eax],0Ah
0040b647 750b            jne     image00400000+0xb654 (0040b654)
0040b649 83c102          add     ecx,2
0040b64c 894d10          mov     dword ptr [ebp+10h],ecx
0040b64f c6030a          mov     byte ptr [ebx],0Ah
0040b652 eb75            jmp     image00400000+0xb6c9 (0040b6c9)
0040b654 894510          mov     dword ptr [ebp+10h],eax
0040b657 eb6d            jmp     image00400000+0xb6c6 (0040b6c6)
0040b659 ff4510          inc     dword ptr [ebp+10h]
0040b65c 6a00            push    0
0040b65e 8d45e8          lea     eax,[ebp-18h]
0040b661 50              push    eax
0040b662 6a01            push    1
0040b664 8d45ff          lea     eax,[ebp-1]
0040b667 50              push    eax
0040b668 8b07            mov     eax,dword ptr [edi]
0040b66a ff3406          push    dword ptr [esi+eax]
0040b66d ff154cd04000    call    dword ptr [image00400000+0xd04c (0040d04c)]
0040b673 85c0            test    eax,eax
0040b675 750a            jne     image00400000+0xb681 (0040b681)
0040b677 ff1584d04000    call    dword ptr [image00400000+0xd084 (0040d084)]
0040b67d 85c0            test    eax,eax
0040b67f 7545            jne     image00400000+0xb6c6 (0040b6c6)
0040b681 837de800        cmp     dword ptr [ebp-18h],0
0040b685 743f            je      image00400000+0xb6c6 (0040b6c6)
0040b687 8b07            mov     eax,dword ptr [edi]
0040b689 f644060448      test    byte ptr [esi+eax+4],48h
0040b68e 7414            je      image00400000+0xb6a4 (0040b6a4)
0040b690 807dff0a        cmp     byte ptr [ebp-1],0Ah
0040b694 74b9            je      image00400000+0xb64f (0040b64f)
0040b696 c6030d          mov     byte ptr [ebx],0Dh
0040b699 8b07            mov     eax,dword ptr [edi]
0040b69b 8a4dff          mov     cl,byte ptr [ebp-1]
0040b69e 884c0605        mov     byte ptr [esi+eax+5],cl
0040b6a2 eb25            jmp     image00400000+0xb6c9 (0040b6c9)
0040b6a4 3b5df0          cmp     ebx,dword ptr [ebp-10h]
0040b6a7 7506            jne     image00400000+0xb6af (0040b6af)
0040b6a9 807dff0a        cmp     byte ptr [ebp-1],0Ah
0040b6ad 74a0            je      image00400000+0xb64f (0040b64f)
0040b6af 6a01            push    1
0040b6b1 6aff            push    0FFFFFFFFh
0040b6b3 6aff            push    0FFFFFFFFh
0040b6b5 ff7508          push    dword ptr [ebp+8]
0040b6b8 e875c5ffff      call    image00400000+0x7c32 (00407c32)
0040b6bd 83c410          add     esp,10h
0040b6c0 807dff0a        cmp     byte ptr [ebp-1],0Ah
0040b6c4 7404            je      image00400000+0xb6ca (0040b6ca)
0040b6c6 c6030d          mov     byte ptr [ebx],0Dh
0040b6c9 43              inc     ebx
0040b6ca 8b45f4          mov     eax,dword ptr [ebp-0Ch]
0040b6cd 394510          cmp     dword ptr [ebp+10h],eax
0040b6d0 0f8246ffffff    jb      image00400000+0xb61c (0040b61c)
0040b6d6 eb15            jmp     image00400000+0xb6ed (0040b6ed)
0040b6d8 8b07            mov     eax,dword ptr [edi]
0040b6da 8d440604        lea     eax,[esi+eax+4]
0040b6de f60040          test    byte ptr [eax],40h
0040b6e1 7505            jne     image00400000+0xb6e8 (0040b6e8)
0040b6e3 800802          or      byte ptr [eax],2
0040b6e6 eb05            jmp     image00400000+0xb6ed (0040b6ed)
0040b6e8 8a01            mov     al,byte ptr [ecx]
0040b6ea 8803            mov     byte ptr [ebx],al
0040b6ec 43              inc     ebx
0040b6ed 8bc3            mov     eax,ebx
0040b6ef 2b45f0          sub     eax,dword ptr [ebp-10h]
0040b6f2 807dfe01        cmp     byte ptr [ebp-2],1
0040b6f6 8945f4          mov     dword ptr [ebp-0Ch],eax
0040b6f9 0f85d0000000    jne     image00400000+0xb7cf (0040b7cf)
0040b6ff 85c0            test    eax,eax
0040b701 0f84c8000000    je      image00400000+0xb7cf (0040b7cf)
0040b707 4b              dec     ebx
0040b708 8a0b            mov     cl,byte ptr [ebx]
0040b70a 84c9            test    cl,cl
0040b70c 7806            js      image00400000+0xb714 (0040b714)
0040b70e 43              inc     ebx
0040b70f e986000000      jmp     image00400000+0xb79a (0040b79a)
0040b714 33c0            xor     eax,eax
0040b716 40              inc     eax
0040b717 0fb6c9          movzx   ecx,cl
0040b71a eb0f            jmp     image00400000+0xb72b (0040b72b)
0040b71c 83f804          cmp     eax,4
0040b71f 7f13            jg      image00400000+0xb734 (0040b734)
0040b721 3b5df0          cmp     ebx,dword ptr [ebp-10h]
0040b724 720e            jb      image00400000+0xb734 (0040b734)
0040b726 4b              dec     ebx
0040b727 0fb60b          movzx   ecx,byte ptr [ebx]
0040b72a 40              inc     eax
0040b72b 80b9b00d410000  cmp     byte ptr image00400000+0x10db0 (00410db0)[ecx],0
0040b732 74e8            je      image00400000+0xb71c (0040b71c)
0040b734 8a13            mov     dl,byte ptr [ebx]
0040b736 0fb6ca          movzx   ecx,dl
0040b739 0fbe89b00d4100  movsx   ecx,byte ptr image00400000+0x10db0 (00410db0)[ecx]
0040b740 85c9            test    ecx,ecx
0040b742 750d            jne     image00400000+0xb751 (0040b751)
0040b744 e8e886ffff      call    image00400000+0x3e31 (00403e31)
0040b749 c7002a000000    mov     dword ptr [eax],2Ah
0040b74f eb7a            jmp     image00400000+0xb7cb (0040b7cb)
0040b751 41              inc     ecx
0040b752 3bc8            cmp     ecx,eax
0040b754 7504            jne     image00400000+0xb75a (0040b75a)
0040b756 03d8            add     ebx,eax
0040b758 eb40            jmp     image00400000+0xb79a (0040b79a)
0040b75a 8b0f            mov     ecx,dword ptr [edi]
0040b75c f644310448      test    byte ptr [ecx+esi+4],48h
0040b761 7425            je      image00400000+0xb788 (0040b788)
0040b763 43              inc     ebx
0040b764 88543105        mov     byte ptr [ecx+esi+5],dl
0040b768 83f802          cmp     eax,2
0040b76b 7c09            jl      image00400000+0xb776 (0040b776)
0040b76d 8a13            mov     dl,byte ptr [ebx]
0040b76f 8b0f            mov     ecx,dword ptr [edi]
0040b771 88540e25        mov     byte ptr [esi+ecx+25h],dl
0040b775 43              inc     ebx
0040b776 83f803          cmp     eax,3
0040b779 7509            jne     image00400000+0xb784 (0040b784)
0040b77b 8a13            mov     dl,byte ptr [ebx]
0040b77d 8b0f            mov     ecx,dword ptr [edi]
0040b77f 88540e26        mov     byte ptr [esi+ecx+26h],dl
0040b783 43              inc     ebx
0040b784 2bd8            sub     ebx,eax
0040b786 eb12            jmp     image00400000+0xb79a (0040b79a)
0040b788 f7d8            neg     eax
0040b78a 99              cdq
0040b78b 6a01            push    1
0040b78d 52              push    edx
0040b78e 50              push    eax
0040b78f ff7508          push    dword ptr [ebp+8]
0040b792 e89bc4ffff      call    image00400000+0x7c32 (00407c32)
0040b797 83c410          add     esp,10h
0040b79a 8b45e4          mov     eax,dword ptr [ebp-1Ch]
0040b79d 2b5df0          sub     ebx,dword ptr [ebp-10h]
0040b7a0 d1e8            shr     eax,1
0040b7a2 50              push    eax
0040b7a3 ff750c          push    dword ptr [ebp+0Ch]
0040b7a6 53              push    ebx
0040b7a7 ff75f0          push    dword ptr [ebp-10h]
0040b7aa 6a00            push    0
0040b7ac 68e9fd0000      push    0FDE9h
0040b7b1 ff1544d14000    call    dword ptr [image00400000+0xd144 (0040d144)]
0040b7b7 8945f4          mov     dword ptr [ebp-0Ch],eax
0040b7ba 85c0            test    eax,eax
0040b7bc 7534            jne     image00400000+0xb7f2 (0040b7f2)
0040b7be ff1584d04000    call    dword ptr [image00400000+0xd084 (0040d084)]
0040b7c4 50              push    eax
0040b7c5 e88d86ffff      call    image00400000+0x3e57 (00403e57)
0040b7ca 59              pop     ecx
0040b7cb 834decff        or      dword ptr [ebp-14h],0FFFFFFFFh
0040b7cf 8b45f0          mov     eax,dword ptr [ebp-10h]
0040b7d2 3b450c          cmp     eax,dword ptr [ebp+0Ch]
0040b7d5 7407            je      image00400000+0xb7de (0040b7de)
0040b7d7 50              push    eax
0040b7d8 e8416effff      call    image00400000+0x261e (0040261e)
0040b7dd 59              pop     ecx
0040b7de 8b45ec          mov     eax,dword ptr [ebp-14h]
0040b7e1 83f8fe          cmp     eax,0FFFFFFFEh
0040b7e4 0f858b010000    jne     image00400000+0xb975 (0040b975)
0040b7ea 8b45f4          mov     eax,dword ptr [ebp-0Ch]
0040b7ed e983010000      jmp     image00400000+0xb975 (0040b975)
0040b7f2 8b45f4          mov     eax,dword ptr [ebp-0Ch]
0040b7f5 8b17            mov     edx,dword ptr [edi]
0040b7f7 33c9            xor     ecx,ecx
0040b7f9 3bc3            cmp     eax,ebx
0040b7fb 0f95c1          setne   cl
0040b7fe 03c0            add     eax,eax
0040b800 8945f4          mov     dword ptr [ebp-0Ch],eax
0040b803 894c1630        mov     dword ptr [esi+edx+30h],ecx
0040b807 ebc6            jmp     image00400000+0xb7cf (0040b7cf)
0040b809 85c9            test    ecx,ecx
0040b80b 740b            je      image00400000+0xb818 (0040b818)
0040b80d 66833b0a        cmp     word ptr [ebx],0Ah
0040b811 7505            jne     image00400000+0xb818 (0040b818)
0040b813 800804          or      byte ptr [eax],4
0040b816 eb03            jmp     image00400000+0xb81b (0040b81b)
0040b818 8020fb          and     byte ptr [eax],0FBh
0040b81b 8b5df0          mov     ebx,dword ptr [ebp-10h]
0040b81e 8b45f4          mov     eax,dword ptr [ebp-0Ch]
0040b821 03c3            add     eax,ebx
0040b823 895d10          mov     dword ptr [ebp+10h],ebx
0040b826 8945f4          mov     dword ptr [ebp-0Ch],eax
0040b829 3bd8            cmp     ebx,eax
0040b82b 0f8301010000    jae     image00400000+0xb932 (0040b932)
0040b831 8b4510          mov     eax,dword ptr [ebp+10h]
0040b834 0fb708          movzx   ecx,word ptr [eax]
0040b837 83f91a          cmp     ecx,1Ah
0040b83a 0f84d9000000    je      image00400000+0xb919 (0040b919)
0040b840 83f90d          cmp     ecx,0Dh
0040b843 7411            je      image00400000+0xb856 (0040b856)
0040b845 66890b          mov     word ptr [ebx],cx
0040b848 83c302          add     ebx,2
0040b84b 83c002          add     eax,2
0040b84e 894510          mov     dword ptr [ebp+10h],eax
0040b851 e9b5000000      jmp     image00400000+0xb90b (0040b90b)
0040b856 8b4df4          mov     ecx,dword ptr [ebp-0Ch]
0040b859 83c1fe          add     ecx,0FFFFFFFEh
0040b85c 3bc1            cmp     eax,ecx
0040b85e 731e            jae     image00400000+0xb87e (0040b87e)
0040b860 8d4802          lea     ecx,[eax+2]
0040b863 6683390a        cmp     word ptr [ecx],0Ah
0040b867 750d            jne     image00400000+0xb876 (0040b876)
0040b869 83c004          add     eax,4
0040b86c 894510          mov     dword ptr [ebp+10h],eax
0040b86f 6a0a            push    0Ah
0040b871 e98e000000      jmp     image00400000+0xb904 (0040b904)
0040b876 894d10          mov     dword ptr [ebp+10h],ecx
0040b879 e984000000      jmp     image00400000+0xb902 (0040b902)
0040b87e 83451002        add     dword ptr [ebp+10h],2
0040b882 6a00            push    0
0040b884 8d45e8          lea     eax,[ebp-18h]
0040b887 50              push    eax
0040b888 6a02            push    2
0040b88a 8d45f8          lea     eax,[ebp-8]
0040b88d 50              push    eax
0040b88e 8b07            mov     eax,dword ptr [edi]
0040b890 ff3406          push    dword ptr [esi+eax]
0040b893 ff154cd04000    call    dword ptr [image00400000+0xd04c (0040d04c)]
0040b899 85c0            test    eax,eax
0040b89b 750a            jne     image00400000+0xb8a7 (0040b8a7)
0040b89d ff1584d04000    call    dword ptr [image00400000+0xd084 (0040d084)]
0040b8a3 85c0            test    eax,eax
0040b8a5 755b            jne     image00400000+0xb902 (0040b902)
0040b8a7 837de800        cmp     dword ptr [ebp-18h],0
0040b8ab 7455            je      image00400000+0xb902 (0040b902)
0040b8ad 8b07            mov     eax,dword ptr [edi]
0040b8af f644060448      test    byte ptr [esi+eax+4],48h
0040b8b4 7428            je      image00400000+0xb8de (0040b8de)
0040b8b6 66837df80a      cmp     word ptr [ebp-8],0Ah
0040b8bb 74b2            je      image00400000+0xb86f (0040b86f)
0040b8bd 6a0d            push    0Dh
0040b8bf 58              pop     eax
0040b8c0 668903          mov     word ptr [ebx],ax
0040b8c3 8b07            mov     eax,dword ptr [edi]
0040b8c5 8a4df8          mov     cl,byte ptr [ebp-8]
0040b8c8 884c0605        mov     byte ptr [esi+eax+5],cl
0040b8cc 8b07            mov     eax,dword ptr [edi]
0040b8ce 8a4df9          mov     cl,byte ptr [ebp-7]
0040b8d1 884c0625        mov     byte ptr [esi+eax+25h],cl
0040b8d5 8b07            mov     eax,dword ptr [edi]
0040b8d7 c64406260a      mov     byte ptr [esi+eax+26h],0Ah
0040b8dc eb2a            jmp     image00400000+0xb908 (0040b908)
0040b8de 3b5df0          cmp     ebx,dword ptr [ebp-10h]
0040b8e1 7507            jne     image00400000+0xb8ea (0040b8ea)
0040b8e3 66837df80a      cmp     word ptr [ebp-8],0Ah
0040b8e8 7485            je      image00400000+0xb86f (0040b86f)
0040b8ea 6a01            push    1
0040b8ec 6aff            push    0FFFFFFFFh
0040b8ee 6afe            push    0FFFFFFFEh
0040b8f0 ff7508          push    dword ptr [ebp+8]
0040b8f3 e83ac3ffff      call    image00400000+0x7c32 (00407c32)
0040b8f8 83c410          add     esp,10h
0040b8fb 66837df80a      cmp     word ptr [ebp-8],0Ah
0040b900 7409            je      image00400000+0xb90b (0040b90b)
0040b902 6a0d            push    0Dh
0040b904 58              pop     eax
0040b905 668903          mov     word ptr [ebx],ax
0040b908 83c302          add     ebx,2
0040b90b 8b45f4          mov     eax,dword ptr [ebp-0Ch]
0040b90e 394510          cmp     dword ptr [ebp+10h],eax
0040b911 0f821affffff    jb      image00400000+0xb831 (0040b831)
0040b917 eb19            jmp     image00400000+0xb932 (0040b932)
0040b919 8b0f            mov     ecx,dword ptr [edi]
0040b91b 8d740e04        lea     esi,[esi+ecx+4]
0040b91f f60640          test    byte ptr [esi],40h
0040b922 7505            jne     image00400000+0xb929 (0040b929)
0040b924 800e02          or      byte ptr [esi],2
0040b927 eb09            jmp     image00400000+0xb932 (0040b932)
0040b929 668b00          mov     ax,word ptr [eax]
0040b92c 668903          mov     word ptr [ebx],ax
0040b92f 83c302          add     ebx,2
0040b932 2b5df0          sub     ebx,dword ptr [ebp-10h]
0040b935 895df4          mov     dword ptr [ebp-0Ch],ebx
0040b938 e992feffff      jmp     image00400000+0xb7cf (0040b7cf)
0040b93d ff1584d04000    call    dword ptr [image00400000+0xd084 (0040d084)]
0040b943 6a05            push    5
0040b945 5e              pop     esi
0040b946 3bc6            cmp     eax,esi
0040b948 7517            jne     image00400000+0xb961 (0040b961)
0040b94a e8e284ffff      call    image00400000+0x3e31 (00403e31)
0040b94f c70009000000    mov     dword ptr [eax],9
0040b955 e8ea84ffff      call    image00400000+0x3e44 (00403e44)
0040b95a 8930            mov     dword ptr [eax],esi
0040b95c e96afeffff      jmp     image00400000+0xb7cb (0040b7cb)
0040b961 83f86d          cmp     eax,6Dh
0040b964 0f855afeffff    jne     image00400000+0xb7c4 (0040b7c4)
0040b96a 8365ec00        and     dword ptr [ebp-14h],0
0040b96e e95cfeffff      jmp     image00400000+0xb7cf (0040b7cf)
0040b973 33c0            xor     eax,eax
0040b975 5f              pop     edi
0040b976 5b              pop     ebx
0040b977 5e              pop     esi
0040b978 c9              leave
0040b979 c3              ret
0040b97a 6a10            push    10h
0040b97c 68f8f04000      push    offset image00400000+0xf0f8 (0040f0f8)
0040b981 e81ac0ffff      call    image00400000+0x79a0 (004079a0)
0040b986 8b5d08          mov     ebx,dword ptr [ebp+8]
0040b989 83fbfe          cmp     ebx,0FFFFFFFEh
0040b98c 751b            jne     image00400000+0xb9a9 (0040b9a9)
0040b98e e8b184ffff      call    image00400000+0x3e44 (00403e44)
0040b993 832000          and     dword ptr [eax],0
0040b996 e89684ffff      call    image00400000+0x3e31 (00403e31)
0040b99b c70009000000    mov     dword ptr [eax],9
0040b9a1 83c8ff          or      eax,0FFFFFFFFh
0040b9a4 e9b6000000      jmp     image00400000+0xba5f (0040ba5f)
0040b9a9 85db            test    ebx,ebx
0040b9ab 7808            js      image00400000+0xb9b5 (0040b9b5)
0040b9ad 3b1d8c2b4100    cmp     ebx,dword ptr [image00400000+0x12b8c (00412b8c)]
0040b9b3 721a            jb      image00400000+0xb9cf (0040b9cf)
0040b9b5 e88a84ffff      call    image00400000+0x3e44 (00403e44)
0040b9ba 832000          and     dword ptr [eax],0
0040b9bd e86f84ffff      call    image00400000+0x3e31 (00403e31)
0040b9c2 c70009000000    mov     dword ptr [eax],9
0040b9c8 e81284ffff      call    image00400000+0x3ddf (00403ddf)
0040b9cd ebd2            jmp     image00400000+0xb9a1 (0040b9a1)
0040b9cf 8bc3            mov     eax,ebx
0040b9d1 c1f805          sar     eax,5
0040b9d4 8d3c85a02b4100  lea     edi,image00400000+0x12ba0 (00412ba0)[eax*4]
0040b9db 8bf3            mov     esi,ebx
0040b9dd 83e61f          and     esi,1Fh
0040b9e0 c1e606          shl     esi,6
0040b9e3 8b07            mov     eax,dword ptr [edi]
0040b9e5 0fbe443004      movsx   eax,byte ptr [eax+esi+4]
0040b9ea 83e001          and     eax,1
0040b9ed 74c6            je      image00400000+0xb9b5 (0040b9b5)
0040b9ef b8ffffff7f      mov     eax,7FFFFFFFh
0040b9f4 3b4510          cmp     eax,dword ptr [ebp+10h]
0040b9f7 1bc0            sbb     eax,eax
0040b9f9 40              inc     eax
0040b9fa 7515            jne     image00400000+0xba11 (0040ba11)
0040b9fc e84384ffff      call    image00400000+0x3e44 (00403e44)
0040ba01 832000          and     dword ptr [eax],0
0040ba04 e82884ffff      call    image00400000+0x3e31 (00403e31)
0040ba09 c70016000000    mov     dword ptr [eax],16h
0040ba0f ebb7            jmp     image00400000+0xb9c8 (0040b9c8)
0040ba11 53              push    ebx
0040ba12 e84af2ffff      call    image00400000+0xac61 (0040ac61)
0040ba17 59              pop     ecx
0040ba18 8365fc00        and     dword ptr [ebp-4],0
0040ba1c 8b07            mov     eax,dword ptr [edi]
0040ba1e f644300401      test    byte ptr [eax+esi+4],1
0040ba23 7414            je      image00400000+0xba39 (0040ba39)
0040ba25 ff7510          push    dword ptr [ebp+10h]
0040ba28 ff750c          push    dword ptr [ebp+0Ch]
0040ba2b 53              push    ebx
0040ba2c e892f9ffff      call    image00400000+0xb3c3 (0040b3c3)
0040ba31 83c40c          add     esp,0Ch
0040ba34 8945e4          mov     dword ptr [ebp-1Ch],eax
0040ba37 eb17            jmp     image00400000+0xba50 (0040ba50)
0040ba39 e8f383ffff      call    image00400000+0x3e31 (00403e31)
0040ba3e c70009000000    mov     dword ptr [eax],9
0040ba44 e8fb83ffff      call    image00400000+0x3e44 (00403e44)
0040ba49 832000          and     dword ptr [eax],0
0040ba4c 834de4ff        or      dword ptr [ebp-1Ch],0FFFFFFFFh
0040ba50 c745fcfeffffff  mov     dword ptr [ebp-4],0FFFFFFFEh
0040ba57 e80c000000      call    image00400000+0xba68 (0040ba68)
0040ba5c 8b45e4          mov     eax,dword ptr [ebp-1Ch]
0040ba5f e881bfffff      call    image00400000+0x79e5 (004079e5)
0040ba64 c3              ret
0040ba65 8b5d08          mov     ebx,dword ptr [ebp+8]
0040ba68 53              push    ebx
0040ba69 e892f2ffff      call    image00400000+0xad00 (0040ad00)
0040ba6e 59              pop     ecx
0040ba6f c3              ret
0040ba70 e86bdcffff      call    image00400000+0x96e0 (004096e0)
0040ba75 85c0            test    eax,eax
0040ba77 7408            je      image00400000+0xba81 (0040ba81)
0040ba79 6a16            push    16h
0040ba7b e86ddcffff      call    image00400000+0x96ed (004096ed)
0040ba80 59              pop     ecx
0040ba81 f605b00e410002  test    byte ptr [image00400000+0x10eb0 (00410eb0)],2
0040ba88 7411            je      image00400000+0xba9b (0040ba9b)
0040ba8a 6a01            push    1
0040ba8c 6815000040      push    40000015h
0040ba91 6a03            push    3
0040ba93 e8cc81ffff      call    image00400000+0x3c64 (00403c64)
0040ba98 83c40c          add     esp,0Ch
0040ba9b 6a03            push    3
0040ba9d e8db97ffff      call    image00400000+0x527d (0040527d)
0040baa2 cc              int     3
0040baa3 8bff            mov     edi,edi
0040baa5 55              push    ebp
0040baa6 8bec            mov     ebp,esp
0040baa8 837d0800        cmp     dword ptr [ebp+8],0
0040baac 7515            jne     image00400000+0xbac3 (0040bac3)
0040baae e87e83ffff      call    image00400000+0x3e31 (00403e31)
0040bab3 c70016000000    mov     dword ptr [eax],16h
0040bab9 e82183ffff      call    image00400000+0x3ddf (00403ddf)
0040babe 83c8ff          or      eax,0FFFFFFFFh
0040bac1 5d              pop     ebp
0040bac2 c3              ret
0040bac3 ff7508          push    dword ptr [ebp+8]
0040bac6 6a00            push    0
0040bac8 ff3518124100    push    dword ptr [image00400000+0x11218 (00411218)]
0040bace ff1550d04000    call    dword ptr [image00400000+0xd050 (0040d050)]
0040bad4 5d              pop     ebp
0040bad5 c3              ret
0040bad6 8bff            mov     edi,edi
0040bad8 55              push    ebp
0040bad9 8bec            mov     ebp,esp
0040badb 51              push    ecx
0040badc 56              push    esi
0040badd 8b750c          mov     esi,dword ptr [ebp+0Ch]
0040bae0 56              push    esi
0040bae1 e8e0ccffff      call    image00400000+0x87c6 (004087c6)
0040bae6 89450c          mov     dword ptr [ebp+0Ch],eax
0040bae9 8b460c          mov     eax,dword ptr [esi+0Ch]
0040baec 59              pop     ecx
0040baed a882            test    al,82h
0040baef 7519            jne     image00400000+0xbb0a (0040bb0a)
0040baf1 e83b83ffff      call    image00400000+0x3e31 (00403e31)
0040baf6 c70009000000    mov     dword ptr [eax],9
0040bafc 834e0c20        or      dword ptr [esi+0Ch],20h
0040bb00 b8ffff0000      mov     eax,0FFFFh
0040bb05 e93d010000      jmp     image00400000+0xbc47 (0040bc47)
0040bb0a a840            test    al,40h
0040bb0c 740d            je      image00400000+0xbb1b (0040bb1b)
0040bb0e e81e83ffff      call    image00400000+0x3e31 (00403e31)
0040bb13 c70022000000    mov     dword ptr [eax],22h
0040bb19 ebe1            jmp     image00400000+0xbafc (0040bafc)
0040bb1b a801            test    al,1
0040bb1d 7417            je      image00400000+0xbb36 (0040bb36)
0040bb1f 83660400        and     dword ptr [esi+4],0
0040bb23 a810            test    al,10h
0040bb25 0f848d000000    je      image00400000+0xbbb8 (0040bbb8)
0040bb2b 8b4e08          mov     ecx,dword ptr [esi+8]
0040bb2e 83e0fe          and     eax,0FFFFFFFEh
0040bb31 890e            mov     dword ptr [esi],ecx
0040bb33 89460c          mov     dword ptr [esi+0Ch],eax
0040bb36 8b460c          mov     eax,dword ptr [esi+0Ch]
0040bb39 83660400        and     dword ptr [esi+4],0
0040bb3d 8365fc00        and     dword ptr [ebp-4],0
0040bb41 53              push    ebx
0040bb42 6a02            push    2
0040bb44 83e0ef          and     eax,0FFFFFFEFh
0040bb47 5b              pop     ebx
0040bb48 0bc3            or      eax,ebx
0040bb4a 89460c          mov     dword ptr [esi+0Ch],eax
0040bb4d a90c010000      test    eax,10Ch
0040bb52 752c            jne     image00400000+0xbb80 (0040bb80)
0040bb54 e8b8caffff      call    image00400000+0x8611 (00408611)
0040bb59 83c020          add     eax,20h
0040bb5c 3bf0            cmp     esi,eax
0040bb5e 740c            je      image00400000+0xbb6c (0040bb6c)
0040bb60 e8accaffff      call    image00400000+0x8611 (00408611)
0040bb65 83c040          add     eax,40h
0040bb68 3bf0            cmp     esi,eax
0040bb6a 750d            jne     image00400000+0xbb79 (0040bb79)
0040bb6c ff750c          push    dword ptr [ebp+0Ch]
0040bb6f e847caffff      call    image00400000+0x85bb (004085bb)
0040bb74 59              pop     ecx
0040bb75 85c0            test    eax,eax
0040bb77 7507            jne     image00400000+0xbb80 (0040bb80)
0040bb79 56              push    esi
0040bb7a e8f3c9ffff      call    image00400000+0x8572 (00408572)
0040bb7f 59              pop     ecx
0040bb80 f7460c08010000  test    dword ptr [esi+0Ch],108h
0040bb87 57              push    edi
0040bb88 0f8483000000    je      image00400000+0xbc11 (0040bc11)
0040bb8e 8b4608          mov     eax,dword ptr [esi+8]
0040bb91 8b3e            mov     edi,dword ptr [esi]
0040bb93 8d4802          lea     ecx,[eax+2]
0040bb96 890e            mov     dword ptr [esi],ecx
0040bb98 8b4e18          mov     ecx,dword ptr [esi+18h]
0040bb9b 2bf8            sub     edi,eax
0040bb9d 2bcb            sub     ecx,ebx
0040bb9f 894e04          mov     dword ptr [esi+4],ecx
0040bba2 85ff            test    edi,edi
0040bba4 7e1d            jle     image00400000+0xbbc3 (0040bbc3)
0040bba6 57              push    edi
0040bba7 50              push    eax
0040bba8 ff750c          push    dword ptr [ebp+0Ch]
0040bbab e8eec8ffff      call    image00400000+0x849e (0040849e)
0040bbb0 83c40c          add     esp,0Ch
0040bbb3 8945fc          mov     dword ptr [ebp-4],eax
0040bbb6 eb4e            jmp     image00400000+0xbc06 (0040bc06)
0040bbb8 83c820          or      eax,20h
0040bbbb 89460c          mov     dword ptr [esi+0Ch],eax
0040bbbe e93dffffff      jmp     image00400000+0xbb00 (0040bb00)
0040bbc3 8b4d0c          mov     ecx,dword ptr [ebp+0Ch]
0040bbc6 83f9ff          cmp     ecx,0FFFFFFFFh
0040bbc9 741b            je      image00400000+0xbbe6 (0040bbe6)
0040bbcb 83f9fe          cmp     ecx,0FFFFFFFEh
0040bbce 7416            je      image00400000+0xbbe6 (0040bbe6)
0040bbd0 8bc1            mov     eax,ecx
0040bbd2 83e01f          and     eax,1Fh
0040bbd5 8bd1            mov     edx,ecx
0040bbd7 c1fa05          sar     edx,5
0040bbda c1e006          shl     eax,6
0040bbdd 030495a02b4100  add     eax,dword ptr image00400000+0x12ba0 (00412ba0)[edx*4]
0040bbe4 eb05            jmp     image00400000+0xbbeb (0040bbeb)
0040bbe6 b820094100      mov     eax,offset image00400000+0x10920 (00410920)
0040bbeb f6400420        test    byte ptr [eax+4],20h
0040bbef 7415            je      image00400000+0xbc06 (0040bc06)
0040bbf1 53              push    ebx
0040bbf2 6a00            push    0
0040bbf4 6a00            push    0
0040bbf6 51              push    ecx
0040bbf7 e8bbc0ffff      call    image00400000+0x7cb7 (00407cb7)
0040bbfc 23c2            and     eax,edx
0040bbfe 83c410          add     esp,10h
0040bc01 83f8ff          cmp     eax,0FFFFFFFFh
0040bc04 742d            je      image00400000+0xbc33 (0040bc33)
0040bc06 8b4608          mov     eax,dword ptr [esi+8]
0040bc09 8b5d08          mov     ebx,dword ptr [ebp+8]
0040bc0c 668918          mov     word ptr [eax],bx
0040bc0f eb1d            jmp     image00400000+0xbc2e (0040bc2e)
0040bc11 6a02            push    2
0040bc13 8d45fc          lea     eax,[ebp-4]
0040bc16 50              push    eax
0040bc17 ff750c          push    dword ptr [ebp+0Ch]
0040bc1a 8bfb            mov     edi,ebx
0040bc1c 8b5d08          mov     ebx,dword ptr [ebp+8]
0040bc1f 66895dfc        mov     word ptr [ebp-4],bx
0040bc23 e876c8ffff      call    image00400000+0x849e (0040849e)
0040bc28 83c40c          add     esp,0Ch
0040bc2b 8945fc          mov     dword ptr [ebp-4],eax
0040bc2e 397dfc          cmp     dword ptr [ebp-4],edi
0040bc31 740b            je      image00400000+0xbc3e (0040bc3e)
0040bc33 834e0c20        or      dword ptr [esi+0Ch],20h
0040bc37 b8ffff0000      mov     eax,0FFFFh
0040bc3c eb07            jmp     image00400000+0xbc45 (0040bc45)
0040bc3e 8bc3            mov     eax,ebx
0040bc40 25ffff0000      and     eax,0FFFFh
0040bc45 5f              pop     edi
0040bc46 5b              pop     ebx
0040bc47 5e              pop     esi
0040bc48 c9              leave
0040bc49 c3              ret
0040bc4a cc              int     3
0040bc4b cc              int     3
0040bc4c cc              int     3
0040bc4d cc              int     3
0040bc4e cc              int     3
0040bc4f cc              int     3
0040bc50 55              push    ebp
0040bc51 8bec            mov     ebp,esp
0040bc53 53              push    ebx
0040bc54 56              push    esi
0040bc55 57              push    edi
0040bc56 55              push    ebp
0040bc57 6a00            push    0
0040bc59 6a00            push    0
0040bc5b 6868bc4000      push    offset image00400000+0xbc68 (0040bc68)
0040bc60 ff7508          push    dword ptr [ebp+8]
0040bc63 e80a050000      call    image00400000+0xc172 (0040c172)
0040bc68 5d              pop     ebp
0040bc69 5f              pop     edi
0040bc6a 5e              pop     esi
0040bc6b 5b              pop     ebx
0040bc6c 8be5            mov     esp,ebp
0040bc6e 5d              pop     ebp
0040bc6f c3              ret
0040bc70 8b4c2404        mov     ecx,dword ptr [esp+4]
0040bc74 f7410406000000  test    dword ptr [ecx+4],6
0040bc7b b801000000      mov     eax,1
0040bc80 7432            je      image00400000+0xbcb4 (0040bcb4)
0040bc82 8b442414        mov     eax,dword ptr [esp+14h]
0040bc86 8b48fc          mov     ecx,dword ptr [eax-4]
0040bc89 33c8            xor     ecx,eax
0040bc8b e86b68ffff      call    image00400000+0x24fb (004024fb)
0040bc90 55              push    ebp
0040bc91 8b6810          mov     ebp,dword ptr [eax+10h]
0040bc94 8b5028          mov     edx,dword ptr [eax+28h]
0040bc97 52              push    edx
0040bc98 8b5024          mov     edx,dword ptr [eax+24h]
0040bc9b 52              push    edx
0040bc9c e814000000      call    image00400000+0xbcb5 (0040bcb5)
0040bca1 83c408          add     esp,8
0040bca4 5d              pop     ebp
0040bca5 8b442408        mov     eax,dword ptr [esp+8]
0040bca9 8b542410        mov     edx,dword ptr [esp+10h]
0040bcad 8902            mov     dword ptr [edx],eax
0040bcaf b803000000      mov     eax,3
0040bcb4 c3              ret
0040bcb5 53              push    ebx
0040bcb6 56              push    esi
0040bcb7 57              push    edi
0040bcb8 8b442410        mov     eax,dword ptr [esp+10h]
0040bcbc 55              push    ebp
0040bcbd 50              push    eax
0040bcbe 6afe            push    0FFFFFFFEh
0040bcc0 6870bc4000      push    offset image00400000+0xbc70 (0040bc70)
0040bcc5 64ff3500000000  push    dword ptr fs:[0]
0040bccc a104004100      mov     eax,dword ptr [image00400000+0x10004 (00410004)]
0040bcd1 33c4            xor     eax,esp
0040bcd3 50              push    eax
0040bcd4 8d442404        lea     eax,[esp+4]
0040bcd8 64a300000000    mov     dword ptr fs:[00000000h],eax
0040bcde 8b442428        mov     eax,dword ptr [esp+28h]
0040bce2 8b5808          mov     ebx,dword ptr [eax+8]
0040bce5 8b700c          mov     esi,dword ptr [eax+0Ch]
0040bce8 83feff          cmp     esi,0FFFFFFFFh
0040bceb 743a            je      image00400000+0xbd27 (0040bd27)
0040bced 837c242cff      cmp     dword ptr [esp+2Ch],0FFFFFFFFh
0040bcf2 7406            je      image00400000+0xbcfa (0040bcfa)
0040bcf4 3b74242c        cmp     esi,dword ptr [esp+2Ch]
0040bcf8 762d            jbe     image00400000+0xbd27 (0040bd27)
0040bcfa 8d3476          lea     esi,[esi+esi*2]
0040bcfd 8b0cb3          mov     ecx,dword ptr [ebx+esi*4]
0040bd00 894c240c        mov     dword ptr [esp+0Ch],ecx
0040bd04 89480c          mov     dword ptr [eax+0Ch],ecx
0040bd07 837cb30400      cmp     dword ptr [ebx+esi*4+4],0
0040bd0c 7517            jne     image00400000+0xbd25 (0040bd25)
0040bd0e 6801010000      push    101h
0040bd13 8b44b308        mov     eax,dword ptr [ebx+esi*4+8]
0040bd17 e849000000      call    image00400000+0xbd65 (0040bd65)
0040bd1c 8b44b308        mov     eax,dword ptr [ebx+esi*4+8]
0040bd20 e85f000000      call    image00400000+0xbd84 (0040bd84)
0040bd25 ebb7            jmp     image00400000+0xbcde (0040bcde)
0040bd27 8b4c2404        mov     ecx,dword ptr [esp+4]
0040bd2b 64890d00000000  mov     dword ptr fs:[0],ecx
0040bd32 83c418          add     esp,18h
0040bd35 5f              pop     edi
0040bd36 5e              pop     esi
0040bd37 5b              pop     ebx
0040bd38 c3              ret
0040bd39 33c0            xor     eax,eax
0040bd3b 648b0d00000000  mov     ecx,dword ptr fs:[0]
0040bd42 81790470bc4000  cmp     dword ptr [ecx+4],offset image00400000+0xbc70 (0040bc70)
0040bd49 7510            jne     image00400000+0xbd5b (0040bd5b)
0040bd4b 8b510c          mov     edx,dword ptr [ecx+0Ch]
0040bd4e 8b520c          mov     edx,dword ptr [edx+0Ch]
0040bd51 395108          cmp     dword ptr [ecx+8],edx
0040bd54 7505            jne     image00400000+0xbd5b (0040bd5b)
0040bd56 b801000000      mov     eax,1
0040bd5b c3              ret
0040bd5c 53              push    ebx
0040bd5d 51              push    ecx
0040bd5e bbc00e4100      mov     ebx,offset image00400000+0x10ec0 (00410ec0)
0040bd63 eb0b            jmp     image00400000+0xbd70 (0040bd70)
0040bd65 53              push    ebx
0040bd66 51              push    ecx
0040bd67 bbc00e4100      mov     ebx,offset image00400000+0x10ec0 (00410ec0)
0040bd6c 8b4c240c        mov     ecx,dword ptr [esp+0Ch]
0040bd70 894b08          mov     dword ptr [ebx+8],ecx
0040bd73 894304          mov     dword ptr [ebx+4],eax
0040bd76 896b0c          mov     dword ptr [ebx+0Ch],ebp
0040bd79 55              push    ebp
0040bd7a 51              push    ecx
0040bd7b 50              push    eax
0040bd7c 58              pop     eax
0040bd7d 59              pop     ecx
0040bd7e 5d              pop     ebp
0040bd7f 59              pop     ecx
0040bd80 5b              pop     ebx
0040bd81 c20400          ret     4
0040bd84 ffd0            call    eax
0040bd86 c3              ret
0040bd87 33c0            xor     eax,eax
0040bd89 50              push    eax
0040bd8a 50              push    eax
0040bd8b 6a03            push    3
0040bd8d 50              push    eax
0040bd8e 6a03            push    3
0040bd90 6800000040      push    40000000h
0040bd95 68f0e94000      push    offset image00400000+0xe9f0 (0040e9f0)
0040bd9a ff1554d04000    call    dword ptr [image00400000+0xd054 (0040d054)]
0040bda0 a3d00e4100      mov     dword ptr [image00400000+0x10ed0 (00410ed0)],eax
0040bda5 c3              ret
0040bda6 a1d00e4100      mov     eax,dword ptr [image00400000+0x10ed0 (00410ed0)]
0040bdab 83f8ff          cmp     eax,0FFFFFFFFh
0040bdae 740c            je      image00400000+0xbdbc (0040bdbc)
0040bdb0 83f8fe          cmp     eax,0FFFFFFFEh
0040bdb3 7407            je      image00400000+0xbdbc (0040bdbc)
0040bdb5 50              push    eax
0040bdb6 ff1558d04000    call    dword ptr [image00400000+0xd058 (0040d058)]
0040bdbc c3              ret
0040bdbd 8bff            mov     edi,edi
0040bdbf 55              push    ebp
0040bdc0 8bec            mov     ebp,esp
0040bdc2 56              push    esi
0040bdc3 8b7508          mov     esi,dword ptr [ebp+8]
0040bdc6 57              push    edi
0040bdc7 83cfff          or      edi,0FFFFFFFFh
0040bdca 85f6            test    esi,esi
0040bdcc 7514            jne     image00400000+0xbde2 (0040bde2)
0040bdce e85e80ffff      call    image00400000+0x3e31 (00403e31)
0040bdd3 c70016000000    mov     dword ptr [eax],16h
0040bdd9 e80180ffff      call    image00400000+0x3ddf (00403ddf)
0040bdde 0bc7            or      eax,edi
0040bde0 eb44            jmp     image00400000+0xbe26 (0040be26)
0040bde2 f6460c83        test    byte ptr [esi+0Ch],83h
0040bde6 7438            je      image00400000+0xbe20 (0040be20)
0040bde8 56              push    esi
0040bde9 e817f0ffff      call    image00400000+0xae05 (0040ae05)
0040bdee 56              push    esi
0040bdef 8bf8            mov     edi,eax
0040bdf1 e84b030000      call    image00400000+0xc141 (0040c141)
0040bdf6 56              push    esi
0040bdf7 e8cac9ffff      call    image00400000+0x87c6 (004087c6)
0040bdfc 50              push    eax
0040bdfd e87b020000      call    image00400000+0xc07d (0040c07d)
0040be02 83c410          add     esp,10h
0040be05 85c0            test    eax,eax
0040be07 7905            jns     image00400000+0xbe0e (0040be0e)
0040be09 83cfff          or      edi,0FFFFFFFFh
0040be0c eb12            jmp     image00400000+0xbe20 (0040be20)
0040be0e 8b461c          mov     eax,dword ptr [esi+1Ch]
0040be11 85c0            test    eax,eax
0040be13 740b            je      image00400000+0xbe20 (0040be20)
0040be15 50              push    eax
0040be16 e80368ffff      call    image00400000+0x261e (0040261e)
0040be1b 83661c00        and     dword ptr [esi+1Ch],0
0040be1f 59              pop     ecx
0040be20 83660c00        and     dword ptr [esi+0Ch],0
0040be24 8bc7            mov     eax,edi
0040be26 5f              pop     edi
0040be27 5e              pop     esi
0040be28 5d              pop     ebp
0040be29 c3              ret
0040be2a 6a0c            push    0Ch
0040be2c 6818f14000      push    offset image00400000+0xf118 (0040f118)
0040be31 e86abbffff      call    image00400000+0x79a0 (004079a0)
0040be36 834de4ff        or      dword ptr [ebp-1Ch],0FFFFFFFFh
0040be3a 33c0            xor     eax,eax
0040be3c 8b7508          mov     esi,dword ptr [ebp+8]
0040be3f 85f6            test    esi,esi
0040be41 0f95c0          setne   al
0040be44 85c0            test    eax,eax
0040be46 7515            jne     image00400000+0xbe5d (0040be5d)
0040be48 e8e47fffff      call    image00400000+0x3e31 (00403e31)
0040be4d c70016000000    mov     dword ptr [eax],16h
0040be53 e8877fffff      call    image00400000+0x3ddf (00403ddf)
0040be58 83c8ff          or      eax,0FFFFFFFFh
0040be5b eb0d            jmp     image00400000+0xbe6a (0040be6a)
0040be5d f6460c40        test    byte ptr [esi+0Ch],40h
0040be61 740d            je      image00400000+0xbe70 (0040be70)
0040be63 83660c00        and     dword ptr [esi+0Ch],0
0040be67 8b45e4          mov     eax,dword ptr [ebp-1Ch]
0040be6a e876bbffff      call    image00400000+0x79e5 (004079e5)
0040be6f c3              ret
0040be70 56              push    esi
0040be71 e872c8ffff      call    image00400000+0x86e8 (004086e8)
0040be76 59              pop     ecx
0040be77 8365fc00        and     dword ptr [ebp-4],0
0040be7b 56              push    esi
0040be7c e83cffffff      call    image00400000+0xbdbd (0040bdbd)
0040be81 59              pop     ecx
0040be82 8945e4          mov     dword ptr [ebp-1Ch],eax
0040be85 c745fcfeffffff  mov     dword ptr [ebp-4],0FFFFFFFEh
0040be8c e805000000      call    image00400000+0xbe96 (0040be96)
0040be91 ebd4            jmp     image00400000+0xbe67 (0040be67)
0040be93 8b7508          mov     esi,dword ptr [ebp+8]
0040be96 56              push    esi
0040be97 e8bfc8ffff      call    image00400000+0x875b (0040875b)
0040be9c 59              pop     ecx
0040be9d c3              ret
0040be9e 6a10            push    10h
0040bea0 6838f14000      push    offset image00400000+0xf138 (0040f138)
0040bea5 e8f6baffff      call    image00400000+0x79a0 (004079a0)
0040beaa 8b5d08          mov     ebx,dword ptr [ebp+8]
0040bead 83fbfe          cmp     ebx,0FFFFFFFEh
0040beb0 7513            jne     image00400000+0xbec5 (0040bec5)
0040beb2 e87a7fffff      call    image00400000+0x3e31 (00403e31)
0040beb7 c70009000000    mov     dword ptr [eax],9
0040bebd 83c8ff          or      eax,0FFFFFFFFh
0040bec0 e9a1000000      jmp     image00400000+0xbf66 (0040bf66)
0040bec5 85db            test    ebx,ebx
0040bec7 7808            js      image00400000+0xbed1 (0040bed1)
0040bec9 3b1d8c2b4100    cmp     ebx,dword ptr [image00400000+0x12b8c (00412b8c)]
0040becf 7212            jb      image00400000+0xbee3 (0040bee3)
0040bed1 e85b7fffff      call    image00400000+0x3e31 (00403e31)
0040bed6 c70009000000    mov     dword ptr [eax],9
0040bedc e8fe7effff      call    image00400000+0x3ddf (00403ddf)
0040bee1 ebda            jmp     image00400000+0xbebd (0040bebd)
0040bee3 8bc3            mov     eax,ebx
0040bee5 c1f805          sar     eax,5
0040bee8 8d3c85a02b4100  lea     edi,image00400000+0x12ba0 (00412ba0)[eax*4]
0040beef 8bf3            mov     esi,ebx
0040bef1 83e61f          and     esi,1Fh
0040bef4 c1e606          shl     esi,6
0040bef7 8b07            mov     eax,dword ptr [edi]
0040bef9 0fbe440604      movsx   eax,byte ptr [esi+eax+4]
0040befe 83e001          and     eax,1
0040bf01 74ce            je      image00400000+0xbed1 (0040bed1)
0040bf03 53              push    ebx
0040bf04 e858edffff      call    image00400000+0xac61 (0040ac61)
0040bf09 59              pop     ecx
0040bf0a 8365fc00        and     dword ptr [ebp-4],0
0040bf0e 8b07            mov     eax,dword ptr [edi]
0040bf10 f644060401      test    byte ptr [esi+eax+4],1
0040bf15 7431            je      image00400000+0xbf48 (0040bf48)
0040bf17 53              push    ebx
0040bf18 e8dbecffff      call    image00400000+0xabf8 (0040abf8)
0040bf1d 59              pop     ecx
0040bf1e 50              push    eax
0040bf1f ff1550d14000    call    dword ptr [image00400000+0xd150 (0040d150)]
0040bf25 85c0            test    eax,eax
0040bf27 750b            jne     image00400000+0xbf34 (0040bf34)
0040bf29 ff1584d04000    call    dword ptr [image00400000+0xd084 (0040d084)]
0040bf2f 8945e4          mov     dword ptr [ebp-1Ch],eax
0040bf32 eb04            jmp     image00400000+0xbf38 (0040bf38)
0040bf34 8365e400        and     dword ptr [ebp-1Ch],0
0040bf38 837de400        cmp     dword ptr [ebp-1Ch],0
0040bf3c 7419            je      image00400000+0xbf57 (0040bf57)
0040bf3e e8017fffff      call    image00400000+0x3e44 (00403e44)
0040bf43 8b4de4          mov     ecx,dword ptr [ebp-1Ch]
0040bf46 8908            mov     dword ptr [eax],ecx
0040bf48 e8e47effff      call    image00400000+0x3e31 (00403e31)
0040bf4d c70009000000    mov     dword ptr [eax],9
0040bf53 834de4ff        or      dword ptr [ebp-1Ch],0FFFFFFFFh
0040bf57 c745fcfeffffff  mov     dword ptr [ebp-4],0FFFFFFFEh
0040bf5e e80c000000      call    image00400000+0xbf6f (0040bf6f)
0040bf63 8b45e4          mov     eax,dword ptr [ebp-1Ch]
0040bf66 e87abaffff      call    image00400000+0x79e5 (004079e5)
0040bf6b c3              ret
0040bf6c 8b5d08          mov     ebx,dword ptr [ebp+8]
0040bf6f 53              push    ebx
0040bf70 e88bedffff      call    image00400000+0xad00 (0040ad00)
0040bf75 59              pop     ecx
0040bf76 c3              ret
0040bf77 cc              int     3
0040bf78 cc              int     3
0040bf79 cc              int     3
0040bf7a cc              int     3
0040bf7b cc              int     3
0040bf7c cc              int     3
0040bf7d cc              int     3
0040bf7e cc              int     3
0040bf7f cc              int     3
0040bf80 55              push    ebp
0040bf81 8bec            mov     ebp,esp
0040bf83 57              push    edi
0040bf84 56              push    esi
0040bf85 53              push    ebx
0040bf86 8b4d10          mov     ecx,dword ptr [ebp+10h]
0040bf89 0bc9            or      ecx,ecx
0040bf8b 744d            je      image00400000+0xbfda (0040bfda)
0040bf8d 8b7508          mov     esi,dword ptr [ebp+8]
0040bf90 8b7d0c          mov     edi,dword ptr [ebp+0Ch]
0040bf93 b741            mov     bh,41h
0040bf95 b35a            mov     bl,5Ah
0040bf97 b620            mov     dh,20h
0040bf99 8d4900          lea     ecx,[ecx]
0040bf9c 8a26            mov     ah,byte ptr [esi]
0040bf9e 0ae4            or      ah,ah
0040bfa0 8a07            mov     al,byte ptr [edi]
0040bfa2 7427            je      image00400000+0xbfcb (0040bfcb)
0040bfa4 0ac0            or      al,al
0040bfa6 7423            je      image00400000+0xbfcb (0040bfcb)
0040bfa8 83c601          add     esi,1
0040bfab 83c701          add     edi,1
0040bfae 3ae7            cmp     ah,bh
0040bfb0 7206            jb      image00400000+0xbfb8 (0040bfb8)
0040bfb2 3ae3            cmp     ah,bl
0040bfb4 7702            ja      image00400000+0xbfb8 (0040bfb8)
0040bfb6 02e6            add     ah,dh
0040bfb8 3ac7            cmp     al,bh
0040bfba 7206            jb      image00400000+0xbfc2 (0040bfc2)
0040bfbc 3ac3            cmp     al,bl
0040bfbe 7702            ja      image00400000+0xbfc2 (0040bfc2)
0040bfc0 02c6            add     al,dh
0040bfc2 3ae0            cmp     ah,al
0040bfc4 750b            jne     image00400000+0xbfd1 (0040bfd1)
0040bfc6 83e901          sub     ecx,1
0040bfc9 75d1            jne     image00400000+0xbf9c (0040bf9c)
0040bfcb 33c9            xor     ecx,ecx
0040bfcd 3ae0            cmp     ah,al
0040bfcf 7409            je      image00400000+0xbfda (0040bfda)
0040bfd1 b9ffffffff      mov     ecx,0FFFFFFFFh
0040bfd6 7202            jb      image00400000+0xbfda (0040bfda)
0040bfd8 f7d9            neg     ecx
0040bfda 8bc1            mov     eax,ecx
0040bfdc 5b              pop     ebx
0040bfdd 5e              pop     esi
0040bfde 5f              pop     edi
0040bfdf c9              leave
0040bfe0 c3              ret
0040bfe1 8bff            mov     edi,edi
0040bfe3 55              push    ebp
0040bfe4 8bec            mov     ebp,esp
0040bfe6 56              push    esi
0040bfe7 8b7508          mov     esi,dword ptr [ebp+8]
0040bfea 57              push    edi
0040bfeb 56              push    esi
0040bfec e807ecffff      call    image00400000+0xabf8 (0040abf8)
0040bff1 59              pop     ecx
0040bff2 83f8ff          cmp     eax,0FFFFFFFFh
0040bff5 7450            je      image00400000+0xc047 (0040c047)
0040bff7 a1a02b4100      mov     eax,dword ptr [image00400000+0x12ba0 (00412ba0)]
0040bffc 83fe01          cmp     esi,1
0040bfff 7509            jne     image00400000+0xc00a (0040c00a)
0040c001 f6808400000001  test    byte ptr [eax+84h],1
0040c008 750b            jne     image00400000+0xc015 (0040c015)
0040c00a 83fe02          cmp     esi,2
0040c00d 751c            jne     image00400000+0xc02b (0040c02b)
0040c00f f6404401        test    byte ptr [eax+44h],1
0040c013 7416            je      image00400000+0xc02b (0040c02b)
0040c015 6a02            push    2
0040c017 e8dcebffff      call    image00400000+0xabf8 (0040abf8)
0040c01c 6a01            push    1
0040c01e 8bf8            mov     edi,eax
0040c020 e8d3ebffff      call    image00400000+0xabf8 (0040abf8)
0040c025 59              pop     ecx
0040c026 59              pop     ecx
0040c027 3bc7            cmp     eax,edi
0040c029 741c            je      image00400000+0xc047 (0040c047)
0040c02b 56              push    esi
0040c02c e8c7ebffff      call    image00400000+0xabf8 (0040abf8)
0040c031 59              pop     ecx
0040c032 50              push    eax
0040c033 ff1558d04000    call    dword ptr [image00400000+0xd058 (0040d058)]
0040c039 85c0            test    eax,eax
0040c03b 750a            jne     image00400000+0xc047 (0040c047)
0040c03d ff1584d04000    call    dword ptr [image00400000+0xd084 (0040d084)]
0040c043 8bf8            mov     edi,eax
0040c045 eb02            jmp     image00400000+0xc049 (0040c049)
0040c047 33ff            xor     edi,edi
0040c049 56              push    esi
0040c04a e823ebffff      call    image00400000+0xab72 (0040ab72)
0040c04f 8bc6            mov     eax,esi
0040c051 c1f805          sar     eax,5
0040c054 8b0485a02b4100  mov     eax,dword ptr image00400000+0x12ba0 (00412ba0)[eax*4]
0040c05b 83e61f          and     esi,1Fh
0040c05e c1e606          shl     esi,6
0040c061 59              pop     ecx
0040c062 c644300400      mov     byte ptr [eax+esi+4],0
0040c067 85ff            test    edi,edi
0040c069 740c            je      image00400000+0xc077 (0040c077)
0040c06b 57              push    edi
0040c06c e8e67dffff      call    image00400000+0x3e57 (00403e57)
0040c071 59              pop     ecx
0040c072 83c8ff          or      eax,0FFFFFFFFh
0040c075 eb02            jmp     image00400000+0xc079 (0040c079)
0040c077 33c0            xor     eax,eax
0040c079 5f              pop     edi
0040c07a 5e              pop     esi
0040c07b 5d              pop     ebp
0040c07c c3              ret
0040c07d 6a10            push    10h
0040c07f 6858f14000      push    offset image00400000+0xf158 (0040f158)
0040c084 e817b9ffff      call    image00400000+0x79a0 (004079a0)
0040c089 8b5d08          mov     ebx,dword ptr [ebp+8]
0040c08c 83fbfe          cmp     ebx,0FFFFFFFEh
0040c08f 751b            jne     image00400000+0xc0ac (0040c0ac)
0040c091 e8ae7dffff      call    image00400000+0x3e44 (00403e44)
0040c096 832000          and     dword ptr [eax],0
0040c099 e8937dffff      call    image00400000+0x3e31 (00403e31)
0040c09e c70009000000    mov     dword ptr [eax],9
0040c0a4 83c8ff          or      eax,0FFFFFFFFh
0040c0a7 e984000000      jmp     image00400000+0xc130 (0040c130)
0040c0ac 85db            test    ebx,ebx
0040c0ae 7808            js      image00400000+0xc0b8 (0040c0b8)
0040c0b0 3b1d8c2b4100    cmp     ebx,dword ptr [image00400000+0x12b8c (00412b8c)]
0040c0b6 721a            jb      image00400000+0xc0d2 (0040c0d2)
0040c0b8 e8877dffff      call    image00400000+0x3e44 (00403e44)
0040c0bd 832000          and     dword ptr [eax],0
0040c0c0 e86c7dffff      call    image00400000+0x3e31 (00403e31)
0040c0c5 c70009000000    mov     dword ptr [eax],9
0040c0cb e80f7dffff      call    image00400000+0x3ddf (00403ddf)
0040c0d0 ebd2            jmp     image00400000+0xc0a4 (0040c0a4)
0040c0d2 8bc3            mov     eax,ebx
0040c0d4 c1f805          sar     eax,5
0040c0d7 8d3c85a02b4100  lea     edi,image00400000+0x12ba0 (00412ba0)[eax*4]
0040c0de 8bf3            mov     esi,ebx
0040c0e0 83e61f          and     esi,1Fh
0040c0e3 c1e606          shl     esi,6
0040c0e6 8b07            mov     eax,dword ptr [edi]
0040c0e8 0fbe443004      movsx   eax,byte ptr [eax+esi+4]
0040c0ed 83e001          and     eax,1
0040c0f0 74c6            je      image00400000+0xc0b8 (0040c0b8)
0040c0f2 53              push    ebx
0040c0f3 e869ebffff      call    image00400000+0xac61 (0040ac61)
0040c0f8 59              pop     ecx
0040c0f9 8365fc00        and     dword ptr [ebp-4],0
0040c0fd 8b07            mov     eax,dword ptr [edi]
0040c0ff f644300401      test    byte ptr [eax+esi+4],1
0040c104 740c            je      image00400000+0xc112 (0040c112)
0040c106 53              push    ebx
0040c107 e8d5feffff      call    image00400000+0xbfe1 (0040bfe1)
0040c10c 59              pop     ecx
0040c10d 8945e4          mov     dword ptr [ebp-1Ch],eax
0040c110 eb0f            jmp     image00400000+0xc121 (0040c121)
0040c112 e81a7dffff      call    image00400000+0x3e31 (00403e31)
0040c117 c70009000000    mov     dword ptr [eax],9
0040c11d 834de4ff        or      dword ptr [ebp-1Ch],0FFFFFFFFh
0040c121 c745fcfeffffff  mov     dword ptr [ebp-4],0FFFFFFFEh
0040c128 e80c000000      call    image00400000+0xc139 (0040c139)
0040c12d 8b45e4          mov     eax,dword ptr [ebp-1Ch]
0040c130 e8b0b8ffff      call    image00400000+0x79e5 (004079e5)
0040c135 c3              ret
0040c136 8b5d08          mov     ebx,dword ptr [ebp+8]
0040c139 53              push    ebx
0040c13a e8c1ebffff      call    image00400000+0xad00 (0040ad00)
0040c13f 59              pop     ecx
0040c140 c3              ret
0040c141 8bff            mov     edi,edi
0040c143 55              push    ebp
0040c144 8bec            mov     ebp,esp
0040c146 56              push    esi
0040c147 8b7508          mov     esi,dword ptr [ebp+8]
0040c14a 8b460c          mov     eax,dword ptr [esi+0Ch]
0040c14d a883            test    al,83h
0040c14f 741e            je      image00400000+0xc16f (0040c16f)
0040c151 a808            test    al,8
0040c153 741a            je      image00400000+0xc16f (0040c16f)
0040c155 ff7608          push    dword ptr [esi+8]
0040c158 e8c164ffff      call    image00400000+0x261e (0040261e)
0040c15d 81660cf7fbffff  and     dword ptr [esi+0Ch],0FFFFFBF7h
0040c164 33c0            xor     eax,eax
0040c166 59              pop     ecx
0040c167 8906            mov     dword ptr [esi],eax
0040c169 894608          mov     dword ptr [esi+8],eax
0040c16c 894604          mov     dword ptr [esi+4],eax
0040c16f 5e              pop     esi
0040c170 5d              pop     ebp
0040c171 c3              ret
0040c172 ff2548d04000    jmp     dword ptr [image00400000+0xd048 (0040d048)]
0040c178 cc              int     3
0040c179 cc              int     3
0040c17a cc              int     3
0040c17b cc              int     3
0040c17c cc              int     3
0040c17d cc              int     3
0040c17e cc              int     3
0040c17f cc              int     3
0040c180 53              push    ebx
0040c181 8b442414        mov     eax,dword ptr [esp+14h]
0040c185 0bc0            or      eax,eax
0040c187 7518            jne     image00400000+0xc1a1 (0040c1a1)
0040c189 8b4c2410        mov     ecx,dword ptr [esp+10h]
0040c18d 8b44240c        mov     eax,dword ptr [esp+0Ch]
0040c191 33d2            xor     edx,edx
0040c193 f7f1            div     eax,ecx
0040c195 8b442408        mov     eax,dword ptr [esp+8]
0040c199 f7f1            div     eax,ecx
0040c19b 8bc2            mov     eax,edx
0040c19d 33d2            xor     edx,edx
0040c19f eb50            jmp     image00400000+0xc1f1 (0040c1f1)
0040c1a1 8bc8            mov     ecx,eax
0040c1a3 8b5c2410        mov     ebx,dword ptr [esp+10h]
0040c1a7 8b54240c        mov     edx,dword ptr [esp+0Ch]
0040c1ab 8b442408        mov     eax,dword ptr [esp+8]
0040c1af d1e9            shr     ecx,1
0040c1b1 d1db            rcr     ebx,1
0040c1b3 d1ea            shr     edx,1
0040c1b5 d1d8            rcr     eax,1
0040c1b7 0bc9            or      ecx,ecx
0040c1b9 75f4            jne     image00400000+0xc1af (0040c1af)
0040c1bb f7f3            div     eax,ebx
0040c1bd 8bc8            mov     ecx,eax
0040c1bf f7642414        mul     eax,dword ptr [esp+14h]
0040c1c3 91              xchg    eax,ecx
0040c1c4 f7642410        mul     eax,dword ptr [esp+10h]
0040c1c8 03d1            add     edx,ecx
0040c1ca 720e            jb      image00400000+0xc1da (0040c1da)
0040c1cc 3b54240c        cmp     edx,dword ptr [esp+0Ch]
0040c1d0 7708            ja      image00400000+0xc1da (0040c1da)
0040c1d2 720e            jb      image00400000+0xc1e2 (0040c1e2)
0040c1d4 3b442408        cmp     eax,dword ptr [esp+8]
0040c1d8 7608            jbe     image00400000+0xc1e2 (0040c1e2)
0040c1da 2b442410        sub     eax,dword ptr [esp+10h]
0040c1de 1b542414        sbb     edx,dword ptr [esp+14h]
0040c1e2 2b442408        sub     eax,dword ptr [esp+8]
0040c1e6 1b54240c        sbb     edx,dword ptr [esp+0Ch]
0040c1ea f7da            neg     edx
0040c1ec f7d8            neg     eax
0040c1ee 83da00          sbb     edx,0
0040c1f1 5b              pop     ebx
0040c1f2 c21000          ret     10h
