10001000 55              push    ebp
10001001 8bec            mov     ebp,esp
10001003 ff4d0c          dec     dword ptr [ebp+0Ch]
10001006 7508            jne     10001010
10001008 8b4508          mov     eax,dword ptr [ebp+8]
1000100b a3808d0010      mov     dword ptr ds:[10008D80h],eax
10001010 b801000000      mov     eax,1
10001015 5d              pop     ebp
10001016 c20c00          ret     0Ch
10001019 cc              int     3
1000101a cc              int     3
1000101b cc              int     3
1000101c cc              int     3
1000101d cc              int     3
1000101e cc              int     3
1000101f cc              int     3
10001020 55              push    ebp
10001021 8bec            mov     ebp,esp
10001023 ff750c          push    dword ptr [ebp+0Ch]
10001026 e855030000      call    10001380
1000102b 83c404          add     esp,4
1000102e b82a000000      mov     eax,2Ah
10001033 5d              pop     ebp
10001034 c20800          ret     8
10001037 cc              int     3
10001038 cc              int     3
10001039 cc              int     3
1000103a cc              int     3
1000103b cc              int     3
1000103c cc              int     3
1000103d cc              int     3
1000103e cc              int     3
1000103f cc              int     3
10001040 55              push    ebp
10001041 8bec            mov     ebp,esp
10001043 83ec0c          sub     esp,0Ch
10001046 8b4508          mov     eax,dword ptr [ebp+8]
10001049 53              push    ebx
1000104a 56              push    esi
1000104b 8b30            mov     esi,dword ptr [eax]
1000104d 57              push    edi
1000104e 8bfa            mov     edi,edx
10001050 8b5004          mov     edx,dword ptr [eax+4]
10001053 0fb74614        movzx   eax,word ptr [esi+14h]
10001057 894df8          mov     dword ptr [ebp-8],ecx
1000105a 33c9            xor     ecx,ecx
1000105c 33db            xor     ebx,ebx
1000105e 897df4          mov     dword ptr [ebp-0Ch],edi
10001061 8955fc          mov     dword ptr [ebp-4],edx
10001064 663b4e06        cmp     cx,word ptr [esi+6]
10001068 737a            jae     100010e4
1000106a 8b0d00a00010    mov     ecx,dword ptr ds:[1000A000h]
10001070 83c628          add     esi,28h
10001073 03f0            add     esi,eax
10001075 8b06            mov     eax,dword ptr [esi]
10001077 85c0            test    eax,eax
10001079 7525            jne     100010a0
1000107b 8b7f38          mov     edi,dword ptr [edi+38h]
1000107e 85ff            test    edi,edi
10001080 7e4e            jle     100010d0
10001082 8b46fc          mov     eax,dword ptr [esi-4]
10001085 6a40            push    40h
10001087 6800100000      push    1000h
1000108c 57              push    edi
1000108d 03c2            add     eax,edx
1000108f 50              push    eax
10001090 ffd1            call    ecx
10001092 57              push    edi
10001093 6a00            push    0
10001095 50              push    eax
10001096 8946f8          mov     dword ptr [esi-8],eax
10001099 e8723f0000      call    10005010
1000109e eb24            jmp     100010c4
100010a0 6a40            push    40h
100010a2 6800100000      push    1000h
100010a7 50              push    eax
100010a8 8b46fc          mov     eax,dword ptr [esi-4]
100010ab 03c2            add     eax,edx
100010ad 50              push    eax
100010ae ffd1            call    ecx
100010b0 8b4e04          mov     ecx,dword ptr [esi+4]
100010b3 ff36            push    dword ptr [esi]
100010b5 034df8          add     ecx,dword ptr [ebp-8]
100010b8 8bf8            mov     edi,eax
100010ba 51              push    ecx
100010bb 57              push    edi
100010bc e8ef490000      call    10005ab0
100010c1 897ef8          mov     dword ptr [esi-8],edi
100010c4 8b55fc          mov     edx,dword ptr [ebp-4]
100010c7 8b0d00a00010    mov     ecx,dword ptr ds:[1000A000h]
100010cd 83c40c          add     esp,0Ch
100010d0 8b4508          mov     eax,dword ptr [ebp+8]
100010d3 8b7df4          mov     edi,dword ptr [ebp-0Ch]
100010d6 8b00            mov     eax,dword ptr [eax]
100010d8 43              inc     ebx
100010d9 0fb74006        movzx   eax,word ptr [eax+6]
100010dd 83c628          add     esi,28h
100010e0 3bd8            cmp     ebx,eax
100010e2 7c91            jl      10001075
100010e4 5f              pop     edi
100010e5 5e              pop     esi
100010e6 5b              pop     ebx
100010e7 8be5            mov     esp,ebp
100010e9 5d              pop     ebp
100010ea c3              ret
100010eb cc              int     3
100010ec cc              int     3
100010ed cc              int     3
100010ee cc              int     3
100010ef cc              int     3
100010f0 55              push    ebp
100010f1 8bec            mov     ebp,esp
100010f3 83ec0c          sub     esp,0Ch
100010f6 8bc1            mov     eax,ecx
100010f8 53              push    ebx
100010f9 8b10            mov     edx,dword ptr [eax]
100010fb 33c9            xor     ecx,ecx
100010fd 33db            xor     ebx,ebx
100010ff 8945f8          mov     dword ptr [ebp-8],eax
10001102 0fb74214        movzx   eax,word ptr [edx+14h]
10001106 663b4a06        cmp     cx,word ptr [edx+6]
1000110a 0f839d000000    jae     100011ad
10001110 56              push    esi
10001111 8d723c          lea     esi,[edx+3Ch]
10001114 57              push    edi
10001115 03f0            add     esi,eax
10001117 8b0e            mov     ecx,dword ptr [esi]
10001119 8bc1            mov     eax,ecx
1000111b 8bf9            mov     edi,ecx
1000111d c1e81d          shr     eax,1Dh
10001120 c1ef1e          shr     edi,1Eh
10001123 894dfc          mov     dword ptr [ebp-4],ecx
10001126 c16dfc1f        shr     dword ptr [ebp-4],1Fh
1000112a 83e001          and     eax,1
1000112d 83e701          and     edi,1
10001130 f7c100000002    test    ecx,2000000h
10001136 7413            je      1000114b
10001138 6800400000      push    4000h
1000113d ff76ec          push    dword ptr [esi-14h]
10001140 ff76e4          push    dword ptr [esi-1Ch]
10001143 ff1504a00010    call    dword ptr ds:[1000A004h]
10001149 eb4b            jmp     10001196
1000114b 8d0447          lea     eax,[edi+eax*2]
1000114e 8b7dfc          mov     edi,dword ptr [ebp-4]
10001151 8d0447          lea     eax,[edi+eax*2]
10001154 8b3c8590fd0010  mov     edi,dword ptr [eax*4+1000FD90h]
1000115b f7c100000004    test    ecx,4000000h
10001161 7406            je      10001169
10001163 81cf00020000    or      edi,200h
10001169 8b46ec          mov     eax,dword ptr [esi-14h]
1000116c 85c0            test    eax,eax
1000116e 7515            jne     10001185
10001170 f6c140          test    cl,40h
10001173 7405            je      1000117a
10001175 8b4220          mov     eax,dword ptr [edx+20h]
10001178 eb07            jmp     10001181
1000117a 84c9            test    cl,cl
1000117c 7918            jns     10001196
1000117e 8b4224          mov     eax,dword ptr [edx+24h]
10001181 85c0            test    eax,eax
10001183 7411            je      10001196
10001185 8d45f4          lea     eax,[ebp-0Ch]
10001188 50              push    eax
10001189 57              push    edi
1000118a ff76ec          push    dword ptr [esi-14h]
1000118d ff76e4          push    dword ptr [esi-1Ch]
10001190 ff1508a00010    call    dword ptr ds:[1000A008h]
10001196 8b45f8          mov     eax,dword ptr [ebp-8]
10001199 43              inc     ebx
1000119a 8b10            mov     edx,dword ptr [eax]
1000119c 83c628          add     esi,28h
1000119f 0fb74206        movzx   eax,word ptr [edx+6]
100011a3 3bd8            cmp     ebx,eax
100011a5 0f8c6cffffff    jl      10001117
100011ab 5f              pop     edi
100011ac 5e              pop     esi
100011ad 5b              pop     ebx
100011ae 8be5            mov     esp,ebp
100011b0 5d              pop     ebp
100011b1 c3              ret
100011b2 cc              int     3
100011b3 cc              int     3
100011b4 cc              int     3
100011b5 cc              int     3
100011b6 cc              int     3
100011b7 cc              int     3
100011b8 cc              int     3
100011b9 cc              int     3
100011ba cc              int     3
100011bb cc              int     3
100011bc cc              int     3
100011bd cc              int     3
100011be cc              int     3
100011bf cc              int     3
100011c0 55              push    ebp
100011c1 8bec            mov     ebp,esp
100011c3 83ec10          sub     esp,10h
100011c6 53              push    ebx
100011c7 8b19            mov     ebx,dword ptr [ecx]
100011c9 8955f4          mov     dword ptr [ebp-0Ch],edx
100011cc 83bba400000000  cmp     dword ptr [ebx+0A4h],0
100011d3 8b5104          mov     edx,dword ptr [ecx+4]
100011d6 8955f0          mov     dword ptr [ebp-10h],edx
100011d9 7675            jbe     10001250
100011db 8b9ba0000000    mov     ebx,dword ptr [ebx+0A0h]
100011e1 03da            add     ebx,edx
100011e3 895dfc          mov     dword ptr [ebp-4],ebx
100011e6 8b03            mov     eax,dword ptr [ebx]
100011e8 85c0            test    eax,eax
100011ea 7464            je      10001250
100011ec 56              push    esi
100011ed 57              push    edi
100011ee 8bff            mov     edi,edi
100011f0 03c2            add     eax,edx
100011f2 8d7b04          lea     edi,[ebx+4]
100011f5 8945f8          mov     dword ptr [ebp-8],eax
100011f8 8b07            mov     eax,dword ptr [edi]
100011fa 83e808          sub     eax,8
100011fd 33f6            xor     esi,esi
100011ff 8d5308          lea     edx,[ebx+8]
10001202 a9feffffff      test    eax,0FFFFFFFEh
10001207 7637            jbe     10001240
10001209 8b5df8          mov     ebx,dword ptr [ebp-8]
1000120c 8d642400        lea     esp,[esp]
10001210 0fb702          movzx   eax,word ptr [edx]
10001213 8bc8            mov     ecx,eax
10001215 81e100f00000    and     ecx,0F000h
1000121b 81f900300000    cmp     ecx,3000h
10001221 750b            jne     1000122e
10001223 8b4df4          mov     ecx,dword ptr [ebp-0Ch]
10001226 25ff0f0000      and     eax,0FFFh
1000122b 010c18          add     dword ptr [eax+ebx],ecx
1000122e 8b07            mov     eax,dword ptr [edi]
10001230 83e808          sub     eax,8
10001233 46              inc     esi
10001234 d1e8            shr     eax,1
10001236 83c202          add     edx,2
10001239 3bf0            cmp     esi,eax
1000123b 72d3            jb      10001210
1000123d 8b5dfc          mov     ebx,dword ptr [ebp-4]
10001240 031f            add     ebx,dword ptr [edi]
10001242 8b55f0          mov     edx,dword ptr [ebp-10h]
10001245 895dfc          mov     dword ptr [ebp-4],ebx
10001248 8b03            mov     eax,dword ptr [ebx]
1000124a 85c0            test    eax,eax
1000124c 75a2            jne     100011f0
1000124e 5f              pop     edi
1000124f 5e              pop     esi
10001250 5b              pop     ebx
10001251 8be5            mov     esp,ebp
10001253 5d              pop     ebp
10001254 c3              ret
10001255 cc              int     3
10001256 cc              int     3
10001257 cc              int     3
10001258 cc              int     3
10001259 cc              int     3
1000125a cc              int     3
1000125b cc              int     3
1000125c cc              int     3
1000125d cc              int     3
1000125e cc              int     3
1000125f cc              int     3
10001260 55              push    ebp
10001261 8bec            mov     ebp,esp
10001263 83ec10          sub     esp,10h
10001266 53              push    ebx
10001267 56              push    esi
10001268 57              push    edi
10001269 8bf9            mov     edi,ecx
1000126b 897df0          mov     dword ptr [ebp-10h],edi
1000126e 8b1f            mov     ebx,dword ptr [edi]
10001270 8b7704          mov     esi,dword ptr [edi+4]
10001273 83bb8400000000  cmp     dword ptr [ebx+84h],0
1000127a 8975fc          mov     dword ptr [ebp-4],esi
1000127d 0f86e7000000    jbe     1000136a
10001283 8b9b80000000    mov     ebx,dword ptr [ebx+80h]
10001289 03de            add     ebx,esi
1000128b 6a14            push    14h
1000128d 53              push    ebx
1000128e 895df4          mov     dword ptr [ebp-0Ch],ebx
10001291 ff150ca00010    call    dword ptr ds:[1000A00Ch]
10001297 85c0            test    eax,eax
10001299 0f85cb000000    jne     1000136a
1000129f 90              nop
100012a0 8b430c          mov     eax,dword ptr [ebx+0Ch]
100012a3 85c0            test    eax,eax
100012a5 0f84bf000000    je      1000136a
100012ab 03c6            add     eax,esi
100012ad 50              push    eax
100012ae ff1510a00010    call    dword ptr ds:[1000A010h]
100012b4 8945f8          mov     dword ptr [ebp-8],eax
100012b7 83f8ff          cmp     eax,0FFFFFFFFh
100012ba 0f84a1000000    je      10001361
100012c0 8b470c          mov     eax,dword ptr [edi+0Ch]
100012c3 8d048504000000  lea     eax,[eax*4+4]
100012ca 50              push    eax
100012cb ff7708          push    dword ptr [edi+8]
100012ce e864030000      call    10001637
100012d3 8bd0            mov     edx,eax
100012d5 83c408          add     esp,8
100012d8 895708          mov     dword ptr [edi+8],edx
100012db 85d2            test    edx,edx
100012dd 0f847e000000    je      10001361
100012e3 8b470c          mov     eax,dword ptr [edi+0Ch]
100012e6 8b4df8          mov     ecx,dword ptr [ebp-8]
100012e9 890c82          mov     dword ptr [edx+eax*4],ecx
100012ec ff470c          inc     dword ptr [edi+0Ch]
100012ef 8b03            mov     eax,dword ptr [ebx]
100012f1 8b55fc          mov     edx,dword ptr [ebp-4]
100012f4 85c0            test    eax,eax
100012f6 740a            je      10001302
100012f8 8b5b10          mov     ebx,dword ptr [ebx+10h]
100012fb 8d3410          lea     esi,[eax+edx]
100012fe 03da            add     ebx,edx
10001300 eb07            jmp     10001309
10001302 8b7310          mov     esi,dword ptr [ebx+10h]
10001305 03f2            add     esi,edx
10001307 8bde            mov     ebx,esi
10001309 8b06            mov     eax,dword ptr [esi]
1000130b 85c0            test    eax,eax
1000130d 7434            je      10001343
1000130f 2bde            sub     ebx,esi
10001311 8d3c33          lea     edi,[ebx+esi]
10001314 85c0            test    eax,eax
10001316 7905            jns     1000131d
10001318 0fb7c0          movzx   eax,ax
1000131b eb05            jmp     10001322
1000131d 83c002          add     eax,2
10001320 03c2            add     eax,edx
10001322 50              push    eax
10001323 51              push    ecx
10001324 ff1514a00010    call    dword ptr ds:[1000A014h]
1000132a 8907            mov     dword ptr [edi],eax
1000132c 85c0            test    eax,eax
1000132e 7431            je      10001361
10001330 8b4604          mov     eax,dword ptr [esi+4]
10001333 8b4df8          mov     ecx,dword ptr [ebp-8]
10001336 8b55fc          mov     edx,dword ptr [ebp-4]
10001339 83c604          add     esi,4
1000133c 85c0            test    eax,eax
1000133e 75d1            jne     10001311
10001340 8b7df0          mov     edi,dword ptr [ebp-10h]
10001343 8b5df4          mov     ebx,dword ptr [ebp-0Ch]
10001346 83c314          add     ebx,14h
10001349 6a14            push    14h
1000134b 53              push    ebx
1000134c 895df4          mov     dword ptr [ebp-0Ch],ebx
1000134f ff150ca00010    call    dword ptr ds:[1000A00Ch]
10001355 85c0            test    eax,eax
10001357 7511            jne     1000136a
10001359 8b75fc          mov     esi,dword ptr [ebp-4]
1000135c e93fffffff      jmp     100012a0
10001361 5f              pop     edi
10001362 5e              pop     esi
10001363 33c0            xor     eax,eax
10001365 5b              pop     ebx
10001366 8be5            mov     esp,ebp
10001368 5d              pop     ebp
10001369 c3              ret
1000136a 5f              pop     edi
1000136b 5e              pop     esi
1000136c b801000000      mov     eax,1
10001371 5b              pop     ebx
10001372 8be5            mov     esp,ebp
10001374 5d              pop     ebp
10001375 c3              ret
10001376 cc              int     3
10001377 cc              int     3
10001378 cc              int     3
10001379 cc              int     3
1000137a cc              int     3
1000137b cc              int     3
1000137c cc              int     3
1000137d cc              int     3
1000137e cc              int     3
1000137f cc              int     3
10001380 55              push    ebp
10001381 8bec            mov     ebp,esp
10001383 83ec24          sub     esp,24h
10001386 8b4508          mov     eax,dword ptr [ebp+8]
10001389 8945f0          mov     dword ptr [ebp-10h],eax
1000138c 8b4df0          mov     ecx,dword ptr [ebp-10h]
1000138f 0fb711          movzx   edx,word ptr [ecx]
10001392 81fa4d5a0000    cmp     edx,5A4Dh
10001398 7407            je      100013a1
1000139a 33c0            xor     eax,eax
1000139c e9f4010000      jmp     10001595
100013a1 8b45f0          mov     eax,dword ptr [ebp-10h]
100013a4 8b4d08          mov     ecx,dword ptr [ebp+8]
100013a7 03483c          add     ecx,dword ptr [eax+3Ch]
100013aa 894df4          mov     dword ptr [ebp-0Ch],ecx
100013ad 8b55f4          mov     edx,dword ptr [ebp-0Ch]
100013b0 813a50450000    cmp     dword ptr [edx],4550h
100013b6 7407            je      100013bf
100013b8 33c0            xor     eax,eax
100013ba e9d6010000      jmp     10001595
100013bf 8b45f4          mov     eax,dword ptr [ebp-0Ch]
100013c2 8b4834          mov     ecx,dword ptr [eax+34h]
100013c5 894df8          mov     dword ptr [ebp-8],ecx
100013c8 8b55f8          mov     edx,dword ptr [ebp-8]
100013cb 52              push    edx
100013cc ff151ca00010    call    dword ptr ds:[1000A01Ch]
100013d2 6800400000      push    4000h
100013d7 6800100000      push    1000h
100013dc 8b45f8          mov     eax,dword ptr [ebp-8]
100013df 50              push    eax
100013e0 ff1504a00010    call    dword ptr ds:[1000A004h]
100013e6 6a40            push    40h
100013e8 6800200000      push    2000h
100013ed 8b4df4          mov     ecx,dword ptr [ebp-0Ch]
100013f0 8b5150          mov     edx,dword ptr [ecx+50h]
100013f3 52              push    edx
100013f4 8b45f4          mov     eax,dword ptr [ebp-0Ch]
100013f7 8b4834          mov     ecx,dword ptr [eax+34h]
100013fa 51              push    ecx
100013fb ff1500a00010    call    dword ptr ds:[1000A000h]
10001401 8945f8          mov     dword ptr [ebp-8],eax
10001404 837df800        cmp     dword ptr [ebp-8],0
10001408 7519            jne     10001423
1000140a 6a40            push    40h
1000140c 6800200000      push    2000h
10001411 8b55f4          mov     edx,dword ptr [ebp-0Ch]
10001414 8b4250          mov     eax,dword ptr [edx+50h]
10001417 50              push    eax
10001418 6a00            push    0
1000141a ff1500a00010    call    dword ptr ds:[1000A000h]
10001420 8945f8          mov     dword ptr [ebp-8],eax
10001423 837df800        cmp     dword ptr [ebp-8],0
10001427 7507            jne     10001430
10001429 33c0            xor     eax,eax
1000142b e965010000      jmp     10001595
10001430 6a14            push    14h
10001432 6a00            push    0
10001434 ff1524a00010    call    dword ptr ds:[1000A024h]
1000143a 50              push    eax
1000143b ff1520a00010    call    dword ptr ds:[1000A020h]
10001441 8945fc          mov     dword ptr [ebp-4],eax
10001444 8b4dfc          mov     ecx,dword ptr [ebp-4]
10001447 8b55f8          mov     edx,dword ptr [ebp-8]
1000144a 895104          mov     dword ptr [ecx+4],edx
1000144d 8b45fc          mov     eax,dword ptr [ebp-4]
10001450 c7400c00000000  mov     dword ptr [eax+0Ch],0
10001457 8b4dfc          mov     ecx,dword ptr [ebp-4]
1000145a c7410800000000  mov     dword ptr [ecx+8],0
10001461 8b55fc          mov     edx,dword ptr [ebp-4]
10001464 c7421000000000  mov     dword ptr [edx+10h],0
1000146b 6a40            push    40h
1000146d 6800100000      push    1000h
10001472 8b45f4          mov     eax,dword ptr [ebp-0Ch]
10001475 8b4850          mov     ecx,dword ptr [eax+50h]
10001478 51              push    ecx
10001479 8b55f8          mov     edx,dword ptr [ebp-8]
1000147c 52              push    edx
1000147d ff1500a00010    call    dword ptr ds:[1000A000h]
10001483 6a40            push    40h
10001485 6800100000      push    1000h
1000148a 8b45f4          mov     eax,dword ptr [ebp-0Ch]
1000148d 8b4854          mov     ecx,dword ptr [eax+54h]
10001490 51              push    ecx
10001491 8b55f8          mov     edx,dword ptr [ebp-8]
10001494 52              push    edx
10001495 ff1500a00010    call    dword ptr ds:[1000A000h]
1000149b 8945ec          mov     dword ptr [ebp-14h],eax
1000149e 8b45f0          mov     eax,dword ptr [ebp-10h]
100014a1 8b483c          mov     ecx,dword ptr [eax+3Ch]
100014a4 8b55f4          mov     edx,dword ptr [ebp-0Ch]
100014a7 034a54          add     ecx,dword ptr [edx+54h]
100014aa 51              push    ecx
100014ab 8b45f0          mov     eax,dword ptr [ebp-10h]
100014ae 50              push    eax
100014af 8b4dec          mov     ecx,dword ptr [ebp-14h]
100014b2 51              push    ecx
100014b3 e8f8450000      call    10005ab0
100014b8 83c40c          add     esp,0Ch
100014bb 8b55f0          mov     edx,dword ptr [ebp-10h]
100014be 8b45ec          mov     eax,dword ptr [ebp-14h]
100014c1 03423c          add     eax,dword ptr [edx+3Ch]
100014c4 8b4dfc          mov     ecx,dword ptr [ebp-4]
100014c7 8901            mov     dword ptr [ecx],eax
100014c9 c745e400000000  mov     dword ptr [ebp-1Ch],0
100014d0 64a130000000    mov     eax,dword ptr fs:[00000030h]
100014d6 8b4068          mov     eax,dword ptr [eax+68h]
100014d9 8945e4          mov     dword ptr [ebp-1Ch],eax
100014dc 8b55fc          mov     edx,dword ptr [ebp-4]
100014df 8b02            mov     eax,dword ptr [edx]
100014e1 8b4df8          mov     ecx,dword ptr [ebp-8]
100014e4 894834          mov     dword ptr [eax+34h],ecx
100014e7 8b55fc          mov     edx,dword ptr [ebp-4]
100014ea 52              push    edx
100014eb 8b55f4          mov     edx,dword ptr [ebp-0Ch]
100014ee 8b4d08          mov     ecx,dword ptr [ebp+8]
100014f1 e84afbffff      call    10001040
100014f6 83c404          add     esp,4
100014f9 8b45f4          mov     eax,dword ptr [ebp-0Ch]
100014fc 8b4df8          mov     ecx,dword ptr [ebp-8]
100014ff 2b4834          sub     ecx,dword ptr [eax+34h]
10001502 894de8          mov     dword ptr [ebp-18h],ecx
10001505 740b            je      10001512
10001507 8b55e8          mov     edx,dword ptr [ebp-18h]
1000150a 8b4dfc          mov     ecx,dword ptr [ebp-4]
1000150d e8aefcffff      call    100011c0
10001512 8b55e4          mov     edx,dword ptr [ebp-1Ch]
10001515 83e270          and     edx,70h
10001518 7510            jne     1000152a
1000151a 8b4dfc          mov     ecx,dword ptr [ebp-4]
1000151d e83efdffff      call    10001260
10001522 85c0            test    eax,eax
10001524 7504            jne     1000152a
10001526 eb63            jmp     1000158b
10001528 eb61            jmp     1000158b
1000152a 8b4dfc          mov     ecx,dword ptr [ebp-4]
1000152d e8befbffff      call    100010f0
10001532 8b45fc          mov     eax,dword ptr [ebp-4]
10001535 8b08            mov     ecx,dword ptr [eax]
10001537 83792800        cmp     dword ptr [ecx+28h],0
1000153b 7449            je      10001586
1000153d 8b55fc          mov     edx,dword ptr [ebp-4]
10001540 8b02            mov     eax,dword ptr [edx]
10001542 8b4df8          mov     ecx,dword ptr [ebp-8]
10001545 034828          add     ecx,dword ptr [eax+28h]
10001548 894de0          mov     dword ptr [ebp-20h],ecx
1000154b 7504            jne     10001551
1000154d eb3c            jmp     1000158b
1000154f eb3a            jmp     1000158b
10001551 81c4e8000000    add     esp,0E8h
10001557 6800400000      push    4000h
1000155c 6800100000      push    1000h
10001561 ff35808d0010    push    dword ptr ds:[10008D80h]
10001567 ff75e0          push    dword ptr [ebp-20h]
1000156a 8d0504a00010    lea     eax,ds:[1000A004h]
10001570 ff20            jmp     dword ptr [eax]
10001572 837ddc00        cmp     dword ptr [ebp-24h],0
10001576 7504            jne     1000157c
10001578 eb11            jmp     1000158b
1000157a eb0f            jmp     1000158b
1000157c 8b55fc          mov     edx,dword ptr [ebp-4]
1000157f c7421001000000  mov     dword ptr [edx+10h],1
10001586 8b45fc          mov     eax,dword ptr [ebp-4]
10001589 eb0a            jmp     10001595
1000158b 8b4dfc          mov     ecx,dword ptr [ebp-4]
1000158e e80d000000      call    100015a0
10001593 33c0            xor     eax,eax
10001595 8be5            mov     esp,ebp
10001597 5d              pop     ebp
10001598 c3              ret
10001599 cc              int     3
1000159a cc              int     3
1000159b cc              int     3
1000159c cc              int     3
1000159d cc              int     3
1000159e cc              int     3
1000159f cc              int     3
100015a0 56              push    esi
100015a1 8bf1            mov     esi,ecx
100015a3 85f6            test    esi,esi
100015a5 747f            je      10001626
100015a7 837e1000        cmp     dword ptr [esi+10h],0
100015ab 7418            je      100015c5
100015ad 8b06            mov     eax,dword ptr [esi]
100015af 8b5604          mov     edx,dword ptr [esi+4]
100015b2 8b4028          mov     eax,dword ptr [eax+28h]
100015b5 6a00            push    0
100015b7 6a00            push    0
100015b9 52              push    edx
100015ba 03c2            add     eax,edx
100015bc ffd0            call    eax
100015be c7461000000000  mov     dword ptr [esi+10h],0
100015c5 837e0800        cmp     dword ptr [esi+8],0
100015c9 7436            je      10001601
100015cb 57              push    edi
100015cc 33ff            xor     edi,edi
100015ce 397e0c          cmp     dword ptr [esi+0Ch],edi
100015d1 7e22            jle     100015f5
100015d3 53              push    ebx
100015d4 8b1d28a00010    mov     ebx,dword ptr ds:[1000A028h]
100015da 8d9b00000000    lea     ebx,[ebx]
100015e0 8b4608          mov     eax,dword ptr [esi+8]
100015e3 8b04b8          mov     eax,dword ptr [eax+edi*4]
100015e6 83f8ff          cmp     eax,0FFFFFFFFh
100015e9 7403            je      100015ee
100015eb 50              push    eax
100015ec ffd3            call    ebx
100015ee 47              inc     edi
100015ef 3b7e0c          cmp     edi,dword ptr [esi+0Ch]
100015f2 7cec            jl      100015e0
100015f4 5b              pop     ebx
100015f5 ff7608          push    dword ptr [esi+8]
100015f8 e8e5000000      call    100016e2
100015fd 83c404          add     esp,4
10001600 5f              pop     edi
10001601 8b4604          mov     eax,dword ptr [esi+4]
10001604 85c0            test    eax,eax
10001606 740e            je      10001616
10001608 6800800000      push    8000h
1000160d 6a00            push    0
1000160f 50              push    eax
10001610 ff1504a00010    call    dword ptr ds:[1000A004h]
10001616 56              push    esi
10001617 6a00            push    0
10001619 ff1524a00010    call    dword ptr ds:[1000A024h]
1000161f 50              push    eax
10001620 ff152ca00010    call    dword ptr ds:[1000A02Ch]
10001626 5e              pop     esi
10001627 c3              ret
10001628 3b0d00f00010    cmp     ecx,dword ptr ds:[1000F000h]
1000162e 7502            jne     10001632
10001630 f3c3            rep ret
10001632 e9e8030000      jmp     10001a1f
10001637 55              push    ebp
10001638 8bec            mov     ebp,esp
1000163a 837d0800        cmp     dword ptr [ebp+8],0
1000163e 750b            jne     1000164b
10001640 ff750c          push    dword ptr [ebp+0Ch]
10001643 e8d0040000      call    10001b18
10001648 59              pop     ecx
10001649 5d              pop     ebp
1000164a c3              ret
1000164b 56              push    esi
1000164c 8b750c          mov     esi,dword ptr [ebp+0Ch]
1000164f 85f6            test    esi,esi
10001651 750d            jne     10001660
10001653 ff7508          push    dword ptr [ebp+8]
10001656 e887000000      call    100016e2
1000165b 59              pop     ecx
1000165c 33c0            xor     eax,eax
1000165e eb4d            jmp     100016ad
10001660 53              push    ebx
10001661 eb30            jmp     10001693
10001663 85f6            test    esi,esi
10001665 7501            jne     10001668
10001667 46              inc     esi
10001668 56              push    esi
10001669 ff7508          push    dword ptr [ebp+8]
1000166c 6a00            push    0
1000166e ff3534830010    push    dword ptr ds:[10008334h]
10001674 ff1534a00010    call    dword ptr ds:[1000A034h]
1000167a 8bd8            mov     ebx,eax
1000167c 85db            test    ebx,ebx
1000167e 755e            jne     100016de
10001680 390538830010    cmp     dword ptr ds:[10008338h],eax
10001686 7440            je      100016c8
10001688 56              push    esi
10001689 e8a4050000      call    10001c32
1000168e 59              pop     ecx
1000168f 85c0            test    eax,eax
10001691 741d            je      100016b0
10001693 83fee0          cmp     esi,0FFFFFFE0h
10001696 76cb            jbe     10001663
10001698 56              push    esi
10001699 e894050000      call    10001c32
1000169e 59              pop     ecx
1000169f e83a050000      call    10001bde
100016a4 c7000c000000    mov     dword ptr [eax],0Ch
100016aa 33c0            xor     eax,eax
100016ac 5b              pop     ebx
100016ad 5e              pop     esi
100016ae 5d              pop     ebp
100016af c3              ret
100016b0 e829050000      call    10001bde
100016b5 8bf0            mov     esi,eax
100016b7 ff1530a00010    call    dword ptr ds:[1000A030h]
100016bd 50              push    eax
100016be e82e050000      call    10001bf1
100016c3 59              pop     ecx
100016c4 8906            mov     dword ptr [esi],eax
100016c6 ebe2            jmp     100016aa
100016c8 e811050000      call    10001bde
100016cd 8bf0            mov     esi,eax
100016cf ff1530a00010    call    dword ptr ds:[1000A030h]
100016d5 50              push    eax
100016d6 e816050000      call    10001bf1
100016db 59              pop     ecx
100016dc 8906            mov     dword ptr [esi],eax
100016de 8bc3            mov     eax,ebx
100016e0 ebca            jmp     100016ac
100016e2 55              push    ebp
100016e3 8bec            mov     ebp,esp
100016e5 837d0800        cmp     dword ptr [ebp+8],0
100016e9 742d            je      10001718
100016eb ff7508          push    dword ptr [ebp+8]
100016ee 6a00            push    0
100016f0 ff3534830010    push    dword ptr ds:[10008334h]
100016f6 ff152ca00010    call    dword ptr ds:[1000A02Ch]
100016fc 85c0            test    eax,eax
100016fe 7518            jne     10001718
10001700 56              push    esi
10001701 e8d8040000      call    10001bde
10001706 8bf0            mov     esi,eax
10001708 ff1530a00010    call    dword ptr ds:[1000A030h]
1000170e 50              push    eax
1000170f e8dd040000      call    10001bf1
10001714 59              pop     ecx
10001715 8906            mov     dword ptr [esi],eax
10001717 5e              pop     esi
10001718 5d              pop     ebp
10001719 c3              ret
1000171a 6a08            push    8
1000171c 68b0dc0010      push    1000DCB0h
10001721 e86a190000      call    10003090
10001726 8b450c          mov     eax,dword ptr [ebp+0Ch]
10001729 83f801          cmp     eax,1
1000172c 757a            jne     100017a8
1000172e e832050000      call    10001c65
10001733 85c0            test    eax,eax
10001735 7507            jne     1000173e
10001737 33c0            xor     eax,eax
10001739 e946010000      jmp     10001884
1000173e e85f090000      call    100020a2
10001743 85c0            test    eax,eax
10001745 7507            jne     1000174e
10001747 e82e050000      call    10001c7a
1000174c ebe9            jmp     10001737
1000174e e8f9180000      call    1000304c
10001753 ff1538a00010    call    dword ptr ds:[1000A038h]
10001759 a3509e0010      mov     dword ptr ds:[10009E50h],eax
1000175e e859140000      call    10002bbc
10001763 a304800010      mov     dword ptr ds:[10008004h],eax
10001768 e8a70d0000      call    10002514
1000176d 85c0            test    eax,eax
1000176f 7907            jns     10001778
10001771 e8a2090000      call    10002118
10001776 ebcf            jmp     10001747
10001778 e897100000      call    10002814
1000177d 85c0            test    eax,eax
1000177f 7820            js      100017a1
10001781 e8bb120000      call    10002a41
10001786 85c0            test    eax,eax
10001788 7817            js      100017a1
1000178a 6a00            push    0
1000178c e8270b0000      call    100022b8
10001791 59              pop     ecx
10001792 85c0            test    eax,eax
10001794 750b            jne     100017a1
10001796 ff0500800010    inc     dword ptr ds:[10008000h]
1000179c e9e0000000      jmp     10001881
100017a1 e81c100000      call    100027c2
100017a6 ebc9            jmp     10001771
100017a8 85c0            test    eax,eax
100017aa 7565            jne     10001811
100017ac a100800010      mov     eax,dword ptr ds:[10008000h]
100017b1 85c0            test    eax,eax
100017b3 7e82            jle     10001737
100017b5 48              dec     eax
100017b6 a300800010      mov     dword ptr ds:[10008000h],eax
100017bb 8365fc00        and     dword ptr [ebp-4],0
100017bf 833d4483001000  cmp     dword ptr ds:[10008344h],0
100017c6 7505            jne     100017cd
100017c8 e8dc0a0000      call    100022a9
100017cd e8ab090000      call    1000217d
100017d2 8b7510          mov     esi,dword ptr [ebp+10h]
100017d5 85f6            test    esi,esi
100017d7 750f            jne     100017e8
100017d9 e8e40f0000      call    100027c2
100017de e835090000      call    10002118
100017e3 e892040000      call    10001c7a
100017e8 c745fcfeffffff  mov     dword ptr [ebp-4],0FFFFFFFEh
100017ef e808000000      call    100017fc
100017f4 e988000000      jmp     10001881
100017f9 8b7510          mov     esi,dword ptr [ebp+10h]
100017fc 85f6            test    esi,esi
100017fe 750e            jne     1000180e
10001800 833d78f10010ff  cmp     dword ptr ds:[1000F178h],0FFFFFFFFh
10001807 7405            je      1000180e
10001809 e80a090000      call    10002118
1000180e c3              ret
1000180f eb70            jmp     10001881
10001811 83f802          cmp     eax,2
10001814 755e            jne     10001874
10001816 ff3578f10010    push    dword ptr ds:[1000F178h]
1000181c e863140000      call    10002c84
10001821 59              pop     ecx
10001822 85c0            test    eax,eax
10001824 755b            jne     10001881
10001826 68bc030000      push    3BCh
1000182b 6a01            push    1
1000182d e83b170000      call    10002f6d
10001832 59              pop     ecx
10001833 59              pop     ecx
10001834 8bf0            mov     esi,eax
10001836 85f6            test    esi,esi
10001838 0f84f9feffff    je      10001737
1000183e 56              push    esi
1000183f ff3578f10010    push    dword ptr ds:[1000F178h]
10001845 e859140000      call    10002ca3
1000184a 59              pop     ecx
1000184b 59              pop     ecx
1000184c 85c0            test    eax,eax
1000184e 7418            je      10001868
10001850 6a00            push    0
10001852 56              push    esi
10001853 e897070000      call    10001fef
10001858 59              pop     ecx
10001859 59              pop     ecx
1000185a ff153ca00010    call    dword ptr ds:[1000A03Ch]
10001860 8906            mov     dword ptr [esi],eax
10001862 834e04ff        or      dword ptr [esi+4],0FFFFFFFFh
10001866 eb19            jmp     10001881
10001868 56              push    esi
10001869 e874feffff      call    100016e2
1000186e 59              pop     ecx
1000186f e9c3feffff      jmp     10001737
10001874 83f803          cmp     eax,3
10001877 7508            jne     10001881
10001879 6a00            push    0
1000187b e8b2060000      call    10001f32
10001880 59              pop     ecx
10001881 33c0            xor     eax,eax
10001883 40              inc     eax
10001884 e84c180000      call    100030d5
10001889 c20c00          ret     0Ch
1000188c 55              push    ebp
1000188d 8bec            mov     ebp,esp
1000188f 837d0c01        cmp     dword ptr [ebp+0Ch],1
10001893 7505            jne     1000189a
10001895 e888120000      call    10002b22
1000189a ff7510          push    dword ptr [ebp+10h]
1000189d ff750c          push    dword ptr [ebp+0Ch]
100018a0 ff7508          push    dword ptr [ebp+8]
100018a3 e807000000      call    100018af
100018a8 83c40c          add     esp,0Ch
100018ab 5d              pop     ebp
100018ac c20c00          ret     0Ch
100018af 6a0c            push    0Ch
100018b1 68d0dc0010      push    1000DCD0h
100018b6 e8d5170000      call    10003090
100018bb 33c0            xor     eax,eax
100018bd 40              inc     eax
100018be 8b750c          mov     esi,dword ptr [ebp+0Ch]
100018c1 85f6            test    esi,esi
100018c3 750c            jne     100018d1
100018c5 393500800010    cmp     dword ptr ds:[10008000h],esi
100018cb 0f84e4000000    je      100019b5
100018d1 8365fc00        and     dword ptr [ebp-4],0
100018d5 83fe01          cmp     esi,1
100018d8 7405            je      100018df
100018da 83fe02          cmp     esi,2
100018dd 7535            jne     10001914
100018df 8b0d58a10010    mov     ecx,dword ptr ds:[1000A158h]
100018e5 85c9            test    ecx,ecx
100018e7 740c            je      100018f5
100018e9 ff7510          push    dword ptr [ebp+10h]
100018ec 56              push    esi
100018ed ff7508          push    dword ptr [ebp+8]
100018f0 ffd1            call    ecx
100018f2 8945e4          mov     dword ptr [ebp-1Ch],eax
100018f5 85c0            test    eax,eax
100018f7 0f84b1000000    je      100019ae
100018fd ff7510          push    dword ptr [ebp+10h]
10001900 56              push    esi
10001901 ff7508          push    dword ptr [ebp+8]
10001904 e811feffff      call    1000171a
10001909 8945e4          mov     dword ptr [ebp-1Ch],eax
1000190c 85c0            test    eax,eax
1000190e 0f849a000000    je      100019ae
10001914 8b5d10          mov     ebx,dword ptr [ebp+10h]
10001917 53              push    ebx
10001918 56              push    esi
10001919 ff7508          push    dword ptr [ebp+8]
1000191c e8dff6ffff      call    10001000
10001921 8bf8            mov     edi,eax
10001923 897de4          mov     dword ptr [ebp-1Ch],edi
10001926 83fe01          cmp     esi,1
10001929 7528            jne     10001953
1000192b 85ff            test    edi,edi
1000192d 7524            jne     10001953
1000192f 53              push    ebx
10001930 50              push    eax
10001931 ff7508          push    dword ptr [ebp+8]
10001934 e8c7f6ffff      call    10001000
10001939 53              push    ebx
1000193a 57              push    edi
1000193b ff7508          push    dword ptr [ebp+8]
1000193e e8d7fdffff      call    1000171a
10001943 a158a10010      mov     eax,dword ptr ds:[1000A158h]
10001948 85c0            test    eax,eax
1000194a 7407            je      10001953
1000194c 53              push    ebx
1000194d 57              push    edi
1000194e ff7508          push    dword ptr [ebp+8]
10001951 ffd0            call    eax
10001953 85f6            test    esi,esi
10001955 7405            je      1000195c
10001957 83fe03          cmp     esi,3
1000195a 752a            jne     10001986
1000195c 53              push    ebx
1000195d 56              push    esi
1000195e ff7508          push    dword ptr [ebp+8]
10001961 e8b4fdffff      call    1000171a
10001966 f7d8            neg     eax
10001968 1bc0            sbb     eax,eax
1000196a 23f8            and     edi,eax
1000196c 897de4          mov     dword ptr [ebp-1Ch],edi
1000196f 7415            je      10001986
10001971 a158a10010      mov     eax,dword ptr ds:[1000A158h]
10001976 85c0            test    eax,eax
10001978 740c            je      10001986
1000197a 53              push    ebx
1000197b 56              push    esi
1000197c ff7508          push    dword ptr [ebp+8]
1000197f ffd0            call    eax
10001981 8bf8            mov     edi,eax
10001983 897de4          mov     dword ptr [ebp-1Ch],edi
10001986 c745fcfeffffff  mov     dword ptr [ebp-4],0FFFFFFFEh
1000198d 8bc7            mov     eax,edi
1000198f eb26            jmp     100019b7
10001991 8b4dec          mov     ecx,dword ptr [ebp-14h]
10001994 8b01            mov     eax,dword ptr [ecx]
10001996 51              push    ecx
10001997 ff30            push    dword ptr [eax]
10001999 ff7510          push    dword ptr [ebp+10h]
1000199c ff750c          push    dword ptr [ebp+0Ch]
1000199f ff7508          push    dword ptr [ebp+8]
100019a2 e816000000      call    100019bd
100019a7 83c414          add     esp,14h
100019aa c3              ret
100019ab 8b65e8          mov     esp,dword ptr [ebp-18h]
100019ae c745fcfeffffff  mov     dword ptr [ebp-4],0FFFFFFFEh
100019b5 33c0            xor     eax,eax
100019b7 e819170000      call    100030d5
100019bc c3              ret
100019bd 55              push    ebp
100019be 8bec            mov     ebp,esp
100019c0 837d0c01        cmp     dword ptr [ebp+0Ch],1
100019c4 750d            jne     100019d3
100019c6 ff7510          push    dword ptr [ebp+10h]
100019c9 6a00            push    0
100019cb ff7508          push    dword ptr [ebp+8]
100019ce e847fdffff      call    1000171a
100019d3 ff7518          push    dword ptr [ebp+18h]
100019d6 ff7514          push    dword ptr [ebp+14h]
100019d9 e8ff030000      call    10001ddd
100019de 59              pop     ecx
100019df 59              pop     ecx
100019e0 5d              pop     ebp
100019e1 c3              ret
100019e2 55              push    ebp
100019e3 8bec            mov     ebp,esp
100019e5 ff1540a00010    call    dword ptr ds:[1000A040h]
100019eb 6a01            push    1
100019ed a32c830010      mov     dword ptr ds:[1000832Ch],eax
100019f2 e88e180000      call    10003285
100019f7 ff7508          push    dword ptr [ebp+8]
100019fa e858150000      call    10002f57
100019ff 833d2c83001000  cmp     dword ptr ds:[1000832Ch],0
10001a06 59              pop     ecx
10001a07 59              pop     ecx
10001a08 7508            jne     10001a12
10001a0a 6a01            push    1
10001a0c e874180000      call    10003285
10001a11 59              pop     ecx
10001a12 68090400c0      push    0C0000409h
10001a17 e826150000      call    10002f42
10001a1c 59              pop     ecx
10001a1d 5d              pop     ebp
10001a1e c3              ret
10001a1f 55              push    ebp
10001a20 8bec            mov     ebp,esp
10001a22 81ec24030000    sub     esp,324h
10001a28 6a17            push    17h
10001a2a e8955e0000      call    100078c4
10001a2f 85c0            test    eax,eax
10001a31 7405            je      10001a38
10001a33 6a02            push    2
10001a35 59              pop     ecx
10001a36 cd29            int     29h
10001a38 a310810010      mov     dword ptr ds:[10008110h],eax
10001a3d 890d0c810010    mov     dword ptr ds:[1000810Ch],ecx
10001a43 891508810010    mov     dword ptr ds:[10008108h],edx
10001a49 891d04810010    mov     dword ptr ds:[10008104h],ebx
10001a4f 893500810010    mov     dword ptr ds:[10008100h],esi
10001a55 893dfc800010    mov     dword ptr ds:[100080FCh],edi
10001a5b 668c1528810010  mov     word ptr ds:[10008128h],ss
10001a62 668c0d1c810010  mov     word ptr ds:[1000811Ch],cs
10001a69 668c1df8800010  mov     word ptr ds:[100080F8h],ds
10001a70 668c05f4800010  mov     word ptr ds:[100080F4h],es
10001a77 668c25f0800010  mov     word ptr ds:[100080F0h],fs
10001a7e 668c2dec800010  mov     word ptr ds:[100080ECh],gs
10001a85 9c              pushfd
10001a86 8f0520810010    pop     dword ptr ds:[10008120h]
10001a8c 8b4500          mov     eax,dword ptr [ebp]
10001a8f a314810010      mov     dword ptr ds:[10008114h],eax
10001a94 8b4504          mov     eax,dword ptr [ebp+4]
10001a97 a318810010      mov     dword ptr ds:[10008118h],eax
10001a9c 8d4508          lea     eax,[ebp+8]
10001a9f a324810010      mov     dword ptr ds:[10008124h],eax
10001aa4 8b85dcfcffff    mov     eax,dword ptr [ebp-324h]
10001aaa c7056080001001000100 mov dword ptr ds:[10008060h],10001h
10001ab4 a118810010      mov     eax,dword ptr ds:[10008118h]
10001ab9 a31c800010      mov     dword ptr ds:[1000801Ch],eax
10001abe c70510800010090400c0 mov dword ptr ds:[10008010h],0C0000409h
10001ac8 c7051480001001000000 mov dword ptr ds:[10008014h],1
10001ad2 c7052080001001000000 mov dword ptr ds:[10008020h],1
10001adc 6a04            push    4
10001ade 58              pop     eax
10001adf 6bc000          imul    eax,eax,0
10001ae2 c7802480001002000000 mov dword ptr [eax+10008024h],2
10001aec 6a04            push    4
10001aee 58              pop     eax
10001aef 6bc000          imul    eax,eax,0
10001af2 8b0d00f00010    mov     ecx,dword ptr ds:[1000F000h]
10001af8 894c05f8        mov     dword ptr [ebp+eax-8],ecx
10001afc 6a04            push    4
10001afe 58              pop     eax
10001aff c1e000          shl     eax,0
10001b02 8b0d04f00010    mov     ecx,dword ptr ds:[1000F004h]
10001b08 894c05f8        mov     dword ptr [ebp+eax-8],ecx
10001b0c 685ca10010      push    1000A15Ch
10001b11 e8ccfeffff      call    100019e2
10001b16 c9              leave
10001b17 c3              ret
10001b18 55              push    ebp
10001b19 8bec            mov     ebp,esp
10001b1b 56              push    esi
10001b1c 8b7508          mov     esi,dword ptr [ebp+8]
10001b1f 83fee0          cmp     esi,0FFFFFFE0h
10001b22 776f            ja      10001b93
10001b24 53              push    ebx
10001b25 57              push    edi
10001b26 a134830010      mov     eax,dword ptr ds:[10008334h]
10001b2b 85c0            test    eax,eax
10001b2d 751d            jne     10001b4c
10001b2f e859170000      call    1000328d
10001b34 6a1e            push    1Eh
10001b36 e8af170000      call    100032ea
10001b3b 68ff000000      push    0FFh
10001b40 e822060000      call    10002167
10001b45 a134830010      mov     eax,dword ptr ds:[10008334h]
10001b4a 59              pop     ecx
10001b4b 59              pop     ecx
10001b4c 85f6            test    esi,esi
10001b4e 7404            je      10001b54
10001b50 8bce            mov     ecx,esi
10001b52 eb03            jmp     10001b57
10001b54 33c9            xor     ecx,ecx
10001b56 41              inc     ecx
10001b57 51              push    ecx
10001b58 6a00            push    0
10001b5a 50              push    eax
10001b5b ff1520a00010    call    dword ptr ds:[1000A020h]
10001b61 8bf8            mov     edi,eax
10001b63 85ff            test    edi,edi
10001b65 7526            jne     10001b8d
10001b67 6a0c            push    0Ch
10001b69 5b              pop     ebx
10001b6a 390538830010    cmp     dword ptr ds:[10008338h],eax
10001b70 740d            je      10001b7f
10001b72 56              push    esi
10001b73 e8ba000000      call    10001c32
10001b78 59              pop     ecx
10001b79 85c0            test    eax,eax
10001b7b 75a9            jne     10001b26
10001b7d eb07            jmp     10001b86
10001b7f e85a000000      call    10001bde
10001b84 8918            mov     dword ptr [eax],ebx
10001b86 e853000000      call    10001bde
10001b8b 8918            mov     dword ptr [eax],ebx
10001b8d 8bc7            mov     eax,edi
10001b8f 5f              pop     edi
10001b90 5b              pop     ebx
10001b91 eb14            jmp     10001ba7
10001b93 56              push    esi
10001b94 e899000000      call    10001c32
10001b99 59              pop     ecx
10001b9a e83f000000      call    10001bde
10001b9f c7000c000000    mov     dword ptr [eax],0Ch
10001ba5 33c0            xor     eax,eax
10001ba7 5e              pop     esi
10001ba8 5d              pop     ebp
10001ba9 c3              ret
10001baa e8d1030000      call    10001f80
10001baf 85c0            test    eax,eax
10001bb1 7506            jne     10001bb9
10001bb3 b874f10010      mov     eax,1000F174h
10001bb8 c3              ret
10001bb9 83c00c          add     eax,0Ch
10001bbc c3              ret
10001bbd 55              push    ebp
10001bbe 8bec            mov     ebp,esp
10001bc0 56              push    esi
10001bc1 e8e4ffffff      call    10001baa
10001bc6 8b4d08          mov     ecx,dword ptr [ebp+8]
10001bc9 51              push    ecx
10001bca 8908            mov     dword ptr [eax],ecx
10001bcc e820000000      call    10001bf1
10001bd1 59              pop     ecx
10001bd2 8bf0            mov     esi,eax
10001bd4 e805000000      call    10001bde
10001bd9 8930            mov     dword ptr [eax],esi
10001bdb 5e              pop     esi
10001bdc 5d              pop     ebp
10001bdd c3              ret
10001bde e89d030000      call    10001f80
10001be3 85c0            test    eax,eax
10001be5 7506            jne     10001bed
10001be7 b870f10010      mov     eax,1000F170h
10001bec c3              ret
10001bed 83c008          add     eax,8
10001bf0 c3              ret
10001bf1 55              push    ebp
10001bf2 8bec            mov     ebp,esp
10001bf4 8b4d08          mov     ecx,dword ptr [ebp+8]
10001bf7 33c0            xor     eax,eax
10001bf9 3b0cc508f00010  cmp     ecx,dword ptr [eax*8+1000F008h]
10001c00 7427            je      10001c29
10001c02 40              inc     eax
10001c03 83f82d          cmp     eax,2Dh
10001c06 72f1            jb      10001bf9
10001c08 8d41ed          lea     eax,[ecx-13h]
10001c0b 83f811          cmp     eax,11h
10001c0e 7705            ja      10001c15
10001c10 6a0d            push    0Dh
10001c12 58              pop     eax
10001c13 5d              pop     ebp
10001c14 c3              ret
10001c15 8d8144ffffff    lea     eax,[ecx-0BCh]
10001c1b 6a0e            push    0Eh
10001c1d 59              pop     ecx
10001c1e 3bc8            cmp     ecx,eax
10001c20 1bc0            sbb     eax,eax
10001c22 23c1            and     eax,ecx
10001c24 83c008          add     eax,8
10001c27 5d              pop     ebp
10001c28 c3              ret
10001c29 8b04c50cf00010  mov     eax,dword ptr [eax*8+1000F00Ch]
10001c30 5d              pop     ebp
10001c31 c3              ret
10001c32 55              push    ebp
10001c33 8bec            mov     ebp,esp
10001c35 ff3530830010    push    dword ptr ds:[10008330h]
10001c3b ff154ca00010    call    dword ptr ds:[1000A04Ch]
10001c41 85c0            test    eax,eax
10001c43 740f            je      10001c54
10001c45 ff7508          push    dword ptr [ebp+8]
10001c48 ffd0            call    eax
10001c4a 59              pop     ecx
10001c4b 85c0            test    eax,eax
10001c4d 7405            je      10001c54
10001c4f 33c0            xor     eax,eax
10001c51 40              inc     eax
10001c52 5d              pop     ebp
10001c53 c3              ret
10001c54 33c0            xor     eax,eax
10001c56 5d              pop     ebp
10001c57 c3              ret
10001c58 55              push    ebp
10001c59 8bec            mov     ebp,esp
10001c5b 8b4508          mov     eax,dword ptr [ebp+8]
10001c5e a330830010      mov     dword ptr ds:[10008330h],eax
10001c63 5d              pop     ebp
10001c64 c3              ret
10001c65 ff1524a00010    call    dword ptr ds:[1000A024h]
10001c6b 33c9            xor     ecx,ecx
10001c6d 85c0            test    eax,eax
10001c6f 0f95c1          setne   cl
10001c72 a334830010      mov     dword ptr ds:[10008334h],eax
10001c77 8bc1            mov     eax,ecx
10001c79 c3              ret
10001c7a 83253483001000  and     dword ptr ds:[10008334h],0
10001c81 c3              ret
10001c82 55              push    ebp
10001c83 8bec            mov     ebp,esp
10001c85 56              push    esi
10001c86 e8f5020000      call    10001f80
10001c8b 8bf0            mov     esi,eax
10001c8d 85f6            test    esi,esi
10001c8f 0f8445010000    je      10001dda
10001c95 8b565c          mov     edx,dword ptr [esi+5Ch]
10001c98 57              push    edi
10001c99 8b7d08          mov     edi,dword ptr [ebp+8]
10001c9c 8bca            mov     ecx,edx
10001c9e 3939            cmp     dword ptr [ecx],edi
10001ca0 740d            je      10001caf
10001ca2 83c10c          add     ecx,0Ch
10001ca5 8d8290000000    lea     eax,[edx+90h]
10001cab 3bc8            cmp     ecx,eax
10001cad 72ef            jb      10001c9e
10001caf 8d8290000000    lea     eax,[edx+90h]
10001cb5 3bc8            cmp     ecx,eax
10001cb7 7304            jae     10001cbd
10001cb9 3939            cmp     dword ptr [ecx],edi
10001cbb 7402            je      10001cbf
10001cbd 33c9            xor     ecx,ecx
10001cbf 85c9            test    ecx,ecx
10001cc1 0f8410010000    je      10001dd7
10001cc7 8b5108          mov     edx,dword ptr [ecx+8]
10001cca 85d2            test    edx,edx
10001ccc 0f8405010000    je      10001dd7
10001cd2 83fa05          cmp     edx,5
10001cd5 750c            jne     10001ce3
10001cd7 83610800        and     dword ptr [ecx+8],0
10001cdb 33c0            xor     eax,eax
10001cdd 40              inc     eax
10001cde e9f6000000      jmp     10001dd9
10001ce3 83fa01          cmp     edx,1
10001ce6 7508            jne     10001cf0
10001ce8 83c8ff          or      eax,0FFFFFFFFh
10001ceb e9e9000000      jmp     10001dd9
10001cf0 8b450c          mov     eax,dword ptr [ebp+0Ch]
10001cf3 53              push    ebx
10001cf4 8b5e60          mov     ebx,dword ptr [esi+60h]
10001cf7 894660          mov     dword ptr [esi+60h],eax
10001cfa 83790408        cmp     dword ptr [ecx+4],8
10001cfe 0f85c0000000    jne     10001dc4
10001d04 6a24            push    24h
10001d06 5f              pop     edi
10001d07 8b465c          mov     eax,dword ptr [esi+5Ch]
10001d0a 83c70c          add     edi,0Ch
10001d0d 836407fc00      and     dword ptr [edi+eax-4],0
10001d12 81ff90000000    cmp     edi,90h
10001d18 7ced            jl      10001d07
10001d1a 81398e0000c0    cmp     dword ptr [ecx],0C000008Eh
10001d20 8b7e64          mov     edi,dword ptr [esi+64h]
10001d23 750c            jne     10001d31
10001d25 c7466483000000  mov     dword ptr [esi+64h],83h
10001d2c e986000000      jmp     10001db7
10001d31 8139900000c0    cmp     dword ptr [ecx],0C0000090h
10001d37 7509            jne     10001d42
10001d39 c7466481000000  mov     dword ptr [esi+64h],81h
10001d40 eb75            jmp     10001db7
10001d42 8139910000c0    cmp     dword ptr [ecx],0C0000091h
10001d48 7509            jne     10001d53
10001d4a c7466484000000  mov     dword ptr [esi+64h],84h
10001d51 eb64            jmp     10001db7
10001d53 8139930000c0    cmp     dword ptr [ecx],0C0000093h
10001d59 7509            jne     10001d64
10001d5b c7466485000000  mov     dword ptr [esi+64h],85h
10001d62 eb53            jmp     10001db7
10001d64 81398d0000c0    cmp     dword ptr [ecx],0C000008Dh
10001d6a 7509            jne     10001d75
10001d6c c7466482000000  mov     dword ptr [esi+64h],82h
10001d73 eb42            jmp     10001db7
10001d75 81398f0000c0    cmp     dword ptr [ecx],0C000008Fh
10001d7b 7509            jne     10001d86
10001d7d c7466486000000  mov     dword ptr [esi+64h],86h
10001d84 eb31            jmp     10001db7
10001d86 8139920000c0    cmp     dword ptr [ecx],0C0000092h
10001d8c 7509            jne     10001d97
10001d8e c746648a000000  mov     dword ptr [esi+64h],8Ah
10001d95 eb20            jmp     10001db7
10001d97 8139b50200c0    cmp     dword ptr [ecx],0C00002B5h
10001d9d 7509            jne     10001da8
10001d9f c746648d000000  mov     dword ptr [esi+64h],8Dh
10001da6 eb0f            jmp     10001db7
10001da8 8139b40200c0    cmp     dword ptr [ecx],0C00002B4h
10001dae 7507            jne     10001db7
10001db0 c746648e000000  mov     dword ptr [esi+64h],8Eh
10001db7 ff7664          push    dword ptr [esi+64h]
10001dba 6a08            push    8
10001dbc ffd2            call    edx
10001dbe 59              pop     ecx
10001dbf 897e64          mov     dword ptr [esi+64h],edi
10001dc2 eb09            jmp     10001dcd
10001dc4 ff7104          push    dword ptr [ecx+4]
10001dc7 83610800        and     dword ptr [ecx+8],0
10001dcb ffd2            call    edx
10001dcd 59              pop     ecx
10001dce 895e60          mov     dword ptr [esi+60h],ebx
10001dd1 83c8ff          or      eax,0FFFFFFFFh
10001dd4 5b              pop     ebx
10001dd5 eb02            jmp     10001dd9
10001dd7 33c0            xor     eax,eax
10001dd9 5f              pop     edi
10001dda 5e              pop     esi
10001ddb 5d              pop     ebp
10001ddc c3              ret
10001ddd 55              push    ebp
10001dde 8bec            mov     ebp,esp
10001de0 b863736de0      mov     eax,0E06D7363h
10001de5 394508          cmp     dword ptr [ebp+8],eax
10001de8 750d            jne     10001df7
10001dea ff750c          push    dword ptr [ebp+0Ch]
10001ded 50              push    eax
10001dee e88ffeffff      call    10001c82
10001df3 59              pop     ecx
10001df4 59              pop     ecx
10001df5 5d              pop     ebp
10001df6 c3              ret
10001df7 33c0            xor     eax,eax
10001df9 5d              pop     ebp
10001dfa c3              ret
10001dfb 6a08            push    8
10001dfd 68f0dc0010      push    1000DCF0h
10001e02 e889120000      call    10003090
10001e07 8b7508          mov     esi,dword ptr [ebp+8]
10001e0a 85f6            test    esi,esi
10001e0c 0f8400010000    je      10001f12
10001e12 837e2400        cmp     dword ptr [esi+24h],0
10001e16 7409            je      10001e21
10001e18 ff7624          push    dword ptr [esi+24h]
10001e1b e8c2f8ffff      call    100016e2
10001e20 59              pop     ecx
10001e21 837e2c00        cmp     dword ptr [esi+2Ch],0
10001e25 7409            je      10001e30
10001e27 ff762c          push    dword ptr [esi+2Ch]
10001e2a e8b3f8ffff      call    100016e2
10001e2f 59              pop     ecx
10001e30 837e3400        cmp     dword ptr [esi+34h],0
10001e34 7409            je      10001e3f
10001e36 ff7634          push    dword ptr [esi+34h]
10001e39 e8a4f8ffff      call    100016e2
10001e3e 59              pop     ecx
10001e3f 837e3c00        cmp     dword ptr [esi+3Ch],0
10001e43 7409            je      10001e4e
10001e45 ff763c          push    dword ptr [esi+3Ch]
10001e48 e895f8ffff      call    100016e2
10001e4d 59              pop     ecx
10001e4e 837e4000        cmp     dword ptr [esi+40h],0
10001e52 7409            je      10001e5d
10001e54 ff7640          push    dword ptr [esi+40h]
10001e57 e886f8ffff      call    100016e2
10001e5c 59              pop     ecx
10001e5d 837e4400        cmp     dword ptr [esi+44h],0
10001e61 7409            je      10001e6c
10001e63 ff7644          push    dword ptr [esi+44h]
10001e66 e877f8ffff      call    100016e2
10001e6b 59              pop     ecx
10001e6c 837e4800        cmp     dword ptr [esi+48h],0
10001e70 7409            je      10001e7b
10001e72 ff7648          push    dword ptr [esi+48h]
10001e75 e868f8ffff      call    100016e2
10001e7a 59              pop     ecx
10001e7b 817e5c68a10010  cmp     dword ptr [esi+5Ch],1000A168h
10001e82 7409            je      10001e8d
10001e84 ff765c          push    dword ptr [esi+5Ch]
10001e87 e856f8ffff      call    100016e2
10001e8c 59              pop     ecx
10001e8d 6a0d            push    0Dh
10001e8f e8a7170000      call    1000363b
10001e94 59              pop     ecx
10001e95 8365fc00        and     dword ptr [ebp-4],0
10001e99 8b7e68          mov     edi,dword ptr [esi+68h]
10001e9c 85ff            test    edi,edi
10001e9e 741a            je      10001eba
10001ea0 57              push    edi
10001ea1 ff1558a00010    call    dword ptr ds:[1000A058h]
10001ea7 85c0            test    eax,eax
10001ea9 750f            jne     10001eba
10001eab 81ff20f80010    cmp     edi,1000F820h
10001eb1 7407            je      10001eba
10001eb3 57              push    edi
10001eb4 e829f8ffff      call    100016e2
10001eb9 59              pop     ecx
10001eba c745fcfeffffff  mov     dword ptr [ebp-4],0FFFFFFFEh
10001ec1 e857000000      call    10001f1d
10001ec6 6a0c            push    0Ch
10001ec8 e86e170000      call    1000363b
10001ecd 59              pop     ecx
10001ece c745fc01000000  mov     dword ptr [ebp-4],1
10001ed5 8b7e6c          mov     edi,dword ptr [esi+6Ch]
10001ed8 85ff            test    edi,edi
10001eda 7423            je      10001eff
10001edc 57              push    edi
10001edd e8bc1a0000      call    1000399e
10001ee2 59              pop     ecx
10001ee3 3b3d5cf40010    cmp     edi,dword ptr ds:[1000F45Ch]
10001ee9 7414            je      10001eff
10001eeb 81ff60f40010    cmp     edi,1000F460h
10001ef1 740c            je      10001eff
10001ef3 833f00          cmp     dword ptr [edi],0
10001ef6 7507            jne     10001eff
10001ef8 57              push    edi
10001ef9 e846190000      call    10003844
10001efe 59              pop     ecx
10001eff c745fcfeffffff  mov     dword ptr [ebp-4],0FFFFFFFEh
10001f06 e81e000000      call    10001f29
10001f0b 56              push    esi
10001f0c e8d1f7ffff      call    100016e2
10001f11 59              pop     ecx
10001f12 e8be110000      call    100030d5
10001f17 c20400          ret     4
10001f1a 8b7508          mov     esi,dword ptr [ebp+8]
10001f1d 6a0d            push    0Dh
10001f1f e87b180000      call    1000379f
10001f24 59              pop     ecx
10001f25 c3              ret
10001f26 8b7508          mov     esi,dword ptr [ebp+8]
10001f29 6a0c            push    0Ch
10001f2b e86f180000      call    1000379f
10001f30 59              pop     ecx
10001f31 c3              ret
10001f32 55              push    ebp
10001f33 8bec            mov     ebp,esp
10001f35 a178f10010      mov     eax,dword ptr ds:[1000F178h]
10001f3a 83f8ff          cmp     eax,0FFFFFFFFh
10001f3d 7427            je      10001f66
10001f3f 56              push    esi
10001f40 8b7508          mov     esi,dword ptr [ebp+8]
10001f43 85f6            test    esi,esi
10001f45 750e            jne     10001f55
10001f47 50              push    eax
10001f48 e8370d0000      call    10002c84
10001f4d 8bf0            mov     esi,eax
10001f4f a178f10010      mov     eax,dword ptr ds:[1000F178h]
10001f54 59              pop     ecx
10001f55 6a00            push    0
10001f57 50              push    eax
10001f58 e8460d0000      call    10002ca3
10001f5d 59              pop     ecx
10001f5e 59              pop     ecx
10001f5f 56              push    esi
10001f60 e896feffff      call    10001dfb
10001f65 5e              pop     esi
10001f66 5d              pop     ebp
10001f67 c3              ret
10001f68 56              push    esi
10001f69 e812000000      call    10001f80
10001f6e 8bf0            mov     esi,eax
10001f70 85f6            test    esi,esi
10001f72 7508            jne     10001f7c
10001f74 6a10            push    10h
10001f76 e812030000      call    1000228d
10001f7b 59              pop     ecx
10001f7c 8bc6            mov     eax,esi
10001f7e 5e              pop     esi
10001f7f c3              ret
10001f80 56              push    esi
10001f81 57              push    edi
10001f82 ff1530a00010    call    dword ptr ds:[1000A030h]
10001f88 ff3578f10010    push    dword ptr ds:[1000F178h]
10001f8e 8bf8            mov     edi,eax
10001f90 e8ef0c0000      call    10002c84
10001f95 8bf0            mov     esi,eax
10001f97 59              pop     ecx
10001f98 85f6            test    esi,esi
10001f9a 7547            jne     10001fe3
10001f9c 68bc030000      push    3BCh
10001fa1 6a01            push    1
10001fa3 e8c50f0000      call    10002f6d
10001fa8 8bf0            mov     esi,eax
10001faa 59              pop     ecx
10001fab 59              pop     ecx
10001fac 85f6            test    esi,esi
10001fae 7433            je      10001fe3
10001fb0 56              push    esi
10001fb1 ff3578f10010    push    dword ptr ds:[1000F178h]
10001fb7 e8e70c0000      call    10002ca3
10001fbc 59              pop     ecx
10001fbd 59              pop     ecx
10001fbe 85c0            test    eax,eax
10001fc0 7418            je      10001fda
10001fc2 6a00            push    0
10001fc4 56              push    esi
10001fc5 e825000000      call    10001fef
10001fca 59              pop     ecx
10001fcb 59              pop     ecx
10001fcc ff153ca00010    call    dword ptr ds:[1000A03Ch]
10001fd2 834e04ff        or      dword ptr [esi+4],0FFFFFFFFh
10001fd6 8906            mov     dword ptr [esi],eax
10001fd8 eb09            jmp     10001fe3
10001fda 56              push    esi
10001fdb e802f7ffff      call    100016e2
10001fe0 59              pop     ecx
10001fe1 33f6            xor     esi,esi
10001fe3 57              push    edi
10001fe4 ff1550a00010    call    dword ptr ds:[1000A050h]
10001fea 5f              pop     edi
10001feb 8bc6            mov     eax,esi
10001fed 5e              pop     esi
10001fee c3              ret
10001fef 6a08            push    8
10001ff1 6818dd0010      push    1000DD18h
10001ff6 e895100000      call    10003090
10001ffb 8b7508          mov     esi,dword ptr [ebp+8]
10001ffe c7465c68a10010  mov     dword ptr [esi+5Ch],1000A168h
10002005 83660800        and     dword ptr [esi+8],0
10002009 33ff            xor     edi,edi
1000200b 47              inc     edi
1000200c 897e14          mov     dword ptr [esi+14h],edi
1000200f 897e70          mov     dword ptr [esi+70h],edi
10002012 6a43            push    43h
10002014 58              pop     eax
10002015 668986b8000000  mov     word ptr [esi+0B8h],ax
1000201c 668986be010000  mov     word ptr [esi+1BEh],ax
10002023 c7466820f80010  mov     dword ptr [esi+68h],1000F820h
1000202a 83a6b803000000  and     dword ptr [esi+3B8h],0
10002031 6a0d            push    0Dh
10002033 e803160000      call    1000363b
10002038 59              pop     ecx
10002039 8365fc00        and     dword ptr [ebp-4],0
1000203d ff7668          push    dword ptr [esi+68h]
10002040 ff1554a00010    call    dword ptr ds:[1000A054h]
10002046 c745fcfeffffff  mov     dword ptr [ebp-4],0FFFFFFFEh
1000204d e83e000000      call    10002090
10002052 6a0c            push    0Ch
10002054 e8e2150000      call    1000363b
10002059 59              pop     ecx
1000205a 897dfc          mov     dword ptr [ebp-4],edi
1000205d 8b450c          mov     eax,dword ptr [ebp+0Ch]
10002060 89466c          mov     dword ptr [esi+6Ch],eax
10002063 85c0            test    eax,eax
10002065 7508            jne     1000206f
10002067 a15cf40010      mov     eax,dword ptr ds:[1000F45Ch]
1000206c 89466c          mov     dword ptr [esi+6Ch],eax
1000206f ff766c          push    dword ptr [esi+6Ch]
10002072 e83d170000      call    100037b4
10002077 59              pop     ecx
10002078 c745fcfeffffff  mov     dword ptr [ebp-4],0FFFFFFFEh
1000207f e815000000      call    10002099
10002084 e84c100000      call    100030d5
10002089 c3              ret
1000208a 33ff            xor     edi,edi
1000208c 47              inc     edi
1000208d 8b7508          mov     esi,dword ptr [ebp+8]
10002090 6a0d            push    0Dh
10002092 e808170000      call    1000379f
10002097 59              pop     ecx
10002098 c3              ret
10002099 6a0c            push    0Ch
1000209b e8ff160000      call    1000379f
100020a0 59              pop     ecx
100020a1 c3              ret
100020a2 e8b6020000      call    1000235d
100020a7 e8be160000      call    1000376a
100020ac 85c0            test    eax,eax
100020ae 7508            jne     100020b8
100020b0 e863000000      call    10002118
100020b5 33c0            xor     eax,eax
100020b7 c3              ret
100020b8 68fb1d0010      push    10001DFBh
100020bd e8850b0000      call    10002c47
100020c2 59              pop     ecx
100020c3 a378f10010      mov     dword ptr ds:[1000F178h],eax
100020c8 83f8ff          cmp     eax,0FFFFFFFFh
100020cb 74e3            je      100020b0
100020cd 56              push    esi
100020ce 68bc030000      push    3BCh
100020d3 6a01            push    1
100020d5 e8930e0000      call    10002f6d
100020da 8bf0            mov     esi,eax
100020dc 59              pop     ecx
100020dd 59              pop     ecx
100020de 85f6            test    esi,esi
100020e0 742d            je      1000210f
100020e2 56              push    esi
100020e3 ff3578f10010    push    dword ptr ds:[1000F178h]
100020e9 e8b50b0000      call    10002ca3
100020ee 59              pop     ecx
100020ef 59              pop     ecx
100020f0 85c0            test    eax,eax
100020f2 741b            je      1000210f
100020f4 6a00            push    0
100020f6 56              push    esi
100020f7 e8f3feffff      call    10001fef
100020fc 59              pop     ecx
100020fd 59              pop     ecx
100020fe ff153ca00010    call    dword ptr ds:[1000A03Ch]
10002104 834e04ff        or      dword ptr [esi+4],0FFFFFFFFh
10002108 8906            mov     dword ptr [esi],eax
1000210a 33c0            xor     eax,eax
1000210c 40              inc     eax
1000210d 5e              pop     esi
1000210e c3              ret
1000210f e804000000      call    10002118
10002114 33c0            xor     eax,eax
10002116 5e              pop     esi
10002117 c3              ret
10002118 a178f10010      mov     eax,dword ptr ds:[1000F178h]
1000211d 83f8ff          cmp     eax,0FFFFFFFFh
10002120 740e            je      10002130
10002122 50              push    eax
10002123 e83d0b0000      call    10002c65
10002128 830d78f10010ff  or      dword ptr ds:[1000F178h],0FFFFFFFFh
1000212f 59              pop     ecx
10002130 e93a150000      jmp     1000366f
10002135 55              push    ebp
10002136 8bec            mov     ebp,esp
10002138 51              push    ecx
10002139 8d45fc          lea     eax,[ebp-4]
1000213c 50              push    eax
1000213d 6808a20010      push    1000A208h
10002142 6a00            push    0
10002144 ff1560a00010    call    dword ptr ds:[1000A060h]
1000214a 85c0            test    eax,eax
1000214c 7417            je      10002165
1000214e 6820a20010      push    1000A220h
10002153 ff75fc          push    dword ptr [ebp-4]
10002156 ff1514a00010    call    dword ptr ds:[1000A014h]
1000215c 85c0            test    eax,eax
1000215e 7405            je      10002165
10002160 ff7508          push    dword ptr [ebp+8]
10002163 ffd0            call    eax
10002165 c9              leave
10002166 c3              ret
10002167 55              push    ebp
10002168 8bec            mov     ebp,esp
1000216a ff7508          push    dword ptr [ebp+8]
1000216d e8c3ffffff      call    10002135
10002172 59              pop     ecx
10002173 ff7508          push    dword ptr [ebp+8]
10002176 ff155ca00010    call    dword ptr ds:[1000A05Ch]
1000217c cc              int     3
1000217d 56              push    esi
1000217e 57              push    edi
1000217f ff35409e0010    push    dword ptr ds:[10009E40h]
10002185 ff154ca00010    call    dword ptr ds:[1000A04Ch]
1000218b 8b3564830010    mov     esi,dword ptr ds:[10008364h]
10002191 8bf8            mov     edi,eax
10002193 85f6            test    esi,esi
10002195 7418            je      100021af
10002197 833e00          cmp     dword ptr [esi],0
1000219a 740d            je      100021a9
1000219c ff36            push    dword ptr [esi]
1000219e e83ff5ffff      call    100016e2
100021a3 59              pop     ecx
100021a4 83c604          add     esi,4
100021a7 75ee            jne     10002197
100021a9 8b3564830010    mov     esi,dword ptr ds:[10008364h]
100021af 53              push    ebx
100021b0 56              push    esi
100021b1 e82cf5ffff      call    100016e2
100021b6 8b3560830010    mov     esi,dword ptr ds:[10008360h]
100021bc 33db            xor     ebx,ebx
100021be 59              pop     ecx
100021bf 891d64830010    mov     dword ptr ds:[10008364h],ebx
100021c5 85f6            test    esi,esi
100021c7 7417            je      100021e0
100021c9 391e            cmp     dword ptr [esi],ebx
100021cb 740d            je      100021da
100021cd ff36            push    dword ptr [esi]
100021cf e80ef5ffff      call    100016e2
100021d4 59              pop     ecx
100021d5 83c604          add     esi,4
100021d8 75ef            jne     100021c9
100021da 8b3560830010    mov     esi,dword ptr ds:[10008360h]
100021e0 56              push    esi
100021e1 e8fcf4ffff      call    100016e2
100021e6 ff355c830010    push    dword ptr ds:[1000835Ch]
100021ec 891d60830010    mov     dword ptr ds:[10008360h],ebx
100021f2 e8ebf4ffff      call    100016e2
100021f7 ff3558830010    push    dword ptr ds:[10008358h]
100021fd e8e0f4ffff      call    100016e2
10002202 83c40c          add     esp,0Ch
10002205 891d5c830010    mov     dword ptr ds:[1000835Ch],ebx
1000220b 891d58830010    mov     dword ptr ds:[10008358h],ebx
10002211 83ffff          cmp     edi,0FFFFFFFFh
10002214 740f            je      10002225
10002216 391d409e0010    cmp     dword ptr ds:[10009E40h],ebx
1000221c 7407            je      10002225
1000221e 57              push    edi
1000221f e8bef4ffff      call    100016e2
10002224 59              pop     ecx
10002225 6aff            push    0FFFFFFFFh
10002227 ff1548a00010    call    dword ptr ds:[1000A048h]
1000222d a3409e0010      mov     dword ptr ds:[10009E40h],eax
10002232 a1448d0010      mov     eax,dword ptr ds:[10008D44h]
10002237 85c0            test    eax,eax
10002239 740d            je      10002248
1000223b 50              push    eax
1000223c e8a1f4ffff      call    100016e2
10002241 59              pop     ecx
10002242 891d448d0010    mov     dword ptr ds:[10008D44h],ebx
10002248 a1488d0010      mov     eax,dword ptr ds:[10008D48h]
1000224d 85c0            test    eax,eax
1000224f 740d            je      1000225e
10002251 50              push    eax
10002252 e88bf4ffff      call    100016e2
10002257 59              pop     ecx
10002258 891d488d0010    mov     dword ptr ds:[10008D48h],ebx
1000225e ff3520f50010    push    dword ptr ds:[1000F520h]
10002264 ff1558a00010    call    dword ptr ds:[1000A058h]
1000226a 5b              pop     ebx
1000226b 85c0            test    eax,eax
1000226d 751b            jne     1000228a
1000226f a120f50010      mov     eax,dword ptr ds:[1000F520h]
10002274 be20f80010      mov     esi,1000F820h
10002279 3bc6            cmp     eax,esi
1000227b 740d            je      1000228a
1000227d 50              push    eax
1000227e e85ff4ffff      call    100016e2
10002283 59              pop     ecx
10002284 893520f50010    mov     dword ptr ds:[1000F520h],esi
1000228a 5f              pop     edi
1000228b 5e              pop     esi
1000228c c3              ret
1000228d 55              push    ebp
1000228e 8bec            mov     ebp,esp
10002290 e8f80f0000      call    1000328d
10002295 ff7508          push    dword ptr [ebp+8]
10002298 e84d100000      call    100032ea
1000229d 59              pop     ecx
1000229e 68ff000000      push    0FFh
100022a3 e8a1000000      call    10002349
100022a8 cc              int     3
100022a9 6a01            push    1
100022ab 6a00            push    0
100022ad 6a00            push    0
100022af e831010000      call    100023e5
100022b4 83c40c          add     esp,0Ch
100022b7 c3              ret
100022b8 55              push    ebp
100022b9 8bec            mov     ebp,esp
100022bb 833d449e001000  cmp     dword ptr ds:[10009E44h],0
100022c2 7419            je      100022dd
100022c4 68449e0010      push    10009E44h
100022c9 e812200000      call    100042e0
100022ce 59              pop     ecx
100022cf 85c0            test    eax,eax
100022d1 740a            je      100022dd
100022d3 ff7508          push    dword ptr [ebp+8]
100022d6 ff15449e0010    call    dword ptr ds:[10009E44h]
100022dc 59              pop     ecx
100022dd e829220000      call    1000450b
100022e2 6838a10010      push    1000A138h
100022e7 6824a10010      push    1000A124h
100022ec e8c0000000      call    100023b1
100022f1 59              pop     ecx
100022f2 59              pop     ecx
100022f3 85c0            test    eax,eax
100022f5 7550            jne     10002347
100022f7 56              push    esi
100022f8 57              push    edi
100022f9 686c300010      push    1000306Ch
100022fe e8f3210000      call    100044f6
10002303 59              pop     ecx
10002304 be1ca10010      mov     esi,1000A11Ch
10002309 bf20a10010      mov     edi,1000A120h
1000230e eb0b            jmp     1000231b
10002310 8b06            mov     eax,dword ptr [esi]
10002312 85c0            test    eax,eax
10002314 7402            je      10002318
10002316 ffd0            call    eax
10002318 83c604          add     esi,4
1000231b 3bf7            cmp     esi,edi
1000231d 72f1            jb      10002310
1000231f 833d389e001000  cmp     dword ptr ds:[10009E38h],0
10002326 5f              pop     edi
10002327 5e              pop     esi
10002328 741b            je      10002345
1000232a 68389e0010      push    10009E38h
1000232f e8ac1f0000      call    100042e0
10002334 59              pop     ecx
10002335 85c0            test    eax,eax
10002337 740c            je      10002345
10002339 6a00            push    0
1000233b 6a02            push    2
1000233d 6a00            push    0
1000233f ff15389e0010    call    dword ptr ds:[10009E38h]
10002345 33c0            xor     eax,eax
10002347 5d              pop     ebp
10002348 c3              ret
10002349 55              push    ebp
1000234a 8bec            mov     ebp,esp
1000234c 6a00            push    0
1000234e 6a01            push    1
10002350 ff7508          push    dword ptr [ebp+8]
10002353 e88d000000      call    100023e5
10002358 83c40c          add     esp,0Ch
1000235b 5d              pop     ebp
1000235c c3              ret
1000235d 56              push    esi
1000235e 6a00            push    0
10002360 ff1548a00010    call    dword ptr ds:[1000A048h]
10002366 8bf0            mov     esi,eax
10002368 56              push    esi
10002369 e8eaf8ffff      call    10001c58
1000236e 56              push    esi
1000236f e854120000      call    100035c8
10002374 56              push    esi
10002375 e8f5210000      call    1000456f
1000237a 56              push    esi
1000237b e8fc210000      call    1000457c
10002380 56              push    esi
10002381 e810220000      call    10004596
10002386 56              push    esi
10002387 e8d2210000      call    1000455e
1000238c 83c418          add     esp,18h
1000238f 5e              pop     esi
10002390 e96e090000      jmp     10002d03
10002395 55              push    ebp
10002396 8bec            mov     ebp,esp
10002398 56              push    esi
10002399 8b7508          mov     esi,dword ptr [ebp+8]
1000239c eb0b            jmp     100023a9
1000239e 8b06            mov     eax,dword ptr [esi]
100023a0 85c0            test    eax,eax
100023a2 7402            je      100023a6
100023a4 ffd0            call    eax
100023a6 83c604          add     esi,4
100023a9 3b750c          cmp     esi,dword ptr [ebp+0Ch]
100023ac 72f0            jb      1000239e
100023ae 5e              pop     esi
100023af 5d              pop     ebp
100023b0 c3              ret
100023b1 55              push    ebp
100023b2 8bec            mov     ebp,esp
100023b4 56              push    esi
100023b5 8b7508          mov     esi,dword ptr [ebp+8]
100023b8 33c0            xor     eax,eax
100023ba eb0f            jmp     100023cb
100023bc 85c0            test    eax,eax
100023be 7510            jne     100023d0
100023c0 8b0e            mov     ecx,dword ptr [esi]
100023c2 85c9            test    ecx,ecx
100023c4 7402            je      100023c8
100023c6 ffd1            call    ecx
100023c8 83c604          add     esi,4
100023cb 3b750c          cmp     esi,dword ptr [ebp+0Ch]
100023ce 72ec            jb      100023bc
100023d0 5e              pop     esi
100023d1 5d              pop     ebp
100023d2 c3              ret
100023d3 6a08            push    8
100023d5 e861120000      call    1000363b
100023da 59              pop     ecx
100023db c3              ret
100023dc 6a08            push    8
100023de e8bc130000      call    1000379f
100023e3 59              pop     ecx
100023e4 c3              ret
100023e5 6a1c            push    1Ch
100023e7 6840dd0010      push    1000DD40h
100023ec e89f0c0000      call    10003090
100023f1 6a08            push    8
100023f3 e843120000      call    1000363b
100023f8 59              pop     ecx
100023f9 8365fc00        and     dword ptr [ebp-4],0
100023fd 833d5083001001  cmp     dword ptr ds:[10008350h],1
10002404 0f84c9000000    je      100024d3
1000240a c7054483001001000000 mov dword ptr ds:[10008344h],1
10002414 8a4510          mov     al,byte ptr [ebp+10h]
10002417 a240830010      mov     byte ptr ds:[10008340h],al
1000241c 837d0c00        cmp     dword ptr [ebp+0Ch],0
10002420 0f859c000000    jne     100024c2
10002426 ff35409e0010    push    dword ptr ds:[10009E40h]
1000242c 8b354ca00010    mov     esi,dword ptr ds:[1000A04Ch]
10002432 ffd6            call    esi
10002434 8bd8            mov     ebx,eax
10002436 895dd4          mov     dword ptr [ebp-2Ch],ebx
10002439 85db            test    ebx,ebx
1000243b 7474            je      100024b1
1000243d ff353c9e0010    push    dword ptr ds:[10009E3Ch]
10002443 ffd6            call    esi
10002445 8bf8            mov     edi,eax
10002447 895de4          mov     dword ptr [ebp-1Ch],ebx
1000244a 897de0          mov     dword ptr [ebp-20h],edi
1000244d 897ddc          mov     dword ptr [ebp-24h],edi
10002450 83ef04          sub     edi,4
10002453 897ddc          mov     dword ptr [ebp-24h],edi
10002456 3bfb            cmp     edi,ebx
10002458 7257            jb      100024b1
1000245a 6a00            push    0
1000245c ff1548a00010    call    dword ptr ds:[1000A048h]
10002462 3907            cmp     dword ptr [edi],eax
10002464 74ea            je      10002450
10002466 3bfb            cmp     edi,ebx
10002468 7247            jb      100024b1
1000246a ff37            push    dword ptr [edi]
1000246c ffd6            call    esi
1000246e 8bf0            mov     esi,eax
10002470 6a00            push    0
10002472 ff1548a00010    call    dword ptr ds:[1000A048h]
10002478 8907            mov     dword ptr [edi],eax
1000247a ffd6            call    esi
1000247c ff35409e0010    push    dword ptr ds:[10009E40h]
10002482 8b354ca00010    mov     esi,dword ptr ds:[1000A04Ch]
10002488 ffd6            call    esi
1000248a 8945d8          mov     dword ptr [ebp-28h],eax
1000248d ff353c9e0010    push    dword ptr ds:[10009E3Ch]
10002493 ffd6            call    esi
10002495 8b4dd8          mov     ecx,dword ptr [ebp-28h]
10002498 394de4          cmp     dword ptr [ebp-1Ch],ecx
1000249b 7505            jne     100024a2
1000249d 3945e0          cmp     dword ptr [ebp-20h],eax
100024a0 74ae            je      10002450
100024a2 894de4          mov     dword ptr [ebp-1Ch],ecx
100024a5 8bd9            mov     ebx,ecx
100024a7 895dd4          mov     dword ptr [ebp-2Ch],ebx
100024aa 8945e0          mov     dword ptr [ebp-20h],eax
100024ad 8bf8            mov     edi,eax
100024af eb9c            jmp     1000244d
100024b1 684ca10010      push    1000A14Ch
100024b6 683ca10010      push    1000A13Ch
100024bb e8d5feffff      call    10002395
100024c0 59              pop     ecx
100024c1 59              pop     ecx
100024c2 6854a10010      push    1000A154h
100024c7 6850a10010      push    1000A150h
100024cc e8c4feffff      call    10002395
100024d1 59              pop     ecx
100024d2 59              pop     ecx
100024d3 c745fcfeffffff  mov     dword ptr [ebp-4],0FFFFFFFEh
100024da e820000000      call    100024ff
100024df 837d1000        cmp     dword ptr [ebp+10h],0
100024e3 7529            jne     1000250e
100024e5 c7055083001001000000 mov dword ptr ds:[10008350h],1
100024ef 6a08            push    8
100024f1 e8a9120000      call    1000379f
100024f6 59              pop     ecx
100024f7 ff7508          push    dword ptr [ebp+8]
100024fa e868fcffff      call    10002167
100024ff 837d1000        cmp     dword ptr [ebp+10h],0
10002503 7408            je      1000250d
10002505 6a08            push    8
10002507 e893120000      call    1000379f
1000250c 59              pop     ecx
1000250d c3              ret
1000250e e8c20b0000      call    100030d5
10002513 c3              ret
10002514 6a64            push    64h
10002516 6860dd0010      push    1000DD60h
1000251b e8700b0000      call    10003090
10002520 6a0b            push    0Bh
10002522 e814110000      call    1000363b
10002527 59              pop     ecx
10002528 33db            xor     ebx,ebx
1000252a 895dfc          mov     dword ptr [ebp-4],ebx
1000252d 6a40            push    40h
1000252f 6a20            push    20h
10002531 5f              pop     edi
10002532 57              push    edi
10002533 e8350a0000      call    10002f6d
10002538 59              pop     ecx
10002539 59              pop     ecx
1000253a 8bc8            mov     ecx,eax
1000253c 894ddc          mov     dword ptr [ebp-24h],ecx
1000253f 85c9            test    ecx,ecx
10002541 751b            jne     1000255e
10002543 6afe            push    0FFFFFFFEh
10002545 8d45f0          lea     eax,[ebp-10h]
10002548 50              push    eax
10002549 6800f00010      push    1000F000h
1000254e e85d220000      call    100047b0
10002553 83c40c          add     esp,0Ch
10002556 83c8ff          or      eax,0FFFFFFFFh
10002559 e955020000      jmp     100027b3
1000255e a370830010      mov     dword ptr ds:[10008370h],eax
10002563 893d349e0010    mov     dword ptr ds:[10009E34h],edi
10002569 0500080000      add     eax,800h
1000256e 3bc8            cmp     ecx,eax
10002570 7331            jae     100025a3
10002572 66c74104000a    mov     word ptr [ecx+4],0A00h
10002578 8309ff          or      dword ptr [ecx],0FFFFFFFFh
1000257b 895908          mov     dword ptr [ecx+8],ebx
1000257e 80612480        and     byte ptr [ecx+24h],80h
10002582 8a4124          mov     al,byte ptr [ecx+24h]
10002585 247f            and     al,7Fh
10002587 884124          mov     byte ptr [ecx+24h],al
1000258a 66c741250a0a    mov     word ptr [ecx+25h],0A0Ah
10002590 895938          mov     dword ptr [ecx+38h],ebx
10002593 885934          mov     byte ptr [ecx+34h],bl
10002596 83c140          add     ecx,40h
10002599 894ddc          mov     dword ptr [ebp-24h],ecx
1000259c a170830010      mov     eax,dword ptr ds:[10008370h]
100025a1 ebc6            jmp     10002569
100025a3 8d458c          lea     eax,[ebp-74h]
100025a6 50              push    eax
100025a7 ff1578a00010    call    dword ptr ds:[1000A078h]
100025ad 66837dbe00      cmp     word ptr [ebp-42h],0
100025b2 0f8429010000    je      100026e1
100025b8 8b45c0          mov     eax,dword ptr [ebp-40h]
100025bb 85c0            test    eax,eax
100025bd 0f841e010000    je      100026e1
100025c3 8b08            mov     ecx,dword ptr [eax]
100025c5 894de4          mov     dword ptr [ebp-1Ch],ecx
100025c8 83c004          add     eax,4
100025cb 8945d8          mov     dword ptr [ebp-28h],eax
100025ce 03c1            add     eax,ecx
100025d0 8945e0          mov     dword ptr [ebp-20h],eax
100025d3 b800080000      mov     eax,800h
100025d8 3bc8            cmp     ecx,eax
100025da 7c05            jl      100025e1
100025dc 8bc8            mov     ecx,eax
100025de 894de4          mov     dword ptr [ebp-1Ch],ecx
100025e1 33f6            xor     esi,esi
100025e3 46              inc     esi
100025e4 8975d0          mov     dword ptr [ebp-30h],esi
100025e7 390d349e0010    cmp     dword ptr ds:[10009E34h],ecx
100025ed 7d20            jge     1000260f
100025ef 6a40            push    40h
100025f1 57              push    edi
100025f2 e876090000      call    10002f6d
100025f7 59              pop     ecx
100025f8 59              pop     ecx
100025f9 8bc8            mov     ecx,eax
100025fb 894ddc          mov     dword ptr [ebp-24h],ecx
100025fe 85c9            test    ecx,ecx
10002600 0f858e000000    jne     10002694
10002606 8b0d349e0010    mov     ecx,dword ptr ds:[10009E34h]
1000260c 894de4          mov     dword ptr [ebp-1Ch],ecx
1000260f 8bfb            mov     edi,ebx
10002611 897dd4          mov     dword ptr [ebp-2Ch],edi
10002614 8b45d8          mov     eax,dword ptr [ebp-28h]
10002617 8b55e0          mov     edx,dword ptr [ebp-20h]
1000261a 3bf9            cmp     edi,ecx
1000261c 0f8dbf000000    jge     100026e1
10002622 8b32            mov     esi,dword ptr [edx]
10002624 83feff          cmp     esi,0FFFFFFFFh
10002627 7458            je      10002681
10002629 83fefe          cmp     esi,0FFFFFFFEh
1000262c 7453            je      10002681
1000262e 8a00            mov     al,byte ptr [eax]
10002630 a801            test    al,1
10002632 744d            je      10002681
10002634 a808            test    al,8
10002636 750e            jne     10002646
10002638 56              push    esi
10002639 ff156ca00010    call    dword ptr ds:[1000A06Ch]
1000263f 8b55e0          mov     edx,dword ptr [ebp-20h]
10002642 85c0            test    eax,eax
10002644 7438            je      1000267e
10002646 8bc7            mov     eax,edi
10002648 c1f805          sar     eax,5
1000264b 8bf7            mov     esi,edi
1000264d 83e61f          and     esi,1Fh
10002650 c1e606          shl     esi,6
10002653 03348570830010  add     esi,dword ptr [eax*4+10008370h]
1000265a 8975dc          mov     dword ptr [ebp-24h],esi
1000265d 8b02            mov     eax,dword ptr [edx]
1000265f 8906            mov     dword ptr [esi],eax
10002661 8b45d8          mov     eax,dword ptr [ebp-28h]
10002664 8a00            mov     al,byte ptr [eax]
10002666 884604          mov     byte ptr [esi+4],al
10002669 68a00f0000      push    0FA0h
1000266e 8d460c          lea     eax,[esi+0Ch]
10002671 50              push    eax
10002672 ff1570a00010    call    dword ptr ds:[1000A070h]
10002678 ff4608          inc     dword ptr [esi+8]
1000267b 8b55e0          mov     edx,dword ptr [ebp-20h]
1000267e 8b4de4          mov     ecx,dword ptr [ebp-1Ch]
10002681 47              inc     edi
10002682 897dd4          mov     dword ptr [ebp-2Ch],edi
10002685 8b45d8          mov     eax,dword ptr [ebp-28h]
10002688 40              inc     eax
10002689 8945d8          mov     dword ptr [ebp-28h],eax
1000268c 83c204          add     edx,4
1000268f 8955e0          mov     dword ptr [ebp-20h],edx
10002692 eb86            jmp     1000261a
10002694 890cb570830010  mov     dword ptr [esi*4+10008370h],ecx
1000269b 013d349e0010    add     dword ptr ds:[10009E34h],edi
100026a1 8b04b570830010  mov     eax,dword ptr [esi*4+10008370h]
100026a8 0500080000      add     eax,800h
100026ad 3bc8            cmp     ecx,eax
100026af 7324            jae     100026d5
100026b1 66c74104000a    mov     word ptr [ecx+4],0A00h
100026b7 8309ff          or      dword ptr [ecx],0FFFFFFFFh
100026ba 895908          mov     dword ptr [ecx+8],ebx
100026bd 80612480        and     byte ptr [ecx+24h],80h
100026c1 66c741250a0a    mov     word ptr [ecx+25h],0A0Ah
100026c7 895938          mov     dword ptr [ecx+38h],ebx
100026ca 885934          mov     byte ptr [ecx+34h],bl
100026cd 83c140          add     ecx,40h
100026d0 894ddc          mov     dword ptr [ebp-24h],ecx
100026d3 ebcc            jmp     100026a1
100026d5 46              inc     esi
100026d6 8975d0          mov     dword ptr [ebp-30h],esi
100026d9 8b4de4          mov     ecx,dword ptr [ebp-1Ch]
100026dc e906ffffff      jmp     100025e7
100026e1 895dd4          mov     dword ptr [ebp-2Ch],ebx
100026e4 83fb03          cmp     ebx,3
100026e7 0f8db8000000    jge     100027a5
100026ed 8bf3            mov     esi,ebx
100026ef c1e606          shl     esi,6
100026f2 033570830010    add     esi,dword ptr ds:[10008370h]
100026f8 8975dc          mov     dword ptr [ebp-24h],esi
100026fb 833eff          cmp     dword ptr [esi],0FFFFFFFFh
100026fe 7413            je      10002713
10002700 833efe          cmp     dword ptr [esi],0FFFFFFFEh
10002703 740e            je      10002713
10002705 0fbe4604        movsx   eax,byte ptr [esi+4]
10002709 0c80            or      al,80h
1000270b 884604          mov     byte ptr [esi+4],al
1000270e e98c000000      jmp     1000279f
10002713 c6460481        mov     byte ptr [esi+4],81h
10002717 85db            test    ebx,ebx
10002719 7505            jne     10002720
1000271b 6af6            push    0FFFFFFF6h
1000271d 58              pop     eax
1000271e eb0a            jmp     1000272a
10002720 8d43ff          lea     eax,[ebx-1]
10002723 f7d8            neg     eax
10002725 1bc0            sbb     eax,eax
10002727 83c0f5          add     eax,0FFFFFFF5h
1000272a 50              push    eax
1000272b ff1568a00010    call    dword ptr ds:[1000A068h]
10002731 8bf8            mov     edi,eax
10002733 83ffff          cmp     edi,0FFFFFFFFh
10002736 7445            je      1000277d
10002738 85ff            test    edi,edi
1000273a 7441            je      1000277d
1000273c 57              push    edi
1000273d ff156ca00010    call    dword ptr ds:[1000A06Ch]
10002743 85c0            test    eax,eax
10002745 7436            je      1000277d
10002747 893e            mov     dword ptr [esi],edi
10002749 25ff000000      and     eax,0FFh
1000274e 83f802          cmp     eax,2
10002751 7508            jne     1000275b
10002753 0fbe4604        movsx   eax,byte ptr [esi+4]
10002757 0c40            or      al,40h
10002759 eb0b            jmp     10002766
1000275b 83f803          cmp     eax,3
1000275e 7509            jne     10002769
10002760 0fbe4604        movsx   eax,byte ptr [esi+4]
10002764 0c08            or      al,8
10002766 884604          mov     byte ptr [esi+4],al
10002769 68a00f0000      push    0FA0h
1000276e 8d460c          lea     eax,[esi+0Ch]
10002771 50              push    eax
10002772 ff1570a00010    call    dword ptr ds:[1000A070h]
10002778 ff4608          inc     dword ptr [esi+8]
1000277b eb22            jmp     1000279f
1000277d 0fbe4604        movsx   eax,byte ptr [esi+4]
10002781 0c40            or      al,40h
10002783 884604          mov     byte ptr [esi+4],al
10002786 c706feffffff    mov     dword ptr [esi],0FFFFFFFEh
1000278c a1888d0010      mov     eax,dword ptr ds:[10008D88h]
10002791 85c0            test    eax,eax
10002793 740a            je      1000279f
10002795 8b0498          mov     eax,dword ptr [eax+ebx*4]
10002798 c74010feffffff  mov     dword ptr [eax+10h],0FFFFFFFEh
1000279f 43              inc     ebx
100027a0 e93cffffff      jmp     100026e1
100027a5 c745fcfeffffff  mov     dword ptr [ebp-4],0FFFFFFFEh
100027ac e808000000      call    100027b9
100027b1 33c0            xor     eax,eax
100027b3 e81d090000      call    100030d5
100027b8 c3              ret
100027b9 6a0b            push    0Bh
100027bb e8df0f0000      call    1000379f
100027c0 59              pop     ecx
100027c1 c3              ret
100027c2 56              push    esi
100027c3 57              push    edi
100027c4 be70830010      mov     esi,10008370h
100027c9 8b3e            mov     edi,dword ptr [esi]
100027cb 85ff            test    edi,edi
100027cd 7437            je      10002806
100027cf 8d8700080000    lea     eax,[edi+800h]
100027d5 3bf8            cmp     edi,eax
100027d7 7322            jae     100027fb
100027d9 83c70c          add     edi,0Ch
100027dc 837ffc00        cmp     dword ptr [edi-4],0
100027e0 7407            je      100027e9
100027e2 57              push    edi
100027e3 ff1574a00010    call    dword ptr ds:[1000A074h]
100027e9 8b0e            mov     ecx,dword ptr [esi]
100027eb 83c740          add     edi,40h
100027ee 81c100080000    add     ecx,800h
100027f4 8d47f4          lea     eax,[edi-0Ch]
100027f7 3bc1            cmp     eax,ecx
100027f9 72e1            jb      100027dc
100027fb ff36            push    dword ptr [esi]
100027fd e8e0eeffff      call    100016e2
10002802 832600          and     dword ptr [esi],0
10002805 59              pop     ecx
10002806 83c604          add     esi,4
10002809 81fe70840010    cmp     esi,10008470h
1000280f 7cb8            jl      100027c9
10002811 5f              pop     edi
10002812 5e              pop     esi
10002813 c3              ret
10002814 55              push    ebp
10002815 8bec            mov     ebp,esp
10002817 51              push    ecx
10002818 51              push    ecx
10002819 833d489e001000  cmp     dword ptr ds:[10009E48h],0
10002820 7505            jne     10002827
10002822 e8d9120000      call    10003b00
10002827 53              push    ebx
10002828 56              push    esi
10002829 57              push    edi
1000282a 6804010000      push    104h
1000282f bf70840010      mov     edi,10008470h
10002834 33db            xor     ebx,ebx
10002836 57              push    edi
10002837 53              push    ebx
10002838 881d74850010    mov     byte ptr ds:[10008574h],bl
1000283e ff157ca00010    call    dword ptr ds:[1000A07Ch]
10002844 8b35509e0010    mov     esi,dword ptr ds:[10009E50h]
1000284a 893d68830010    mov     dword ptr ds:[10008368h],edi
10002850 85f6            test    esi,esi
10002852 7404            je      10002858
10002854 381e            cmp     byte ptr [esi],bl
10002856 7502            jne     1000285a
10002858 8bf7            mov     esi,edi
1000285a 8d45f8          lea     eax,[ebp-8]
1000285d 50              push    eax
1000285e 8d45fc          lea     eax,[ebp-4]
10002861 50              push    eax
10002862 53              push    ebx
10002863 53              push    ebx
10002864 56              push    esi
10002865 e85b000000      call    100028c5
1000286a 8b5dfc          mov     ebx,dword ptr [ebp-4]
1000286d 83c414          add     esp,14h
10002870 81fbffffff3f    cmp     ebx,3FFFFFFFh
10002876 7345            jae     100028bd
10002878 8b4df8          mov     ecx,dword ptr [ebp-8]
1000287b 83f9ff          cmp     ecx,0FFFFFFFFh
1000287e 733d            jae     100028bd
10002880 8d1499          lea     edx,[ecx+ebx*4]
10002883 3bd1            cmp     edx,ecx
10002885 7236            jb      100028bd
10002887 52              push    edx
10002888 e82a070000      call    10002fb7
1000288d 8bf8            mov     edi,eax
1000288f 59              pop     ecx
10002890 85ff            test    edi,edi
10002892 7429            je      100028bd
10002894 8d45f8          lea     eax,[ebp-8]
10002897 50              push    eax
10002898 8d45fc          lea     eax,[ebp-4]
1000289b 50              push    eax
1000289c 8d049f          lea     eax,[edi+ebx*4]
1000289f 50              push    eax
100028a0 57              push    edi
100028a1 56              push    esi
100028a2 e81e000000      call    100028c5
100028a7 8b45fc          mov     eax,dword ptr [ebp-4]
100028aa 83c414          add     esp,14h
100028ad 48              dec     eax
100028ae a354830010      mov     dword ptr ds:[10008354h],eax
100028b3 893d58830010    mov     dword ptr ds:[10008358h],edi
100028b9 33c0            xor     eax,eax
100028bb eb03            jmp     100028c0
100028bd 83c8ff          or      eax,0FFFFFFFFh
100028c0 5f              pop     edi
100028c1 5e              pop     esi
100028c2 5b              pop     ebx
100028c3 c9              leave
100028c4 c3              ret
100028c5 55              push    ebp
100028c6 8bec            mov     ebp,esp
100028c8 8b4514          mov     eax,dword ptr [ebp+14h]
100028cb 53              push    ebx
100028cc 8b5d18          mov     ebx,dword ptr [ebp+18h]
100028cf 56              push    esi
100028d0 832300          and     dword ptr [ebx],0
100028d3 8b7508          mov     esi,dword ptr [ebp+8]
100028d6 c70001000000    mov     dword ptr [eax],1
100028dc 8b450c          mov     eax,dword ptr [ebp+0Ch]
100028df 57              push    edi
100028e0 8b7d10          mov     edi,dword ptr [ebp+10h]
100028e3 85c0            test    eax,eax
100028e5 7408            je      100028ef
100028e7 8938            mov     dword ptr [eax],edi
100028e9 83c004          add     eax,4
100028ec 89450c          mov     dword ptr [ebp+0Ch],eax
100028ef 33c9            xor     ecx,ecx
100028f1 894d08          mov     dword ptr [ebp+8],ecx
100028f4 803e22          cmp     byte ptr [esi],22h
100028f7 7511            jne     1000290a
100028f9 33c0            xor     eax,eax
100028fb 85c9            test    ecx,ecx
100028fd 0f94c0          sete    al
10002900 46              inc     esi
10002901 8bc8            mov     ecx,eax
10002903 894d08          mov     dword ptr [ebp+8],ecx
10002906 b022            mov     al,22h
10002908 eb35            jmp     1000293f
1000290a ff03            inc     dword ptr [ebx]
1000290c 85ff            test    edi,edi
1000290e 7405            je      10002915
10002910 8a06            mov     al,byte ptr [esi]
10002912 8807            mov     byte ptr [edi],al
10002914 47              inc     edi
10002915 8a06            mov     al,byte ptr [esi]
10002917 88451b          mov     byte ptr [ebp+1Bh],al
1000291a 0fb6c0          movzx   eax,al
1000291d 50              push    eax
1000291e 46              inc     esi
1000291f e8a4210000      call    10004ac8
10002924 59              pop     ecx
10002925 85c0            test    eax,eax
10002927 740c            je      10002935
10002929 ff03            inc     dword ptr [ebx]
1000292b 85ff            test    edi,edi
1000292d 7405            je      10002934
1000292f 8a06            mov     al,byte ptr [esi]
10002931 8807            mov     byte ptr [edi],al
10002933 47              inc     edi
10002934 46              inc     esi
10002935 8a451b          mov     al,byte ptr [ebp+1Bh]
10002938 84c0            test    al,al
1000293a 7419            je      10002955
1000293c 8b4d08          mov     ecx,dword ptr [ebp+8]
1000293f 85c9            test    ecx,ecx
10002941 75b1            jne     100028f4
10002943 3c20            cmp     al,20h
10002945 7404            je      1000294b
10002947 3c09            cmp     al,9
10002949 75a9            jne     100028f4
1000294b 85ff            test    edi,edi
1000294d 7407            je      10002956
1000294f c647ff00        mov     byte ptr [edi-1],0
10002953 eb01            jmp     10002956
10002955 4e              dec     esi
10002956 83651800        and     dword ptr [ebp+18h],0
1000295a 803e00          cmp     byte ptr [esi],0
1000295d 0f84ca000000    je      10002a2d
10002963 8a06            mov     al,byte ptr [esi]
10002965 3c20            cmp     al,20h
10002967 7404            je      1000296d
10002969 3c09            cmp     al,9
1000296b 7503            jne     10002970
1000296d 46              inc     esi
1000296e ebf3            jmp     10002963
10002970 803e00          cmp     byte ptr [esi],0
10002973 0f84b4000000    je      10002a2d
10002979 8b550c          mov     edx,dword ptr [ebp+0Ch]
1000297c 85d2            test    edx,edx
1000297e 7408            je      10002988
10002980 893a            mov     dword ptr [edx],edi
10002982 83c204          add     edx,4
10002985 89550c          mov     dword ptr [ebp+0Ch],edx
10002988 8b4514          mov     eax,dword ptr [ebp+14h]
1000298b ff00            inc     dword ptr [eax]
1000298d 33d2            xor     edx,edx
1000298f 42              inc     edx
10002990 33c9            xor     ecx,ecx
10002992 eb02            jmp     10002996
10002994 46              inc     esi
10002995 41              inc     ecx
10002996 803e5c          cmp     byte ptr [esi],5Ch
10002999 74f9            je      10002994
1000299b 803e22          cmp     byte ptr [esi],22h
1000299e 7533            jne     100029d3
100029a0 f6c101          test    cl,1
100029a3 751f            jne     100029c4
100029a5 837d1800        cmp     dword ptr [ebp+18h],0
100029a9 740c            je      100029b7
100029ab 8d4601          lea     eax,[esi+1]
100029ae 803822          cmp     byte ptr [eax],22h
100029b1 7504            jne     100029b7
100029b3 8bf0            mov     esi,eax
100029b5 eb0d            jmp     100029c4
100029b7 33c0            xor     eax,eax
100029b9 33d2            xor     edx,edx
100029bb 394518          cmp     dword ptr [ebp+18h],eax
100029be 0f94c0          sete    al
100029c1 894518          mov     dword ptr [ebp+18h],eax
100029c4 d1e9            shr     ecx,1
100029c6 eb0b            jmp     100029d3
100029c8 49              dec     ecx
100029c9 85ff            test    edi,edi
100029cb 7404            je      100029d1
100029cd c6075c          mov     byte ptr [edi],5Ch
100029d0 47              inc     edi
100029d1 ff03            inc     dword ptr [ebx]
100029d3 85c9            test    ecx,ecx
100029d5 75f1            jne     100029c8
100029d7 8a06            mov     al,byte ptr [esi]
100029d9 84c0            test    al,al
100029db 7441            je      10002a1e
100029dd 394d18          cmp     dword ptr [ebp+18h],ecx
100029e0 7508            jne     100029ea
100029e2 3c20            cmp     al,20h
100029e4 7438            je      10002a1e
100029e6 3c09            cmp     al,9
100029e8 7434            je      10002a1e
100029ea 85d2            test    edx,edx
100029ec 742a            je      10002a18
100029ee 0fbec0          movsx   eax,al
100029f1 50              push    eax
100029f2 e8d1200000      call    10004ac8
100029f7 59              pop     ecx
100029f8 85ff            test    edi,edi
100029fa 7413            je      10002a0f
100029fc 85c0            test    eax,eax
100029fe 7408            je      10002a08
10002a00 8a06            mov     al,byte ptr [esi]
10002a02 8807            mov     byte ptr [edi],al
10002a04 47              inc     edi
10002a05 46              inc     esi
10002a06 ff03            inc     dword ptr [ebx]
10002a08 8a06            mov     al,byte ptr [esi]
10002a0a 8807            mov     byte ptr [edi],al
10002a0c 47              inc     edi
10002a0d eb07            jmp     10002a16
10002a0f 85c0            test    eax,eax
10002a11 7403            je      10002a16
10002a13 46              inc     esi
10002a14 ff03            inc     dword ptr [ebx]
10002a16 ff03            inc     dword ptr [ebx]
10002a18 46              inc     esi
10002a19 e96fffffff      jmp     1000298d
10002a1e 85ff            test    edi,edi
10002a20 7404            je      10002a26
10002a22 c60700          mov     byte ptr [edi],0
10002a25 47              inc     edi
10002a26 ff03            inc     dword ptr [ebx]
10002a28 e92dffffff      jmp     1000295a
10002a2d 8b550c          mov     edx,dword ptr [ebp+0Ch]
10002a30 5f              pop     edi
10002a31 5e              pop     esi
10002a32 5b              pop     ebx
10002a33 85d2            test    edx,edx
10002a35 7403            je      10002a3a
10002a37 832200          and     dword ptr [edx],0
10002a3a 8b4514          mov     eax,dword ptr [ebp+14h]
10002a3d ff00            inc     dword ptr [eax]
10002a3f 5d              pop     ebp
10002a40 c3              ret
10002a41 833d489e001000  cmp     dword ptr ds:[10009E48h],0
10002a48 7505            jne     10002a4f
10002a4a e8b1100000      call    10003b00
10002a4f 56              push    esi
10002a50 8b3504800010    mov     esi,dword ptr ds:[10008004h]
10002a56 57              push    edi
10002a57 33ff            xor     edi,edi
10002a59 85f6            test    esi,esi
10002a5b 7517            jne     10002a74
10002a5d 83c8ff          or      eax,0FFFFFFFFh
10002a60 e996000000      jmp     10002afb
10002a65 3c3d            cmp     al,3Dh
10002a67 7401            je      10002a6a
10002a69 47              inc     edi
10002a6a 56              push    esi
10002a6b e8d0200000      call    10004b40
10002a70 46              inc     esi
10002a71 59              pop     ecx
10002a72 03f0            add     esi,eax
10002a74 8a06            mov     al,byte ptr [esi]
10002a76 84c0            test    al,al
10002a78 75eb            jne     10002a65
10002a7a 8d4701          lea     eax,[edi+1]
10002a7d 6a04            push    4
10002a7f 50              push    eax
10002a80 e8e8040000      call    10002f6d
10002a85 8bf8            mov     edi,eax
10002a87 59              pop     ecx
10002a88 59              pop     ecx
10002a89 893d60830010    mov     dword ptr ds:[10008360h],edi
10002a8f 85ff            test    edi,edi
10002a91 74ca            je      10002a5d
10002a93 8b3504800010    mov     esi,dword ptr ds:[10008004h]
10002a99 53              push    ebx
10002a9a 803e00          cmp     byte ptr [esi],0
10002a9d 743e            je      10002add
10002a9f 56              push    esi
10002aa0 e89b200000      call    10004b40
10002aa5 803e3d          cmp     byte ptr [esi],3Dh
10002aa8 59              pop     ecx
10002aa9 8d5801          lea     ebx,[eax+1]
10002aac 7422            je      10002ad0
10002aae 6a01            push    1
10002ab0 53              push    ebx
10002ab1 e8b7040000      call    10002f6d
10002ab6 59              pop     ecx
10002ab7 59              pop     ecx
10002ab8 8907            mov     dword ptr [edi],eax
10002aba 85c0            test    eax,eax
10002abc 7440            je      10002afe
10002abe 56              push    esi
10002abf 53              push    ebx
10002ac0 50              push    eax
10002ac1 e818200000      call    10004ade
10002ac6 83c40c          add     esp,0Ch
10002ac9 85c0            test    eax,eax
10002acb 7548            jne     10002b15
10002acd 83c704          add     edi,4
10002ad0 03f3            add     esi,ebx
10002ad2 803e00          cmp     byte ptr [esi],0
10002ad5 75c8            jne     10002a9f
10002ad7 8b3504800010    mov     esi,dword ptr ds:[10008004h]
10002add 56              push    esi
10002ade e8ffebffff      call    100016e2
10002ae3 83250480001000  and     dword ptr ds:[10008004h],0
10002aea 832700          and     dword ptr [edi],0
10002aed c7054c9e001001000000 mov dword ptr ds:[10009E4Ch],1
10002af7 33c0            xor     eax,eax
10002af9 59              pop     ecx
10002afa 5b              pop     ebx
10002afb 5f              pop     edi
10002afc 5e              pop     esi
10002afd c3              ret
10002afe ff3560830010    push    dword ptr ds:[10008360h]
10002b04 e8d9ebffff      call    100016e2
10002b09 83256083001000  and     dword ptr ds:[10008360h],0
10002b10 83c8ff          or      eax,0FFFFFFFFh
10002b13 ebe4            jmp     10002af9
10002b15 33c0            xor     eax,eax
10002b17 50              push    eax
10002b18 50              push    eax
10002b19 50              push    eax
10002b1a 50              push    eax
10002b1b 50              push    eax
10002b1c e8ef0a0000      call    10003610
10002b21 cc              int     3
10002b22 55              push    ebp
10002b23 8bec            mov     ebp,esp
10002b25 83ec14          sub     esp,14h
10002b28 a100f00010      mov     eax,dword ptr ds:[1000F000h]
10002b2d 8365f400        and     dword ptr [ebp-0Ch],0
10002b31 8365f800        and     dword ptr [ebp-8],0
10002b35 56              push    esi
10002b36 57              push    edi
10002b37 bf4ee640bb      mov     edi,0BB40E64Eh
10002b3c be0000ffff      mov     esi,0FFFF0000h
10002b41 3bc7            cmp     eax,edi
10002b43 740d            je      10002b52
10002b45 85c6            test    esi,eax
10002b47 7409            je      10002b52
10002b49 f7d0            not     eax
10002b4b a304f00010      mov     dword ptr ds:[1000F004h],eax
10002b50 eb66            jmp     10002bb8
10002b52 8d45f4          lea     eax,[ebp-0Ch]
10002b55 50              push    eax
10002b56 ff1588a00010    call    dword ptr ds:[1000A088h]
10002b5c 8b45f8          mov     eax,dword ptr [ebp-8]
10002b5f 3345f4          xor     eax,dword ptr [ebp-0Ch]
10002b62 8945fc          mov     dword ptr [ebp-4],eax
10002b65 ff153ca00010    call    dword ptr ds:[1000A03Ch]
10002b6b 3145fc          xor     dword ptr [ebp-4],eax
10002b6e ff1584a00010    call    dword ptr ds:[1000A084h]
10002b74 3145fc          xor     dword ptr [ebp-4],eax
10002b77 8d45ec          lea     eax,[ebp-14h]
10002b7a 50              push    eax
10002b7b ff1580a00010    call    dword ptr ds:[1000A080h]
10002b81 8b4df0          mov     ecx,dword ptr [ebp-10h]
10002b84 334dec          xor     ecx,dword ptr [ebp-14h]
10002b87 8d45fc          lea     eax,[ebp-4]
10002b8a 334dfc          xor     ecx,dword ptr [ebp-4]
10002b8d 33c8            xor     ecx,eax
10002b8f 3bcf            cmp     ecx,edi
10002b91 7507            jne     10002b9a
10002b93 b94fe640bb      mov     ecx,0BB40E64Fh
10002b98 eb10            jmp     10002baa
10002b9a 85ce            test    esi,ecx
10002b9c 750c            jne     10002baa
10002b9e 8bc1            mov     eax,ecx
10002ba0 0d11470000      or      eax,4711h
10002ba5 c1e010          shl     eax,10h
10002ba8 0bc8            or      ecx,eax
10002baa 890d00f00010    mov     dword ptr ds:[1000F000h],ecx
10002bb0 f7d1            not     ecx
10002bb2 890d04f00010    mov     dword ptr ds:[1000F004h],ecx
10002bb8 5f              pop     edi
10002bb9 5e              pop     esi
10002bba c9              leave
10002bbb c3              ret
10002bbc 55              push    ebp
10002bbd 8bec            mov     ebp,esp
10002bbf 51              push    ecx
10002bc0 57              push    edi
10002bc1 ff158ca00010    call    dword ptr ds:[1000A08Ch]
10002bc7 8bf8            mov     edi,eax
10002bc9 33c0            xor     eax,eax
10002bcb 85ff            test    edi,edi
10002bcd 7475            je      10002c44
10002bcf 56              push    esi
10002bd0 8bf7            mov     esi,edi
10002bd2 663907          cmp     word ptr [edi],ax
10002bd5 7410            je      10002be7
10002bd7 83c602          add     esi,2
10002bda 663906          cmp     word ptr [esi],ax
10002bdd 75f8            jne     10002bd7
10002bdf 83c602          add     esi,2
10002be2 663906          cmp     word ptr [esi],ax
10002be5 75f0            jne     10002bd7
10002be7 53              push    ebx
10002be8 50              push    eax
10002be9 50              push    eax
10002bea 50              push    eax
10002beb 2bf7            sub     esi,edi
10002bed 50              push    eax
10002bee d1fe            sar     esi,1
10002bf0 46              inc     esi
10002bf1 56              push    esi
10002bf2 57              push    edi
10002bf3 50              push    eax
10002bf4 50              push    eax
10002bf5 ff1594a00010    call    dword ptr ds:[1000A094h]
10002bfb 8945fc          mov     dword ptr [ebp-4],eax
10002bfe 85c0            test    eax,eax
10002c00 7437            je      10002c39
10002c02 50              push    eax
10002c03 e8af030000      call    10002fb7
10002c08 8bd8            mov     ebx,eax
10002c0a 59              pop     ecx
10002c0b 85db            test    ebx,ebx
10002c0d 742a            je      10002c39
10002c0f 33c0            xor     eax,eax
10002c11 50              push    eax
10002c12 50              push    eax
10002c13 ff75fc          push    dword ptr [ebp-4]
10002c16 53              push    ebx
10002c17 56              push    esi
10002c18 57              push    edi
10002c19 50              push    eax
10002c1a 50              push    eax
10002c1b ff1594a00010    call    dword ptr ds:[1000A094h]
10002c21 85c0            test    eax,eax
10002c23 7509            jne     10002c2e
10002c25 53              push    ebx
10002c26 e8b7eaffff      call    100016e2
10002c2b 59              pop     ecx
10002c2c 33db            xor     ebx,ebx
10002c2e 57              push    edi
10002c2f ff1590a00010    call    dword ptr ds:[1000A090h]
10002c35 8bc3            mov     eax,ebx
10002c37 eb09            jmp     10002c42
10002c39 57              push    edi
10002c3a ff1590a00010    call    dword ptr ds:[1000A090h]
10002c40 33c0            xor     eax,eax
10002c42 5b              pop     ebx
10002c43 5e              pop     esi
10002c44 5f              pop     edi
10002c45 c9              leave
10002c46 c3              ret
10002c47 55              push    ebp
10002c48 8bec            mov     ebp,esp
10002c4a a1c09d0010      mov     eax,dword ptr ds:[10009DC0h]
10002c4f 330500f00010    xor     eax,dword ptr ds:[1000F000h]
10002c55 7407            je      10002c5e
10002c57 ff7508          push    dword ptr [ebp+8]
10002c5a ffd0            call    eax
10002c5c 5d              pop     ebp
10002c5d c3              ret
10002c5e 5d              pop     ebp
10002c5f ff25a4a00010    jmp     dword ptr ds:[1000A0A4h]
10002c65 55              push    ebp
10002c66 8bec            mov     ebp,esp
10002c68 a1c49d0010      mov     eax,dword ptr ds:[10009DC4h]
10002c6d 330500f00010    xor     eax,dword ptr ds:[1000F000h]
10002c73 ff7508          push    dword ptr [ebp+8]
10002c76 7404            je      10002c7c
10002c78 ffd0            call    eax
10002c7a 5d              pop     ebp
10002c7b c3              ret
10002c7c ff15b0a00010    call    dword ptr ds:[1000A0B0h]
10002c82 5d              pop     ebp
10002c83 c3              ret
10002c84 55              push    ebp
10002c85 8bec            mov     ebp,esp
10002c87 a1c89d0010      mov     eax,dword ptr ds:[10009DC8h]
10002c8c 330500f00010    xor     eax,dword ptr ds:[1000F000h]
10002c92 ff7508          push    dword ptr [ebp+8]
10002c95 7404            je      10002c9b
10002c97 ffd0            call    eax
10002c99 5d              pop     ebp
10002c9a c3              ret
10002c9b ff15a8a00010    call    dword ptr ds:[1000A0A8h]
10002ca1 5d              pop     ebp
10002ca2 c3              ret
10002ca3 55              push    ebp
10002ca4 8bec            mov     ebp,esp
10002ca6 a1cc9d0010      mov     eax,dword ptr ds:[10009DCCh]
10002cab 330500f00010    xor     eax,dword ptr ds:[1000F000h]
10002cb1 ff750c          push    dword ptr [ebp+0Ch]
10002cb4 ff7508          push    dword ptr [ebp+8]
10002cb7 7404            je      10002cbd
10002cb9 ffd0            call    eax
10002cbb 5d              pop     ebp
10002cbc c3              ret
10002cbd ff15aca00010    call    dword ptr ds:[1000A0ACh]
10002cc3 5d              pop     ebp
10002cc4 c3              ret
10002cc5 55              push    ebp
10002cc6 8bec            mov     ebp,esp
10002cc8 51              push    ecx
10002cc9 56              push    esi
10002cca 8b35c0f10010    mov     esi,dword ptr ds:[1000F1C0h]
10002cd0 85f6            test    esi,esi
10002cd2 7925            jns     10002cf9
10002cd4 a1309e0010      mov     eax,dword ptr ds:[10009E30h]
10002cd9 33f6            xor     esi,esi
10002cdb 330500f00010    xor     eax,dword ptr ds:[1000F000h]
10002ce1 8975fc          mov     dword ptr [ebp-4],esi
10002ce4 740d            je      10002cf3
10002ce6 56              push    esi
10002ce7 8d4dfc          lea     ecx,[ebp-4]
10002cea 51              push    ecx
10002ceb ffd0            call    eax
10002ced 83f87a          cmp     eax,7Ah
10002cf0 7501            jne     10002cf3
10002cf2 46              inc     esi
10002cf3 8935c0f10010    mov     dword ptr ds:[1000F1C0h],esi
10002cf9 33c0            xor     eax,eax
10002cfb 85f6            test    esi,esi
10002cfd 0f9fc0          setg    al
10002d00 5e              pop     esi
10002d01 c9              leave
10002d02 c3              ret
10002d03 56              push    esi
10002d04 57              push    edi
10002d05 6830a20010      push    1000A230h
10002d0a ff15b4a00010    call    dword ptr ds:[1000A0B4h]
10002d10 8b3514a00010    mov     esi,dword ptr ds:[1000A014h]
10002d16 8bf8            mov     edi,eax
10002d18 684ca20010      push    1000A24Ch
10002d1d 57              push    edi
10002d1e ffd6            call    esi
10002d20 330500f00010    xor     eax,dword ptr ds:[1000F000h]
10002d26 6858a20010      push    1000A258h
10002d2b 57              push    edi
10002d2c a3c09d0010      mov     dword ptr ds:[10009DC0h],eax
10002d31 ffd6            call    esi
10002d33 330500f00010    xor     eax,dword ptr ds:[1000F000h]
10002d39 6860a20010      push    1000A260h
10002d3e 57              push    edi
10002d3f a3c49d0010      mov     dword ptr ds:[10009DC4h],eax
10002d44 ffd6            call    esi
10002d46 330500f00010    xor     eax,dword ptr ds:[1000F000h]
10002d4c 686ca20010      push    1000A26Ch
10002d51 57              push    edi
10002d52 a3c89d0010      mov     dword ptr ds:[10009DC8h],eax
10002d57 ffd6            call    esi
10002d59 330500f00010    xor     eax,dword ptr ds:[1000F000h]
10002d5f 6878a20010      push    1000A278h
10002d64 57              push    edi
10002d65 a3cc9d0010      mov     dword ptr ds:[10009DCCh],eax
10002d6a ffd6            call    esi
10002d6c 330500f00010    xor     eax,dword ptr ds:[1000F000h]
10002d72 6894a20010      push    1000A294h
10002d77 57              push    edi
10002d78 a3d09d0010      mov     dword ptr ds:[10009DD0h],eax
10002d7d ffd6            call    esi
10002d7f 330500f00010    xor     eax,dword ptr ds:[1000F000h]
10002d85 68a8a20010      push    1000A2A8h
10002d8a 57              push    edi
10002d8b a3d49d0010      mov     dword ptr ds:[10009DD4h],eax
10002d90 ffd6            call    esi
10002d92 330500f00010    xor     eax,dword ptr ds:[1000F000h]
10002d98 68c0a20010      push    1000A2C0h
10002d9d 57              push    edi
10002d9e a3d89d0010      mov     dword ptr ds:[10009DD8h],eax
10002da3 ffd6            call    esi
10002da5 330500f00010    xor     eax,dword ptr ds:[1000F000h]
10002dab 68d8a20010      push    1000A2D8h
10002db0 57              push    edi
10002db1 a3dc9d0010      mov     dword ptr ds:[10009DDCh],eax
10002db6 ffd6            call    esi
10002db8 330500f00010    xor     eax,dword ptr ds:[1000F000h]
10002dbe 68eca20010      push    1000A2ECh
10002dc3 57              push    edi
10002dc4 a3e09d0010      mov     dword ptr ds:[10009DE0h],eax
10002dc9 ffd6            call    esi
10002dcb 330500f00010    xor     eax,dword ptr ds:[1000F000h]
10002dd1 680ca30010      push    1000A30Ch
10002dd6 57              push    edi
10002dd7 a3e49d0010      mov     dword ptr ds:[10009DE4h],eax
10002ddc ffd6            call    esi
10002dde 330500f00010    xor     eax,dword ptr ds:[1000F000h]
10002de4 6824a30010      push    1000A324h
10002de9 57              push    edi
10002dea a3e89d0010      mov     dword ptr ds:[10009DE8h],eax
10002def ffd6            call    esi
10002df1 330500f00010    xor     eax,dword ptr ds:[1000F000h]
10002df7 683ca30010      push    1000A33Ch
10002dfc 57              push    edi
10002dfd a3ec9d0010      mov     dword ptr ds:[10009DECh],eax
10002e02 ffd6            call    esi
10002e04 330500f00010    xor     eax,dword ptr ds:[1000F000h]
10002e0a 6850a30010      push    1000A350h
10002e0f 57              push    edi
10002e10 a3f09d0010      mov     dword ptr ds:[10009DF0h],eax
10002e15 ffd6            call    esi
10002e17 330500f00010    xor     eax,dword ptr ds:[1000F000h]
10002e1d 6864a30010      push    1000A364h
10002e22 57              push    edi
10002e23 a3f49d0010      mov     dword ptr ds:[10009DF4h],eax
10002e28 ffd6            call    esi
10002e2a 330500f00010    xor     eax,dword ptr ds:[1000F000h]
10002e30 a3f89d0010      mov     dword ptr ds:[10009DF8h],eax
10002e35 6880a30010      push    1000A380h
10002e3a 57              push    edi
10002e3b ffd6            call    esi
10002e3d 330500f00010    xor     eax,dword ptr ds:[1000F000h]
10002e43 68a0a30010      push    1000A3A0h
10002e48 57              push    edi
10002e49 a3fc9d0010      mov     dword ptr ds:[10009DFCh],eax
10002e4e ffd6            call    esi
10002e50 330500f00010    xor     eax,dword ptr ds:[1000F000h]
10002e56 68bca30010      push    1000A3BCh
10002e5b 57              push    edi
10002e5c a3009e0010      mov     dword ptr ds:[10009E00h],eax
10002e61 ffd6            call    esi
10002e63 330500f00010    xor     eax,dword ptr ds:[1000F000h]
10002e69 68dca30010      push    1000A3DCh
10002e6e 57              push    edi
10002e6f a3049e0010      mov     dword ptr ds:[10009E04h],eax
10002e74 ffd6            call    esi
10002e76 330500f00010    xor     eax,dword ptr ds:[1000F000h]
10002e7c 68f0a30010      push    1000A3F0h
10002e81 57              push    edi
10002e82 a3089e0010      mov     dword ptr ds:[10009E08h],eax
10002e87 ffd6            call    esi
10002e89 330500f00010    xor     eax,dword ptr ds:[1000F000h]
10002e8f 680ca40010      push    1000A40Ch
10002e94 57              push    edi
10002e95 a30c9e0010      mov     dword ptr ds:[10009E0Ch],eax
10002e9a ffd6            call    esi
10002e9c 330500f00010    xor     eax,dword ptr ds:[1000F000h]
10002ea2 6820a40010      push    1000A420h
10002ea7 57              push    edi
10002ea8 a3149e0010      mov     dword ptr ds:[10009E14h],eax
10002ead ffd6            call    esi
10002eaf 330500f00010    xor     eax,dword ptr ds:[1000F000h]
10002eb5 6830a40010      push    1000A430h
10002eba 57              push    edi
10002ebb a3109e0010      mov     dword ptr ds:[10009E10h],eax
10002ec0 ffd6            call    esi
10002ec2 330500f00010    xor     eax,dword ptr ds:[1000F000h]
10002ec8 6840a40010      push    1000A440h
10002ecd 57              push    edi
10002ece a3189e0010      mov     dword ptr ds:[10009E18h],eax
10002ed3 ffd6            call    esi
10002ed5 330500f00010    xor     eax,dword ptr ds:[1000F000h]
10002edb 6850a40010      push    1000A450h
10002ee0 57              push    edi
10002ee1 a31c9e0010      mov     dword ptr ds:[10009E1Ch],eax
10002ee6 ffd6            call    esi
10002ee8 330500f00010    xor     eax,dword ptr ds:[1000F000h]
10002eee 6860a40010      push    1000A460h
10002ef3 57              push    edi
10002ef4 a3209e0010      mov     dword ptr ds:[10009E20h],eax
10002ef9 ffd6            call    esi
10002efb 330500f00010    xor     eax,dword ptr ds:[1000F000h]
10002f01 687ca40010      push    1000A47Ch
10002f06 57              push    edi
10002f07 a3249e0010      mov     dword ptr ds:[10009E24h],eax
10002f0c ffd6            call    esi
10002f0e 330500f00010    xor     eax,dword ptr ds:[1000F000h]
10002f14 6890a40010      push    1000A490h
10002f19 57              push    edi
10002f1a a3289e0010      mov     dword ptr ds:[10009E28h],eax
10002f1f ffd6            call    esi
10002f21 330500f00010    xor     eax,dword ptr ds:[1000F000h]
10002f27 68a0a40010      push    1000A4A0h
10002f2c 57              push    edi
10002f2d a32c9e0010      mov     dword ptr ds:[10009E2Ch],eax
10002f32 ffd6            call    esi
10002f34 330500f00010    xor     eax,dword ptr ds:[1000F000h]
10002f3a 5f              pop     edi
10002f3b a3309e0010      mov     dword ptr ds:[10009E30h],eax
10002f40 5e              pop     esi
10002f41 c3              ret
10002f42 55              push    ebp
10002f43 8bec            mov     ebp,esp
10002f45 ff7508          push    dword ptr [ebp+8]
10002f48 ff15a0a00010    call    dword ptr ds:[1000A0A0h]
10002f4e 50              push    eax
10002f4f ff1518a00010    call    dword ptr ds:[1000A018h]
10002f55 5d              pop     ebp
10002f56 c3              ret
10002f57 55              push    ebp
10002f58 8bec            mov     ebp,esp
10002f5a 6a00            push    0
10002f5c ff159ca00010    call    dword ptr ds:[1000A09Ch]
10002f62 ff7508          push    dword ptr [ebp+8]
10002f65 ff1598a00010    call    dword ptr ds:[1000A098h]
10002f6b 5d              pop     ebp
10002f6c c3              ret
10002f6d 55              push    ebp
10002f6e 8bec            mov     ebp,esp
10002f70 56              push    esi
10002f71 57              push    edi
10002f72 33f6            xor     esi,esi
10002f74 6a00            push    0
10002f76 ff750c          push    dword ptr [ebp+0Ch]
10002f79 ff7508          push    dword ptr [ebp+8]
10002f7c e84a1c0000      call    10004bcb
10002f81 8bf8            mov     edi,eax
10002f83 83c40c          add     esp,0Ch
10002f86 85ff            test    edi,edi
10002f88 7527            jne     10002fb1
10002f8a 390578850010    cmp     dword ptr ds:[10008578h],eax
10002f90 761f            jbe     10002fb1
10002f92 56              push    esi
10002f93 ff15b8a00010    call    dword ptr ds:[1000A0B8h]
10002f99 8d8ee8030000    lea     ecx,[esi+3E8h]
10002f9f 8bf1            mov     esi,ecx
10002fa1 3b0d78850010    cmp     ecx,dword ptr ds:[10008578h]
10002fa7 7603            jbe     10002fac
10002fa9 83ceff          or      esi,0FFFFFFFFh
10002fac 83feff          cmp     esi,0FFFFFFFFh
10002faf 75c3            jne     10002f74
10002fb1 8bc7            mov     eax,edi
10002fb3 5f              pop     edi
10002fb4 5e              pop     esi
10002fb5 5d              pop     ebp
10002fb6 c3              ret
10002fb7 55              push    ebp
10002fb8 8bec            mov     ebp,esp
10002fba 53              push    ebx
10002fbb 56              push    esi
10002fbc 57              push    edi
10002fbd 8b3d78850010    mov     edi,dword ptr ds:[10008578h]
10002fc3 33f6            xor     esi,esi
10002fc5 ff7508          push    dword ptr [ebp+8]
10002fc8 e84bebffff      call    10001b18
10002fcd 8bd8            mov     ebx,eax
10002fcf 59              pop     ecx
10002fd0 85db            test    ebx,ebx
10002fd2 7525            jne     10002ff9
10002fd4 85ff            test    edi,edi
10002fd6 7421            je      10002ff9
10002fd8 56              push    esi
10002fd9 ff15b8a00010    call    dword ptr ds:[1000A0B8h]
10002fdf 8b3d78850010    mov     edi,dword ptr ds:[10008578h]
10002fe5 8d8ee8030000    lea     ecx,[esi+3E8h]
10002feb 8bf1            mov     esi,ecx
10002fed 3bcf            cmp     ecx,edi
10002fef 7603            jbe     10002ff4
10002ff1 83ceff          or      esi,0FFFFFFFFh
10002ff4 83feff          cmp     esi,0FFFFFFFFh
10002ff7 75cc            jne     10002fc5
10002ff9 5f              pop     edi
10002ffa 5e              pop     esi
10002ffb 8bc3            mov     eax,ebx
10002ffd 5b              pop     ebx
10002ffe 5d              pop     ebp
10002fff c3              ret
10003000 55              push    ebp
10003001 8bec            mov     ebp,esp
10003003 56              push    esi
10003004 57              push    edi
10003005 33f6            xor     esi,esi
10003007 ff750c          push    dword ptr [ebp+0Ch]
1000300a ff7508          push    dword ptr [ebp+8]
1000300d e825e6ffff      call    10001637
10003012 8bf8            mov     edi,eax
10003014 59              pop     ecx
10003015 59              pop     ecx
10003016 85ff            test    edi,edi
10003018 752c            jne     10003046
1000301a 39450c          cmp     dword ptr [ebp+0Ch],eax
1000301d 7427            je      10003046
1000301f 390578850010    cmp     dword ptr ds:[10008578h],eax
10003025 761f            jbe     10003046
10003027 56              push    esi
10003028 ff15b8a00010    call    dword ptr ds:[1000A0B8h]
1000302e 8d86e8030000    lea     eax,[esi+3E8h]
10003034 8bf0            mov     esi,eax
10003036 3b0578850010    cmp     eax,dword ptr ds:[10008578h]
1000303c 7603            jbe     10003041
1000303e 83ceff          or      esi,0FFFFFFFFh
10003041 83feff          cmp     esi,0FFFFFFFFh
10003044 75c1            jne     10003007
10003046 8bc7            mov     eax,edi
10003048 5f              pop     edi
10003049 5e              pop     esi
1000304a 5d              pop     ebp
1000304b c3              ret
1000304c 56              push    esi
1000304d 57              push    edi
1000304e bea0dc0010      mov     esi,1000DCA0h
10003053 bfa0dc0010      mov     edi,1000DCA0h
10003058 eb0b            jmp     10003065
1000305a 8b06            mov     eax,dword ptr [esi]
1000305c 85c0            test    eax,eax
1000305e 7402            je      10003062
10003060 ffd0            call    eax
10003062 83c604          add     esi,4
10003065 3bf7            cmp     esi,edi
10003067 72f1            jb      1000305a
10003069 5f              pop     edi
1000306a 5e              pop     esi
1000306b c3              ret
1000306c 56              push    esi
1000306d 57              push    edi
1000306e bea8dc0010      mov     esi,1000DCA8h
10003073 bfa8dc0010      mov     edi,1000DCA8h
10003078 eb0b            jmp     10003085
1000307a 8b06            mov     eax,dword ptr [esi]
1000307c 85c0            test    eax,eax
1000307e 7402            je      10003082
10003080 ffd0            call    eax
10003082 83c604          add     esi,4
10003085 3bf7            cmp     esi,edi
10003087 72f1            jb      1000307a
10003089 5f              pop     edi
1000308a 5e              pop     esi
1000308b c3              ret
1000308c cc              int     3
1000308d cc              int     3
1000308e cc              int     3
1000308f cc              int     3
10003090 68f0300010      push    100030F0h
10003095 64ff3500000000  push    dword ptr fs:[0]
1000309c 8b442410        mov     eax,dword ptr [esp+10h]
100030a0 896c2410        mov     dword ptr [esp+10h],ebp
100030a4 8d6c2410        lea     ebp,[esp+10h]
100030a8 2be0            sub     esp,eax
100030aa 53              push    ebx
100030ab 56              push    esi
100030ac 57              push    edi
100030ad a100f00010      mov     eax,dword ptr ds:[1000F000h]
100030b2 3145fc          xor     dword ptr [ebp-4],eax
100030b5 33c5            xor     eax,ebp
100030b7 50              push    eax
100030b8 8965e8          mov     dword ptr [ebp-18h],esp
100030bb ff75f8          push    dword ptr [ebp-8]
100030be 8b45fc          mov     eax,dword ptr [ebp-4]
100030c1 c745fcfeffffff  mov     dword ptr [ebp-4],0FFFFFFFEh
100030c8 8945f8          mov     dword ptr [ebp-8],eax
100030cb 8d45f0          lea     eax,[ebp-10h]
100030ce 64a300000000    mov     dword ptr fs:[00000000h],eax
100030d4 c3              ret
100030d5 8b4df0          mov     ecx,dword ptr [ebp-10h]
100030d8 64890d00000000  mov     dword ptr fs:[0],ecx
100030df 59              pop     ecx
100030e0 5f              pop     edi
100030e1 5f              pop     edi
100030e2 5e              pop     esi
100030e3 5b              pop     ebx
100030e4 8be5            mov     esp,ebp
100030e6 5d              pop     ebp
100030e7 51              push    ecx
100030e8 c3              ret
100030e9 cc              int     3
100030ea cc              int     3
100030eb cc              int     3
100030ec cc              int     3
100030ed cc              int     3
100030ee cc              int     3
100030ef cc              int     3
100030f0 55              push    ebp
100030f1 8bec            mov     ebp,esp
100030f3 83ec18          sub     esp,18h
100030f6 53              push    ebx
100030f7 8b5d0c          mov     ebx,dword ptr [ebp+0Ch]
100030fa 56              push    esi
100030fb 57              push    edi
100030fc 8b7b08          mov     edi,dword ptr [ebx+8]
100030ff 333d00f00010    xor     edi,dword ptr ds:[1000F000h]
10003105 c645ff00        mov     byte ptr [ebp-1],0
10003109 c745f401000000  mov     dword ptr [ebp-0Ch],1
10003110 8b07            mov     eax,dword ptr [edi]
10003112 8d7310          lea     esi,[ebx+10h]
10003115 83f8fe          cmp     eax,0FFFFFFFEh
10003118 740d            je      10003127
1000311a 8b4f04          mov     ecx,dword ptr [edi+4]
1000311d 03ce            add     ecx,esi
1000311f 330c30          xor     ecx,dword ptr [eax+esi]
10003122 e801e5ffff      call    10001628
10003127 8b4f0c          mov     ecx,dword ptr [edi+0Ch]
1000312a 8b4708          mov     eax,dword ptr [edi+8]
1000312d 03ce            add     ecx,esi
1000312f 330c30          xor     ecx,dword ptr [eax+esi]
10003132 e8f1e4ffff      call    10001628
10003137 8b4508          mov     eax,dword ptr [ebp+8]
1000313a f6400466        test    byte ptr [eax+4],66h
1000313e 0f85d0000000    jne     10003214
10003144 8945e8          mov     dword ptr [ebp-18h],eax
10003147 8b4510          mov     eax,dword ptr [ebp+10h]
1000314a 8945ec          mov     dword ptr [ebp-14h],eax
1000314d 8d45e8          lea     eax,[ebp-18h]
10003150 8943fc          mov     dword ptr [ebx-4],eax
10003153 8b430c          mov     eax,dword ptr [ebx+0Ch]
10003156 8945f8          mov     dword ptr [ebp-8],eax
10003159 83f8fe          cmp     eax,0FFFFFFFEh
1000315c 0f84ee000000    je      10003250
10003162 8d0440          lea     eax,[eax+eax*2]
10003165 8d4004          lea     eax,[eax+4]
10003168 8b4c8704        mov     ecx,dword ptr [edi+eax*4+4]
1000316c 8b1c87          mov     ebx,dword ptr [edi+eax*4]
1000316f 8d0487          lea     eax,[edi+eax*4]
10003172 8945f0          mov     dword ptr [ebp-10h],eax
10003175 85c9            test    ecx,ecx
10003177 747b            je      100031f4
10003179 8bd6            mov     edx,esi
1000317b e822170000      call    100048a2
10003180 b101            mov     cl,1
10003182 884dff          mov     byte ptr [ebp-1],cl
10003185 85c0            test    eax,eax
10003187 0f887e000000    js      1000320b
1000318d 7e68            jle     100031f7
1000318f 8b4508          mov     eax,dword ptr [ebp+8]
10003192 813863736de0    cmp     dword ptr [eax],0E06D7363h
10003198 7528            jne     100031c2
1000319a 833da49d001000  cmp     dword ptr ds:[10009DA4h],0
100031a1 741f            je      100031c2
100031a3 68a49d0010      push    10009DA4h
100031a8 e833110000      call    100042e0
100031ad 83c404          add     esp,4
100031b0 85c0            test    eax,eax
100031b2 740e            je      100031c2
100031b4 6a01            push    1
100031b6 ff7508          push    dword ptr [ebp+8]
100031b9 ff15a49d0010    call    dword ptr ds:[10009DA4h]
100031bf 83c408          add     esp,8
100031c2 8b5508          mov     edx,dword ptr [ebp+8]
100031c5 8b4d0c          mov     ecx,dword ptr [ebp+0Ch]
100031c8 e805170000      call    100048d2
100031cd 8b450c          mov     eax,dword ptr [ebp+0Ch]
100031d0 8b55f8          mov     edx,dword ptr [ebp-8]
100031d3 39500c          cmp     dword ptr [eax+0Ch],edx
100031d6 7410            je      100031e8
100031d8 6800f00010      push    1000F000h
100031dd 56              push    esi
100031de 8bc8            mov     ecx,eax
100031e0 e806170000      call    100048eb
100031e5 8b450c          mov     eax,dword ptr [ebp+0Ch]
100031e8 89580c          mov     dword ptr [eax+0Ch],ebx
100031eb 8b07            mov     eax,dword ptr [edi]
100031ed 83f8fe          cmp     eax,0FFFFFFFEh
100031f0 7475            je      10003267
100031f2 eb66            jmp     1000325a
100031f4 8a4dff          mov     cl,byte ptr [ebp-1]
100031f7 8bc3            mov     eax,ebx
100031f9 895df8          mov     dword ptr [ebp-8],ebx
100031fc 83fbfe          cmp     ebx,0FFFFFFFEh
100031ff 0f855dffffff    jne     10003162
10003205 84c9            test    cl,cl
10003207 7447            je      10003250
10003209 eb21            jmp     1000322c
1000320b c745f400000000  mov     dword ptr [ebp-0Ch],0
10003212 eb18            jmp     1000322c
10003214 837b0cfe        cmp     dword ptr [ebx+0Ch],0FFFFFFFEh
10003218 7436            je      10003250
1000321a 6800f00010      push    1000F000h
1000321f 56              push    esi
10003220 8bcb            mov     ecx,ebx
10003222 bafeffffff      mov     edx,0FFFFFFFEh
10003227 e8bf160000      call    100048eb
1000322c 8b07            mov     eax,dword ptr [edi]
1000322e 83f8fe          cmp     eax,0FFFFFFFEh
10003231 740d            je      10003240
10003233 8b4f04          mov     ecx,dword ptr [edi+4]
10003236 03ce            add     ecx,esi
10003238 330c30          xor     ecx,dword ptr [eax+esi]
1000323b e8e8e3ffff      call    10001628
10003240 8b4f0c          mov     ecx,dword ptr [edi+0Ch]
10003243 8b5708          mov     edx,dword ptr [edi+8]
10003246 03ce            add     ecx,esi
10003248 330c32          xor     ecx,dword ptr [edx+esi]
1000324b e8d8e3ffff      call    10001628
10003250 8b45f4          mov     eax,dword ptr [ebp-0Ch]
10003253 5f              pop     edi
10003254 5e              pop     esi
10003255 5b              pop     ebx
10003256 8be5            mov     esp,ebp
10003258 5d              pop     ebp
10003259 c3              ret
1000325a 8b4f04          mov     ecx,dword ptr [edi+4]
1000325d 03ce            add     ecx,esi
1000325f 330c30          xor     ecx,dword ptr [eax+esi]
10003262 e8c1e3ffff      call    10001628
10003267 8b4f0c          mov     ecx,dword ptr [edi+0Ch]
1000326a 8b4708          mov     eax,dword ptr [edi+8]
1000326d 03ce            add     ecx,esi
1000326f 330c30          xor     ecx,dword ptr [eax+esi]
10003272 e8b1e3ffff      call    10001628
10003277 8b4df0          mov     ecx,dword ptr [ebp-10h]
1000327a 8bd6            mov     edx,esi
1000327c 8b4908          mov     ecx,dword ptr [ecx+8]
1000327f e835160000      call    100048b9
10003284 cc              int     3
10003285 8325a09d001000  and     dword ptr ds:[10009DA0h],0
1000328c c3              ret
1000328d 6a03            push    3
1000328f e8501b0000      call    10004de4
10003294 59              pop     ecx
10003295 83f801          cmp     eax,1
10003298 7415            je      100032af
1000329a 6a03            push    3
1000329c e8431b0000      call    10004de4
100032a1 59              pop     ecx
100032a2 85c0            test    eax,eax
100032a4 751f            jne     100032c5
100032a6 833d8085001001  cmp     dword ptr ds:[10008580h],1
100032ad 7516            jne     100032c5
100032af 68fc000000      push    0FCh
100032b4 e831000000      call    100032ea
100032b9 68ff000000      push    0FFh
100032be e827000000      call    100032ea
100032c3 59              pop     ecx
100032c4 59              pop     ecx
100032c5 c3              ret
100032c6 55              push    ebp
100032c7 8bec            mov     ebp,esp
100032c9 8b4d08          mov     ecx,dword ptr [ebp+8]
100032cc 33c0            xor     eax,eax
100032ce 3b0cc540ad0010  cmp     ecx,dword ptr [eax*8+1000AD40h]
100032d5 740a            je      100032e1
100032d7 40              inc     eax
100032d8 83f817          cmp     eax,17h
100032db 72f1            jb      100032ce
100032dd 33c0            xor     eax,eax
100032df 5d              pop     ebp
100032e0 c3              ret
100032e1 8b04c544ad0010  mov     eax,dword ptr [eax*8+1000AD44h]
100032e8 5d              pop     ebp
100032e9 c3              ret
100032ea 55              push    ebp
100032eb 8bec            mov     ebp,esp
100032ed 81ecfc010000    sub     esp,1FCh
100032f3 a100f00010      mov     eax,dword ptr ds:[1000F000h]
100032f8 33c5            xor     eax,ebp
100032fa 8945fc          mov     dword ptr [ebp-4],eax
100032fd 56              push    esi
100032fe 8b7508          mov     esi,dword ptr [ebp+8]
10003301 57              push    edi
10003302 56              push    esi
10003303 e8beffffff      call    100032c6
10003308 8bf8            mov     edi,eax
1000330a 59              pop     ecx
1000330b 85ff            test    edi,edi
1000330d 0f8479010000    je      1000348c
10003313 53              push    ebx
10003314 6a03            push    3
10003316 e8c91a0000      call    10004de4
1000331b 59              pop     ecx
1000331c 83f801          cmp     eax,1
1000331f 0f840f010000    je      10003434
10003325 6a03            push    3
10003327 e8b81a0000      call    10004de4
1000332c 59              pop     ecx
1000332d 85c0            test    eax,eax
1000332f 750d            jne     1000333e
10003331 833d8085001001  cmp     dword ptr ds:[10008580h],1
10003338 0f84f6000000    je      10003434
1000333e 81fefc000000    cmp     esi,0FCh
10003344 0f8441010000    je      1000348b
1000334a 6854ae0010      push    1000AE54h
1000334f 6814030000      push    314h
10003354 6888850010      push    10008588h
10003359 e853190000      call    10004cb1
1000335e 83c40c          add     esp,0Ch
10003361 33db            xor     ebx,ebx
10003363 85c0            test    eax,eax
10003365 0f852f010000    jne     1000349a
1000336b 6804010000      push    104h
10003370 68ba850010      push    100085BAh
10003375 53              push    ebx
10003376 66a3c2870010    mov     word ptr ds:[100087C2h],ax
1000337c ff15c0a00010    call    dword ptr ds:[1000A0C0h]
10003382 befb020000      mov     esi,2FBh
10003387 85c0            test    eax,eax
10003389 751b            jne     100033a6
1000338b 6888ae0010      push    1000AE88h
10003390 56              push    esi
10003391 68ba850010      push    100085BAh
10003396 e816190000      call    10004cb1
1000339b 83c40c          add     esp,0Ch
1000339e 85c0            test    eax,eax
100033a0 0f85f4000000    jne     1000349a
100033a6 68ba850010      push    100085BAh
100033ab e85d190000      call    10004d0d
100033b0 40              inc     eax
100033b1 59              pop     ecx
100033b2 83f83c          cmp     eax,3Ch
100033b5 7635            jbe     100033ec
100033b7 68ba850010      push    100085BAh
100033bc e84c190000      call    10004d0d
100033c1 8d0c4544850010  lea     ecx,[eax*2+10008544h]
100033c8 8bc1            mov     eax,ecx
100033ca 2dba850010      sub     eax,100085BAh
100033cf 6a03            push    3
100033d1 d1f8            sar     eax,1
100033d3 68b8ae0010      push    1000AEB8h
100033d8 2bf0            sub     esi,eax
100033da 56              push    esi
100033db 51              push    ecx
100033dc e845190000      call    10004d26
100033e1 83c414          add     esp,14h
100033e4 85c0            test    eax,eax
100033e6 0f85ae000000    jne     1000349a
100033ec 68c0ae0010      push    1000AEC0h
100033f1 6814030000      push    314h
100033f6 be88850010      mov     esi,10008588h
100033fb 56              push    esi
100033fc e844180000      call    10004c45
10003401 83c40c          add     esp,0Ch
10003404 85c0            test    eax,eax
10003406 0f858e000000    jne     1000349a
1000340c 57              push    edi
1000340d 6814030000      push    314h
10003412 56              push    esi
10003413 e82d180000      call    10004c45
10003418 83c40c          add     esp,0Ch
1000341b 85c0            test    eax,eax
1000341d 757b            jne     1000349a
1000341f 6810200100      push    12010h
10003424 68c8ae0010      push    1000AEC8h
10003429 56              push    esi
1000342a e8f5190000      call    10004e24
1000342f 83c40c          add     esp,0Ch
10003432 eb57            jmp     1000348b
10003434 6af4            push    0FFFFFFF4h
10003436 ff1568a00010    call    dword ptr ds:[1000A068h]
1000343c 8bf0            mov     esi,eax
1000343e 85f6            test    esi,esi
10003440 7449            je      1000348b
10003442 83feff          cmp     esi,0FFFFFFFFh
10003445 7444            je      1000348b
10003447 33db            xor     ebx,ebx
10003449 8bcb            mov     ecx,ebx
1000344b 8a044f          mov     al,byte ptr [edi+ecx*2]
1000344e 88840d08feffff  mov     byte ptr [ebp+ecx-1F8h],al
10003455 66391c4f        cmp     word ptr [edi+ecx*2],bx
10003459 7409            je      10003464
1000345b 41              inc     ecx
1000345c 81f9f4010000    cmp     ecx,1F4h
10003462 72e7            jb      1000344b
10003464 53              push    ebx
10003465 8d8504feffff    lea     eax,[ebp-1FCh]
1000346b 50              push    eax
1000346c 8d8508feffff    lea     eax,[ebp-1F8h]
10003472 50              push    eax
10003473 885dfb          mov     byte ptr [ebp-5],bl
10003476 e8c5160000      call    10004b40
1000347b 59              pop     ecx
1000347c 50              push    eax
1000347d 8d8508feffff    lea     eax,[ebp-1F8h]
10003483 50              push    eax
10003484 56              push    esi
10003485 ff15bca00010    call    dword ptr ds:[1000A0BCh]
1000348b 5b              pop     ebx
1000348c 8b4dfc          mov     ecx,dword ptr [ebp-4]
1000348f 5f              pop     edi
10003490 33cd            xor     ecx,ebp
10003492 5e              pop     esi
10003493 e890e1ffff      call    10001628
10003498 c9              leave
10003499 c3              ret
1000349a 53              push    ebx
1000349b 53              push    ebx
1000349c 53              push    ebx
1000349d 53              push    ebx
1000349e 53              push    ebx
1000349f e86c010000      call    10003610
100034a4 cc              int     3
100034a5 55              push    ebp
100034a6 8bec            mov     ebp,esp
100034a8 81ec28030000    sub     esp,328h
100034ae a100f00010      mov     eax,dword ptr ds:[1000F000h]
100034b3 33c5            xor     eax,ebp
100034b5 8945fc          mov     dword ptr [ebp-4],eax
100034b8 837d08ff        cmp     dword ptr [ebp+8],0FFFFFFFFh
100034bc 57              push    edi
100034bd 7409            je      100034c8
100034bf ff7508          push    dword ptr [ebp+8]
100034c2 e8befdffff      call    10003285
100034c7 59              pop     ecx
100034c8 83a5e0fcffff00  and     dword ptr [ebp-320h],0
100034cf 6a4c            push    4Ch
100034d1 8d85e4fcffff    lea     eax,[ebp-31Ch]
100034d7 6a00            push    0
100034d9 50              push    eax
100034da e8311b0000      call    10005010
100034df 8d85e0fcffff    lea     eax,[ebp-320h]
100034e5 8985d8fcffff    mov     dword ptr [ebp-328h],eax
100034eb 8d8530fdffff    lea     eax,[ebp-2D0h]
100034f1 83c40c          add     esp,0Ch
100034f4 8985dcfcffff    mov     dword ptr [ebp-324h],eax
100034fa 8985e0fdffff    mov     dword ptr [ebp-220h],eax
10003500 898ddcfdffff    mov     dword ptr [ebp-224h],ecx
10003506 8995d8fdffff    mov     dword ptr [ebp-228h],edx
1000350c 899dd4fdffff    mov     dword ptr [ebp-22Ch],ebx
10003512 89b5d0fdffff    mov     dword ptr [ebp-230h],esi
10003518 89bdccfdffff    mov     dword ptr [ebp-234h],edi
1000351e 668c95f8fdffff  mov     word ptr [ebp-208h],ss
10003525 668c8decfdffff  mov     word ptr [ebp-214h],cs
1000352c 668c9dc8fdffff  mov     word ptr [ebp-238h],ds
10003533 668c85c4fdffff  mov     word ptr [ebp-23Ch],es
1000353a 668ca5c0fdffff  mov     word ptr [ebp-240h],fs
10003541 668cadbcfdffff  mov     word ptr [ebp-244h],gs
10003548 9c              pushfd
10003549 8f85f0fdffff    pop     dword ptr [ebp-210h]
1000354f 8b4504          mov     eax,dword ptr [ebp+4]
10003552 8985e8fdffff    mov     dword ptr [ebp-218h],eax
10003558 8d4504          lea     eax,[ebp+4]
1000355b 8985f4fdffff    mov     dword ptr [ebp-20Ch],eax
10003561 c78530fdffff01000100 mov dword ptr [ebp-2D0h],10001h
1000356b 8b40fc          mov     eax,dword ptr [eax-4]
1000356e 8985e4fdffff    mov     dword ptr [ebp-21Ch],eax
10003574 8b450c          mov     eax,dword ptr [ebp+0Ch]
10003577 8985e0fcffff    mov     dword ptr [ebp-320h],eax
1000357d 8b4510          mov     eax,dword ptr [ebp+10h]
10003580 8985e4fcffff    mov     dword ptr [ebp-31Ch],eax
10003586 8b4504          mov     eax,dword ptr [ebp+4]
10003589 8985ecfcffff    mov     dword ptr [ebp-314h],eax
1000358f ff1540a00010    call    dword ptr ds:[1000A040h]
10003595 8bf8            mov     edi,eax
10003597 8d85d8fcffff    lea     eax,[ebp-328h]
1000359d 50              push    eax
1000359e e8b4f9ffff      call    10002f57
100035a3 59              pop     ecx
100035a4 85c0            test    eax,eax
100035a6 7513            jne     100035bb
100035a8 85ff            test    edi,edi
100035aa 750f            jne     100035bb
100035ac 837d08ff        cmp     dword ptr [ebp+8],0FFFFFFFFh
100035b0 7409            je      100035bb
100035b2 ff7508          push    dword ptr [ebp+8]
100035b5 e8cbfcffff      call    10003285
100035ba 59              pop     ecx
100035bb 8b4dfc          mov     ecx,dword ptr [ebp-4]
100035be 33cd            xor     ecx,ebp
100035c0 5f              pop     edi
100035c1 e862e0ffff      call    10001628
100035c6 c9              leave
100035c7 c3              ret
100035c8 55              push    ebp
100035c9 8bec            mov     ebp,esp
100035cb 8b4508          mov     eax,dword ptr [ebp+8]
100035ce a3b08b0010      mov     dword ptr ds:[10008BB0h],eax
100035d3 5d              pop     ebp
100035d4 c3              ret
100035d5 55              push    ebp
100035d6 8bec            mov     ebp,esp
100035d8 ff35b08b0010    push    dword ptr ds:[10008BB0h]
100035de ff154ca00010    call    dword ptr ds:[1000A04Ch]
100035e4 85c0            test    eax,eax
100035e6 7403            je      100035eb
100035e8 5d              pop     ebp
100035e9 ffe0            jmp     eax
100035eb ff7518          push    dword ptr [ebp+18h]
100035ee ff7514          push    dword ptr [ebp+14h]
100035f1 ff7510          push    dword ptr [ebp+10h]
100035f4 ff750c          push    dword ptr [ebp+0Ch]
100035f7 ff7508          push    dword ptr [ebp+8]
100035fa e811000000      call    10003610
100035ff cc              int     3
10003600 33c0            xor     eax,eax
10003602 50              push    eax
10003603 50              push    eax
10003604 50              push    eax
10003605 50              push    eax
10003606 50              push    eax
10003607 e8c9ffffff      call    100035d5
1000360c 83c414          add     esp,14h
1000360f c3              ret
10003610 6a17            push    17h
10003612 e8ad420000      call    100078c4
10003617 85c0            test    eax,eax
10003619 7405            je      10003620
1000361b 6a05            push    5
1000361d 59              pop     ecx
1000361e cd29            int     29h
10003620 56              push    esi
10003621 6a01            push    1
10003623 be170400c0      mov     esi,0C0000417h
10003628 56              push    esi
10003629 6a02            push    2
1000362b e875feffff      call    100034a5
10003630 56              push    esi
10003631 e80cf9ffff      call    10002f42
10003636 83c410          add     esp,10h
10003639 5e              pop     esi
1000363a c3              ret
1000363b 55              push    ebp
1000363c 8bec            mov     ebp,esp
1000363e 56              push    esi
1000363f 8b7508          mov     esi,dword ptr [ebp+8]
10003642 833cf5d0f1001000 cmp     dword ptr [esi*8+1000F1D0h],0
1000364a 7513            jne     1000365f
1000364c 56              push    esi
1000364d e871000000      call    100036c3
10003652 59              pop     ecx
10003653 85c0            test    eax,eax
10003655 7508            jne     1000365f
10003657 6a11            push    11h
10003659 e82fecffff      call    1000228d
1000365e 59              pop     ecx
1000365f ff34f5d0f10010  push    dword ptr [esi*8+1000F1D0h]
10003666 ff15c4a00010    call    dword ptr ds:[1000A0C4h]
1000366c 5e              pop     esi
1000366d 5d              pop     ebp
1000366e c3              ret
1000366f 56              push    esi
10003670 57              push    edi
10003671 bed0f10010      mov     esi,1000F1D0h
10003676 8bfe            mov     edi,esi
10003678 53              push    ebx
10003679 8b1f            mov     ebx,dword ptr [edi]
1000367b 85db            test    ebx,ebx
1000367d 7417            je      10003696
1000367f 837f0401        cmp     dword ptr [edi+4],1
10003683 7411            je      10003696
10003685 53              push    ebx
10003686 ff1574a00010    call    dword ptr ds:[1000A074h]
1000368c 53              push    ebx
1000368d e850e0ffff      call    100016e2
10003692 832700          and     dword ptr [edi],0
10003695 59              pop     ecx
10003696 83c708          add     edi,8
10003699 81fff0f20010    cmp     edi,1000F2F0h
1000369f 7cd8            jl      10003679
100036a1 5b              pop     ebx
100036a2 833e00          cmp     dword ptr [esi],0
100036a5 740e            je      100036b5
100036a7 837e0401        cmp     dword ptr [esi+4],1
100036ab 7508            jne     100036b5
100036ad ff36            push    dword ptr [esi]
100036af ff1574a00010    call    dword ptr ds:[1000A074h]
100036b5 83c608          add     esi,8
100036b8 81fef0f20010    cmp     esi,1000F2F0h
100036be 7ce2            jl      100036a2
100036c0 5f              pop     edi
100036c1 5e              pop     esi
100036c2 c3              ret
100036c3 6a08            push    8
100036c5 6880dd0010      push    1000DD80h
100036ca e8c1f9ffff      call    10003090
100036cf 833d3483001000  cmp     dword ptr ds:[10008334h],0
100036d6 7518            jne     100036f0
100036d8 e8b0fbffff      call    1000328d
100036dd 6a1e            push    1Eh
100036df e806fcffff      call    100032ea
100036e4 68ff000000      push    0FFh
100036e9 e879eaffff      call    10002167
100036ee 59              pop     ecx
100036ef 59              pop     ecx
100036f0 8b7d08          mov     edi,dword ptr [ebp+8]
100036f3 833cfdd0f1001000 cmp     dword ptr [edi*8+1000F1D0h],0
100036fb 755b            jne     10003758
100036fd 6a18            push    18h
100036ff e8b3f8ffff      call    10002fb7
10003704 59              pop     ecx
10003705 8bf0            mov     esi,eax
10003707 85f6            test    esi,esi
10003709 750f            jne     1000371a
1000370b e8cee4ffff      call    10001bde
10003710 c7000c000000    mov     dword ptr [eax],0Ch
10003716 33c0            xor     eax,eax
10003718 eb41            jmp     1000375b
1000371a 6a0a            push    0Ah
1000371c e81affffff      call    1000363b
10003721 59              pop     ecx
10003722 8365fc00        and     dword ptr [ebp-4],0
10003726 833cfdd0f1001000 cmp     dword ptr [edi*8+1000F1D0h],0
1000372e 7515            jne     10003745
10003730 68a00f0000      push    0FA0h
10003735 56              push    esi
10003736 ff1570a00010    call    dword ptr ds:[1000A070h]
1000373c 8934fdd0f10010  mov     dword ptr [edi*8+1000F1D0h],esi
10003743 eb07            jmp     1000374c
10003745 56              push    esi
10003746 e897dfffff      call    100016e2
1000374b 59              pop     ecx
1000374c c745fcfeffffff  mov     dword ptr [ebp-4],0FFFFFFFEh
10003753 e809000000      call    10003761
10003758 33c0            xor     eax,eax
1000375a 40              inc     eax
1000375b e875f9ffff      call    100030d5
10003760 c3              ret
10003761 6a0a            push    0Ah
10003763 e837000000      call    1000379f
10003768 59              pop     ecx
10003769 c3              ret
1000376a 56              push    esi
1000376b 57              push    edi
1000376c bed0f10010      mov     esi,1000F1D0h
10003771 bfb88b0010      mov     edi,10008BB8h
10003776 837e0401        cmp     dword ptr [esi+4],1
1000377a 7512            jne     1000378e
1000377c 893e            mov     dword ptr [esi],edi
1000377e 68a00f0000      push    0FA0h
10003783 ff36            push    dword ptr [esi]
10003785 83c718          add     edi,18h
10003788 ff1570a00010    call    dword ptr ds:[1000A070h]
1000378e 83c608          add     esi,8
10003791 81fef0f20010    cmp     esi,1000F2F0h
10003797 7cdd            jl      10003776
10003799 33c0            xor     eax,eax
1000379b 5f              pop     edi
1000379c 40              inc     eax
1000379d 5e              pop     esi
1000379e c3              ret
1000379f 55              push    ebp
100037a0 8bec            mov     ebp,esp
100037a2 8b4508          mov     eax,dword ptr [ebp+8]
100037a5 ff34c5d0f10010  push    dword ptr [eax*8+1000F1D0h]
100037ac ff15c8a00010    call    dword ptr ds:[1000A0C8h]
100037b2 5d              pop     ebp
100037b3 c3              ret
100037b4 55              push    ebp
100037b5 8bec            mov     ebp,esp
100037b7 53              push    ebx
100037b8 56              push    esi
100037b9 8b3554a00010    mov     esi,dword ptr ds:[1000A054h]
100037bf 57              push    edi
100037c0 8b7d08          mov     edi,dword ptr [ebp+8]
100037c3 57              push    edi
100037c4 ffd6            call    esi
100037c6 837f7800        cmp     dword ptr [edi+78h],0
100037ca 7405            je      100037d1
100037cc ff7778          push    dword ptr [edi+78h]
100037cf ffd6            call    esi
100037d1 8b8780000000    mov     eax,dword ptr [edi+80h]
100037d7 85c0            test    eax,eax
100037d9 7403            je      100037de
100037db 50              push    eax
100037dc ffd6            call    esi
100037de 837f7c00        cmp     dword ptr [edi+7Ch],0
100037e2 7405            je      100037e9
100037e4 ff777c          push    dword ptr [edi+7Ch]
100037e7 ffd6            call    esi
100037e9 8b8788000000    mov     eax,dword ptr [edi+88h]
100037ef 85c0            test    eax,eax
100037f1 7403            je      100037f6
100037f3 50              push    eax
100037f4 ffd6            call    esi
100037f6 6a06            push    6
100037f8 58              pop     eax
100037f9 8d5f1c          lea     ebx,[edi+1Ch]
100037fc 894508          mov     dword ptr [ebp+8],eax
100037ff 817bf8f0f20010  cmp     dword ptr [ebx-8],1000F2F0h
10003806 740c            je      10003814
10003808 833b00          cmp     dword ptr [ebx],0
1000380b 7407            je      10003814
1000380d ff33            push    dword ptr [ebx]
1000380f ffd6            call    esi
10003811 8b4508          mov     eax,dword ptr [ebp+8]
10003814 837bf400        cmp     dword ptr [ebx-0Ch],0
10003818 740e            je      10003828
1000381a 837bfc00        cmp     dword ptr [ebx-4],0
1000381e 7408            je      10003828
10003820 ff73fc          push    dword ptr [ebx-4]
10003823 ffd6            call    esi
10003825 8b4508          mov     eax,dword ptr [ebp+8]
10003828 83c310          add     ebx,10h
1000382b 48              dec     eax
1000382c 894508          mov     dword ptr [ebp+8],eax
1000382f 75ce            jne     100037ff
10003831 8b879c000000    mov     eax,dword ptr [edi+9Ch]
10003837 05b0000000      add     eax,0B0h
1000383c 50              push    eax
1000383d ffd6            call    esi
1000383f 5f              pop     edi
10003840 5e              pop     esi
10003841 5b              pop     ebx
10003842 5d              pop     ebp
10003843 c3              ret
10003844 55              push    ebp
10003845 8bec            mov     ebp,esp
10003847 53              push    ebx
10003848 56              push    esi
10003849 8b7508          mov     esi,dword ptr [ebp+8]
1000384c 33db            xor     ebx,ebx
1000384e 8b8684000000    mov     eax,dword ptr [esi+84h]
10003854 57              push    edi
10003855 85c0            test    eax,eax
10003857 7466            je      100038bf
10003859 3d00fd0010      cmp     eax,1000FD00h
1000385e 745f            je      100038bf
10003860 8b4678          mov     eax,dword ptr [esi+78h]
10003863 85c0            test    eax,eax
10003865 7458            je      100038bf
10003867 3918            cmp     dword ptr [eax],ebx
10003869 7554            jne     100038bf
1000386b 8b8680000000    mov     eax,dword ptr [esi+80h]
10003871 85c0            test    eax,eax
10003873 7417            je      1000388c
10003875 3918            cmp     dword ptr [eax],ebx
10003877 7513            jne     1000388c
10003879 50              push    eax
1000387a e863deffff      call    100016e2
1000387f ffb684000000    push    dword ptr [esi+84h]
10003885 e816180000      call    100050a0
1000388a 59              pop     ecx
1000388b 59              pop     ecx
1000388c 8b467c          mov     eax,dword ptr [esi+7Ch]
1000388f 85c0            test    eax,eax
10003891 7417            je      100038aa
10003893 3918            cmp     dword ptr [eax],ebx
10003895 7513            jne     100038aa
10003897 50              push    eax
10003898 e845deffff      call    100016e2
1000389d ffb684000000    push    dword ptr [esi+84h]
100038a3 e8f4180000      call    1000519c
100038a8 59              pop     ecx
100038a9 59              pop     ecx
100038aa ff7678          push    dword ptr [esi+78h]
100038ad e830deffff      call    100016e2
100038b2 ffb684000000    push    dword ptr [esi+84h]
100038b8 e825deffff      call    100016e2
100038bd 59              pop     ecx
100038be 59              pop     ecx
100038bf 8b8688000000    mov     eax,dword ptr [esi+88h]
100038c5 85c0            test    eax,eax
100038c7 7444            je      1000390d
100038c9 3918            cmp     dword ptr [eax],ebx
100038cb 7540            jne     1000390d
100038cd 8b868c000000    mov     eax,dword ptr [esi+8Ch]
100038d3 2dfe000000      sub     eax,0FEh
100038d8 50              push    eax
100038d9 e804deffff      call    100016e2
100038de 8b8694000000    mov     eax,dword ptr [esi+94h]
100038e4 bf80000000      mov     edi,80h
100038e9 2bc7            sub     eax,edi
100038eb 50              push    eax
100038ec e8f1ddffff      call    100016e2
100038f1 8b8698000000    mov     eax,dword ptr [esi+98h]
100038f7 2bc7            sub     eax,edi
100038f9 50              push    eax
100038fa e8e3ddffff      call    100016e2
100038ff ffb688000000    push    dword ptr [esi+88h]
10003905 e8d8ddffff      call    100016e2
1000390a 83c410          add     esp,10h
1000390d 8b869c000000    mov     eax,dword ptr [esi+9Ch]
10003913 3df8f20010      cmp     eax,1000F2F8h
10003918 741b            je      10003935
1000391a 3998b0000000    cmp     dword ptr [eax+0B0h],ebx
10003920 7513            jne     10003935
10003922 50              push    eax
10003923 e8db180000      call    10005203
10003928 ffb69c000000    push    dword ptr [esi+9Ch]
1000392e e8afddffff      call    100016e2
10003933 59              pop     ecx
10003934 59              pop     ecx
10003935 6a06            push    6
10003937 58              pop     eax
10003938 8d9ea0000000    lea     ebx,[esi+0A0h]
1000393e 8d7e1c          lea     edi,[esi+1Ch]
10003941 894508          mov     dword ptr [ebp+8],eax
10003944 817ff8f0f20010  cmp     dword ptr [edi-8],1000F2F0h
1000394b 741d            je      1000396a
1000394d 8b07            mov     eax,dword ptr [edi]
1000394f 85c0            test    eax,eax
10003951 7414            je      10003967
10003953 833800          cmp     dword ptr [eax],0
10003956 750f            jne     10003967
10003958 50              push    eax
10003959 e884ddffff      call    100016e2
1000395e ff33            push    dword ptr [ebx]
10003960 e87dddffff      call    100016e2
10003965 59              pop     ecx
10003966 59              pop     ecx
10003967 8b4508          mov     eax,dword ptr [ebp+8]
1000396a 837ff400        cmp     dword ptr [edi-0Ch],0
1000396e 7416            je      10003986
10003970 8b47fc          mov     eax,dword ptr [edi-4]
10003973 85c0            test    eax,eax
10003975 740c            je      10003983
10003977 833800          cmp     dword ptr [eax],0
1000397a 7507            jne     10003983
1000397c 50              push    eax
1000397d e860ddffff      call    100016e2
10003982 59              pop     ecx
10003983 8b4508          mov     eax,dword ptr [ebp+8]
10003986 83c304          add     ebx,4
10003989 83c710          add     edi,10h
1000398c 48              dec     eax
1000398d 894508          mov     dword ptr [ebp+8],eax
10003990 75b2            jne     10003944
10003992 56              push    esi
10003993 e84addffff      call    100016e2
10003998 59              pop     ecx
10003999 5f              pop     edi
1000399a 5e              pop     esi
1000399b 5b              pop     ebx
1000399c 5d              pop     ebp
1000399d c3              ret
1000399e 55              push    ebp
1000399f 8bec            mov     ebp,esp
100039a1 56              push    esi
100039a2 8b7508          mov     esi,dword ptr [ebp+8]
100039a5 85f6            test    esi,esi
100039a7 0f8487000000    je      10003a34
100039ad 53              push    ebx
100039ae 57              push    edi
100039af 8b3d58a00010    mov     edi,dword ptr ds:[1000A058h]
100039b5 56              push    esi
100039b6 ffd7            call    edi
100039b8 837e7800        cmp     dword ptr [esi+78h],0
100039bc 7405            je      100039c3
100039be ff7678          push    dword ptr [esi+78h]
100039c1 ffd7            call    edi
100039c3 8b8680000000    mov     eax,dword ptr [esi+80h]
100039c9 85c0            test    eax,eax
100039cb 7403            je      100039d0
100039cd 50              push    eax
100039ce ffd7            call    edi
100039d0 837e7c00        cmp     dword ptr [esi+7Ch],0
100039d4 7405            je      100039db
100039d6 ff767c          push    dword ptr [esi+7Ch]
100039d9 ffd7            call    edi
100039db 8b8688000000    mov     eax,dword ptr [esi+88h]
100039e1 85c0            test    eax,eax
100039e3 7403            je      100039e8
100039e5 50              push    eax
100039e6 ffd7            call    edi
100039e8 6a06            push    6
100039ea 58              pop     eax
100039eb 8d5e1c          lea     ebx,[esi+1Ch]
100039ee 894508          mov     dword ptr [ebp+8],eax
100039f1 817bf8f0f20010  cmp     dword ptr [ebx-8],1000F2F0h
100039f8 740c            je      10003a06
100039fa 833b00          cmp     dword ptr [ebx],0
100039fd 7407            je      10003a06
100039ff ff33            push    dword ptr [ebx]
10003a01 ffd7            call    edi
10003a03 8b4508          mov     eax,dword ptr [ebp+8]
10003a06 837bf400        cmp     dword ptr [ebx-0Ch],0
10003a0a 740e            je      10003a1a
10003a0c 837bfc00        cmp     dword ptr [ebx-4],0
10003a10 7408            je      10003a1a
10003a12 ff73fc          push    dword ptr [ebx-4]
10003a15 ffd7            call    edi
10003a17 8b4508          mov     eax,dword ptr [ebp+8]
10003a1a 83c310          add     ebx,10h
10003a1d 48              dec     eax
10003a1e 894508          mov     dword ptr [ebp+8],eax
10003a21 75ce            jne     100039f1
10003a23 8b8e9c000000    mov     ecx,dword ptr [esi+9Ch]
10003a29 81c1b0000000    add     ecx,0B0h
10003a2f 51              push    ecx
10003a30 ffd7            call    edi
10003a32 5f              pop     edi
10003a33 5b              pop     ebx
10003a34 8bc6            mov     eax,esi
10003a36 5e              pop     esi
10003a37 5d              pop     ebp
10003a38 c3              ret
10003a39 6a0c            push    0Ch
10003a3b 68a0dd0010      push    1000DDA0h
10003a40 e84bf6ffff      call    10003090
10003a45 e81ee5ffff      call    10001f68
10003a4a 8bf0            mov     esi,eax
10003a4c 8b0df0fc0010    mov     ecx,dword ptr ds:[1000FCF0h]
10003a52 854e70          test    dword ptr [esi+70h],ecx
10003a55 7422            je      10003a79
10003a57 837e6c00        cmp     dword ptr [esi+6Ch],0
10003a5b 741c            je      10003a79
10003a5d e806e5ffff      call    10001f68
10003a62 8b706c          mov     esi,dword ptr [eax+6Ch]
10003a65 85f6            test    esi,esi
10003a67 7508            jne     10003a71
10003a69 6a20            push    20h
10003a6b e81de8ffff      call    1000228d
10003a70 59              pop     ecx
10003a71 8bc6            mov     eax,esi
10003a73 e85df6ffff      call    100030d5
10003a78 c3              ret
10003a79 6a0c            push    0Ch
10003a7b e8bbfbffff      call    1000363b
10003a80 59              pop     ecx
10003a81 8365fc00        and     dword ptr [ebp-4],0
10003a85 ff355cf40010    push    dword ptr ds:[1000F45Ch]
10003a8b 8d466c          lea     eax,[esi+6Ch]
10003a8e 50              push    eax
10003a8f e821000000      call    10003ab5
10003a94 59              pop     ecx
10003a95 59              pop     ecx
10003a96 8bf0            mov     esi,eax
10003a98 8975e4          mov     dword ptr [ebp-1Ch],esi
10003a9b c745fcfeffffff  mov     dword ptr [ebp-4],0FFFFFFFEh
10003aa2 e805000000      call    10003aac
10003aa7 ebbc            jmp     10003a65
10003aa9 8b75e4          mov     esi,dword ptr [ebp-1Ch]
10003aac 6a0c            push    0Ch
10003aae e8ecfcffff      call    1000379f
10003ab3 59              pop     ecx
10003ab4 c3              ret
10003ab5 55              push    ebp
10003ab6 8bec            mov     ebp,esp
10003ab8 57              push    edi
10003ab9 8b7d0c          mov     edi,dword ptr [ebp+0Ch]
10003abc 85ff            test    edi,edi
10003abe 743b            je      10003afb
10003ac0 8b4508          mov     eax,dword ptr [ebp+8]
10003ac3 85c0            test    eax,eax
10003ac5 7434            je      10003afb
10003ac7 56              push    esi
10003ac8 8b30            mov     esi,dword ptr [eax]
10003aca 3bf7            cmp     esi,edi
10003acc 7428            je      10003af6
10003ace 57              push    edi
10003acf 8938            mov     dword ptr [eax],edi
10003ad1 e8defcffff      call    100037b4
10003ad6 59              pop     ecx
10003ad7 85f6            test    esi,esi
10003ad9 741b            je      10003af6
10003adb 56              push    esi
10003adc e8bdfeffff      call    1000399e
10003ae1 833e00          cmp     dword ptr [esi],0
10003ae4 59              pop     ecx
10003ae5 750f            jne     10003af6
10003ae7 81fe60f40010    cmp     esi,1000F460h
10003aed 7407            je      10003af6
10003aef 56              push    esi
10003af0 e84ffdffff      call    10003844
10003af5 59              pop     ecx
10003af6 8bc7            mov     eax,edi
10003af8 5e              pop     esi
10003af9 eb02            jmp     10003afd
10003afb 33c0            xor     eax,eax
10003afd 5f              pop     edi
10003afe 5d              pop     ebp
10003aff c3              ret
10003b00 833d489e001000  cmp     dword ptr ds:[10009E48h],0
10003b07 7512            jne     10003b1b
10003b09 6afd            push    0FFFFFFFDh
10003b0b e8d8030000      call    10003ee8
10003b10 59              pop     ecx
10003b11 c705489e001001000000 mov dword ptr ds:[10009E48h],1
10003b1b 33c0            xor     eax,eax
10003b1d c3              ret
10003b1e 55              push    ebp
10003b1f 8bec            mov     ebp,esp
10003b21 56              push    esi
10003b22 8bf1            mov     esi,ecx
10003b24 8b4d08          mov     ecx,dword ptr [ebp+8]
10003b27 c6460c00        mov     byte ptr [esi+0Ch],0
10003b2b 85c9            test    ecx,ecx
10003b2d 7566            jne     10003b95
10003b2f e834e4ffff      call    10001f68
10003b34 8bd0            mov     edx,eax
10003b36 895608          mov     dword ptr [esi+8],edx
10003b39 8b4a6c          mov     ecx,dword ptr [edx+6Ch]
10003b3c 890e            mov     dword ptr [esi],ecx
10003b3e 8b4a68          mov     ecx,dword ptr [edx+68h]
10003b41 894e04          mov     dword ptr [esi+4],ecx
10003b44 8b0e            mov     ecx,dword ptr [esi]
10003b46 3b0d5cf40010    cmp     ecx,dword ptr ds:[1000F45Ch]
10003b4c 7411            je      10003b5f
10003b4e a1f0fc0010      mov     eax,dword ptr ds:[1000FCF0h]
10003b53 854270          test    dword ptr [edx+70h],eax
10003b56 7507            jne     10003b5f
10003b58 e8dcfeffff      call    10003a39
10003b5d 8906            mov     dword ptr [esi],eax
10003b5f 8b4604          mov     eax,dword ptr [esi+4]
10003b62 3b0520f50010    cmp     eax,dword ptr ds:[1000F520h]
10003b68 7415            je      10003b7f
10003b6a 8b4e08          mov     ecx,dword ptr [esi+8]
10003b6d a1f0fc0010      mov     eax,dword ptr ds:[1000FCF0h]
10003b72 854170          test    dword ptr [ecx+70h],eax
10003b75 7508            jne     10003b7f
10003b77 e8c7020000      call    10003e43
10003b7c 894604          mov     dword ptr [esi+4],eax
10003b7f 8b4e08          mov     ecx,dword ptr [esi+8]
10003b82 8b4170          mov     eax,dword ptr [ecx+70h]
10003b85 a802            test    al,2
10003b87 7516            jne     10003b9f
10003b89 83c802          or      eax,2
10003b8c 894170          mov     dword ptr [ecx+70h],eax
10003b8f c6460c01        mov     byte ptr [esi+0Ch],1
10003b93 eb0a            jmp     10003b9f
10003b95 8b01            mov     eax,dword ptr [ecx]
10003b97 8906            mov     dword ptr [esi],eax
10003b99 8b4104          mov     eax,dword ptr [ecx+4]
10003b9c 894604          mov     dword ptr [esi+4],eax
10003b9f 8bc6            mov     eax,esi
10003ba1 5e              pop     esi
10003ba2 5d              pop     ebp
10003ba3 c20400          ret     4
10003ba6 55              push    ebp
10003ba7 8bec            mov     ebp,esp
10003ba9 8b4508          mov     eax,dword ptr [ebp+8]
10003bac 2da4030000      sub     eax,3A4h
10003bb1 7426            je      10003bd9
10003bb3 83e804          sub     eax,4
10003bb6 741a            je      10003bd2
10003bb8 83e80d          sub     eax,0Dh
10003bbb 740e            je      10003bcb
10003bbd 48              dec     eax
10003bbe 7404            je      10003bc4
10003bc0 33c0            xor     eax,eax
10003bc2 5d              pop     ebp
10003bc3 c3              ret
10003bc4 a17cb20010      mov     eax,dword ptr ds:[1000B27Ch]
10003bc9 5d              pop     ebp
10003bca c3              ret
10003bcb a178b20010      mov     eax,dword ptr ds:[1000B278h]
10003bd0 5d              pop     ebp
10003bd1 c3              ret
10003bd2 a174b20010      mov     eax,dword ptr ds:[1000B274h]
10003bd7 5d              pop     ebp
10003bd8 c3              ret
10003bd9 a170b20010      mov     eax,dword ptr ds:[1000B270h]
10003bde 5d              pop     ebp
10003bdf c3              ret
10003be0 55              push    ebp
10003be1 8bec            mov     ebp,esp
10003be3 83ec10          sub     esp,10h
10003be6 8d4df0          lea     ecx,[ebp-10h]
10003be9 6a00            push    0
10003beb e82effffff      call    10003b1e
10003bf0 8b4508          mov     eax,dword ptr [ebp+8]
10003bf3 8325208d001000  and     dword ptr ds:[10008D20h],0
10003bfa 83f8fe          cmp     eax,0FFFFFFFEh
10003bfd 7512            jne     10003c11
10003bff c705208d001001000000 mov dword ptr ds:[10008D20h],1
10003c09 ff15d4a00010    call    dword ptr ds:[1000A0D4h]
10003c0f eb2c            jmp     10003c3d
10003c11 83f8fd          cmp     eax,0FFFFFFFDh
10003c14 7512            jne     10003c28
10003c16 c705208d001001000000 mov dword ptr ds:[10008D20h],1
10003c20 ff15d0a00010    call    dword ptr ds:[1000A0D0h]
10003c26 eb15            jmp     10003c3d
10003c28 83f8fc          cmp     eax,0FFFFFFFCh
10003c2b 7510            jne     10003c3d
10003c2d 8b45f0          mov     eax,dword ptr [ebp-10h]
10003c30 c705208d001001000000 mov dword ptr ds:[10008D20h],1
10003c3a 8b4004          mov     eax,dword ptr [eax+4]
10003c3d 807dfc00        cmp     byte ptr [ebp-4],0
10003c41 7407            je      10003c4a
10003c43 8b4df8          mov     ecx,dword ptr [ebp-8]
10003c46 836170fd        and     dword ptr [ecx+70h],0FFFFFFFDh
10003c4a c9              leave
10003c4b c3              ret
10003c4c 55              push    ebp
10003c4d 8bec            mov     ebp,esp
10003c4f 53              push    ebx
10003c50 8b5d08          mov     ebx,dword ptr [ebp+8]
10003c53 56              push    esi
10003c54 57              push    edi
10003c55 6801010000      push    101h
10003c5a 33ff            xor     edi,edi
10003c5c 8d7318          lea     esi,[ebx+18h]
10003c5f 57              push    edi
10003c60 56              push    esi
10003c61 e8aa130000      call    10005010
10003c66 33c0            xor     eax,eax
10003c68 0fb7c8          movzx   ecx,ax
10003c6b 897b04          mov     dword ptr [ebx+4],edi
10003c6e 897b08          mov     dword ptr [ebx+8],edi
10003c71 89bb1c020000    mov     dword ptr [ebx+21Ch],edi
10003c77 8bc1            mov     eax,ecx
10003c79 c1e110          shl     ecx,10h
10003c7c 0bc1            or      eax,ecx
10003c7e 8d7b0c          lea     edi,[ebx+0Ch]
10003c81 ab              stos    dword ptr es:[edi]
10003c82 ab              stos    dword ptr es:[edi]
10003c83 ab              stos    dword ptr es:[edi]
10003c84 bf20f80010      mov     edi,1000F820h
10003c89 83c40c          add     esp,0Ch
10003c8c 2bfb            sub     edi,ebx
10003c8e b901010000      mov     ecx,101h
10003c93 8a0437          mov     al,byte ptr [edi+esi]
10003c96 8806            mov     byte ptr [esi],al
10003c98 46              inc     esi
10003c99 49              dec     ecx
10003c9a 75f7            jne     10003c93
10003c9c 8d8b19010000    lea     ecx,[ebx+119h]
10003ca2 ba00010000      mov     edx,100h
10003ca7 8a0439          mov     al,byte ptr [ecx+edi]
10003caa 8801            mov     byte ptr [ecx],al
10003cac 41              inc     ecx
10003cad 4a              dec     edx
10003cae 75f7            jne     10003ca7
10003cb0 5f              pop     edi
10003cb1 5e              pop     esi
10003cb2 5b              pop     ebx
10003cb3 5d              pop     ebp
10003cb4 c3              ret
10003cb5 55              push    ebp
10003cb6 8bec            mov     ebp,esp
10003cb8 81ec20050000    sub     esp,520h
10003cbe a100f00010      mov     eax,dword ptr ds:[1000F000h]
10003cc3 33c5            xor     eax,ebp
10003cc5 8945fc          mov     dword ptr [ebp-4],eax
10003cc8 53              push    ebx
10003cc9 56              push    esi
10003cca 8b7508          mov     esi,dword ptr [ebp+8]
10003ccd 57              push    edi
10003cce 8d85e8faffff    lea     eax,[ebp-518h]
10003cd4 50              push    eax
10003cd5 ff7604          push    dword ptr [esi+4]
10003cd8 ff15d8a00010    call    dword ptr ds:[1000A0D8h]
10003cde 33db            xor     ebx,ebx
10003ce0 bf00010000      mov     edi,100h
10003ce5 85c0            test    eax,eax
10003ce7 0f84f0000000    je      10003ddd
10003ced 8bc3            mov     eax,ebx
10003cef 888405fcfeffff  mov     byte ptr [ebp+eax-104h],al
10003cf6 40              inc     eax
10003cf7 3bc7            cmp     eax,edi
10003cf9 72f4            jb      10003cef
10003cfb 8a85eefaffff    mov     al,byte ptr [ebp-512h]
10003d01 c685fcfeffff20  mov     byte ptr [ebp-104h],20h
10003d08 8d8deefaffff    lea     ecx,[ebp-512h]
10003d0e eb1f            jmp     10003d2f
10003d10 0fb65101        movzx   edx,byte ptr [ecx+1]
10003d14 0fb6c0          movzx   eax,al
10003d17 eb0d            jmp     10003d26
10003d19 3bc7            cmp     eax,edi
10003d1b 730d            jae     10003d2a
10003d1d c68405fcfeffff20 mov     byte ptr [ebp+eax-104h],20h
10003d25 40              inc     eax
10003d26 3bc2            cmp     eax,edx
10003d28 76ef            jbe     10003d19
10003d2a 83c102          add     ecx,2
10003d2d 8a01            mov     al,byte ptr [ecx]
10003d2f 84c0            test    al,al
10003d31 75dd            jne     10003d10
10003d33 53              push    ebx
10003d34 ff7604          push    dword ptr [esi+4]
10003d37 8d85fcfaffff    lea     eax,[ebp-504h]
10003d3d 50              push    eax
10003d3e 57              push    edi
10003d3f 8d85fcfeffff    lea     eax,[ebp-104h]
10003d45 50              push    eax
10003d46 6a01            push    1
10003d48 53              push    ebx
10003d49 e86c1b0000      call    100058ba
10003d4e 53              push    ebx
10003d4f ff7604          push    dword ptr [esi+4]
10003d52 8d85fcfdffff    lea     eax,[ebp-204h]
10003d58 57              push    edi
10003d59 50              push    eax
10003d5a 57              push    edi
10003d5b 8d85fcfeffff    lea     eax,[ebp-104h]
10003d61 50              push    eax
10003d62 57              push    edi
10003d63 ffb61c020000    push    dword ptr [esi+21Ch]
10003d69 53              push    ebx
10003d6a e8fd190000      call    1000576c
10003d6f 83c440          add     esp,40h
10003d72 8d85fcfcffff    lea     eax,[ebp-304h]
10003d78 53              push    ebx
10003d79 ff7604          push    dword ptr [esi+4]
10003d7c 57              push    edi
10003d7d 50              push    eax
10003d7e 57              push    edi
10003d7f 8d85fcfeffff    lea     eax,[ebp-104h]
10003d85 50              push    eax
10003d86 6800020000      push    200h
10003d8b ffb61c020000    push    dword ptr [esi+21Ch]
10003d91 53              push    ebx
10003d92 e8d5190000      call    1000576c
10003d97 83c424          add     esp,24h
10003d9a 8bcb            mov     ecx,ebx
10003d9c 0fb7844dfcfaffff movzx   eax,word ptr [ebp+ecx*2-504h]
10003da4 a801            test    al,1
10003da6 740e            je      10003db6
10003da8 804c0e1910      or      byte ptr [esi+ecx+19h],10h
10003dad 8a840dfcfdffff  mov     al,byte ptr [ebp+ecx-204h]
10003db4 eb10            jmp     10003dc6
10003db6 a802            test    al,2
10003db8 7415            je      10003dcf
10003dba 804c0e1920      or      byte ptr [esi+ecx+19h],20h
10003dbf 8a840dfcfcffff  mov     al,byte ptr [ebp+ecx-304h]
10003dc6 88840e19010000  mov     byte ptr [esi+ecx+119h],al
10003dcd eb07            jmp     10003dd6
10003dcf 889c0e19010000  mov     byte ptr [esi+ecx+119h],bl
10003dd6 41              inc     ecx
10003dd7 3bcf            cmp     ecx,edi
10003dd9 72c1            jb      10003d9c
10003ddb eb57            jmp     10003e34
10003ddd 6a9f            push    0FFFFFF9Fh
10003ddf 8d9619010000    lea     edx,[esi+119h]
10003de5 58              pop     eax
10003de6 2bc2            sub     eax,edx
10003de8 8bcb            mov     ecx,ebx
10003dea 8985e0faffff    mov     dword ptr [ebp-520h],eax
10003df0 03d1            add     edx,ecx
10003df2 03c2            add     eax,edx
10003df4 8985e4faffff    mov     dword ptr [ebp-51Ch],eax
10003dfa 83c020          add     eax,20h
10003dfd 83f819          cmp     eax,19h
10003e00 770a            ja      10003e0c
10003e02 804c0e1910      or      byte ptr [esi+ecx+19h],10h
10003e07 8d4120          lea     eax,[ecx+20h]
10003e0a eb11            jmp     10003e1d
10003e0c 83bde4faffff19  cmp     dword ptr [ebp-51Ch],19h
10003e13 770c            ja      10003e21
10003e15 804c0e1920      or      byte ptr [esi+ecx+19h],20h
10003e1a 8d41e0          lea     eax,[ecx-20h]
10003e1d 8802            mov     byte ptr [edx],al
10003e1f eb02            jmp     10003e23
10003e21 881a            mov     byte ptr [edx],bl
10003e23 8b85e0faffff    mov     eax,dword ptr [ebp-520h]
10003e29 41              inc     ecx
10003e2a 8d9619010000    lea     edx,[esi+119h]
10003e30 3bcf            cmp     ecx,edi
10003e32 72bc            jb      10003df0
10003e34 8b4dfc          mov     ecx,dword ptr [ebp-4]
10003e37 5f              pop     edi
10003e38 5e              pop     esi
10003e39 33cd            xor     ecx,ebp
10003e3b 5b              pop     ebx
10003e3c e8e7d7ffff      call    10001628
10003e41 c9              leave
10003e42 c3              ret
10003e43 6a0c            push    0Ch
10003e45 68c0dd0010      push    1000DDC0h
10003e4a e841f2ffff      call    10003090
10003e4f e814e1ffff      call    10001f68
10003e54 8bf8            mov     edi,eax
10003e56 8b0df0fc0010    mov     ecx,dword ptr ds:[1000FCF0h]
10003e5c 854f70          test    dword ptr [edi+70h],ecx
10003e5f 741d            je      10003e7e
10003e61 837f6c00        cmp     dword ptr [edi+6Ch],0
10003e65 7417            je      10003e7e
10003e67 8b7768          mov     esi,dword ptr [edi+68h]
10003e6a 85f6            test    esi,esi
10003e6c 7508            jne     10003e76
10003e6e 6a20            push    20h
10003e70 e818e4ffff      call    1000228d
10003e75 59              pop     ecx
10003e76 8bc6            mov     eax,esi
10003e78 e858f2ffff      call    100030d5
10003e7d c3              ret
10003e7e 6a0d            push    0Dh
10003e80 e8b6f7ffff      call    1000363b
10003e85 59              pop     ecx
10003e86 8365fc00        and     dword ptr [ebp-4],0
10003e8a 8b7768          mov     esi,dword ptr [edi+68h]
10003e8d 8975e4          mov     dword ptr [ebp-1Ch],esi
10003e90 3b3520f50010    cmp     esi,dword ptr ds:[1000F520h]
10003e96 7436            je      10003ece
10003e98 85f6            test    esi,esi
10003e9a 741a            je      10003eb6
10003e9c 56              push    esi
10003e9d ff1558a00010    call    dword ptr ds:[1000A058h]
10003ea3 85c0            test    eax,eax
10003ea5 750f            jne     10003eb6
10003ea7 81fe20f80010    cmp     esi,1000F820h
10003ead 7407            je      10003eb6
10003eaf 56              push    esi
10003eb0 e82dd8ffff      call    100016e2
10003eb5 59              pop     ecx
10003eb6 a120f50010      mov     eax,dword ptr ds:[1000F520h]
10003ebb 894768          mov     dword ptr [edi+68h],eax
10003ebe 8b3520f50010    mov     esi,dword ptr ds:[1000F520h]
10003ec4 8975e4          mov     dword ptr [ebp-1Ch],esi
10003ec7 56              push    esi
10003ec8 ff1554a00010    call    dword ptr ds:[1000A054h]
10003ece c745fcfeffffff  mov     dword ptr [ebp-4],0FFFFFFFEh
10003ed5 e805000000      call    10003edf
10003eda eb8e            jmp     10003e6a
10003edc 8b75e4          mov     esi,dword ptr [ebp-1Ch]
10003edf 6a0d            push    0Dh
10003ee1 e8b9f8ffff      call    1000379f
10003ee6 59              pop     ecx
10003ee7 c3              ret
10003ee8 6a10            push    10h
10003eea 68e0dd0010      push    1000DDE0h
10003eef e89cf1ffff      call    10003090
10003ef4 83cfff          or      edi,0FFFFFFFFh
10003ef7 e86ce0ffff      call    10001f68
10003efc 8bd8            mov     ebx,eax
10003efe 895de4          mov     dword ptr [ebp-1Ch],ebx
10003f01 e83dffffff      call    10003e43
10003f06 8b7368          mov     esi,dword ptr [ebx+68h]
10003f09 ff7508          push    dword ptr [ebp+8]
10003f0c e8cffcffff      call    10003be0
10003f11 59              pop     ecx
10003f12 894508          mov     dword ptr [ebp+8],eax
10003f15 3b4604          cmp     eax,dword ptr [esi+4]
10003f18 0f846e010000    je      1000408c
10003f1e 6820020000      push    220h
10003f23 e88ff0ffff      call    10002fb7
10003f28 59              pop     ecx
10003f29 8bd8            mov     ebx,eax
10003f2b 85db            test    ebx,ebx
10003f2d 0f845b010000    je      1000408e
10003f33 b988000000      mov     ecx,88h
10003f38 8b45e4          mov     eax,dword ptr [ebp-1Ch]
10003f3b 8b7068          mov     esi,dword ptr [eax+68h]
10003f3e 8bfb            mov     edi,ebx
10003f40 f3a5            rep movs dword ptr es:[edi],dword ptr [esi]
10003f42 33f6            xor     esi,esi
10003f44 8933            mov     dword ptr [ebx],esi
10003f46 53              push    ebx
10003f47 ff7508          push    dword ptr [ebp+8]
10003f4a e847010000      call    10004096
10003f4f 59              pop     ecx
10003f50 59              pop     ecx
10003f51 8bf8            mov     edi,eax
10003f53 897d08          mov     dword ptr [ebp+8],edi
10003f56 85ff            test    edi,edi
10003f58 0f850d010000    jne     1000406b
10003f5e 8b45e4          mov     eax,dword ptr [ebp-1Ch]
10003f61 ff7068          push    dword ptr [eax+68h]
10003f64 ff1558a00010    call    dword ptr ds:[1000A058h]
10003f6a 85c0            test    eax,eax
10003f6c 8b45e4          mov     eax,dword ptr [ebp-1Ch]
10003f6f 7515            jne     10003f86
10003f71 8b4868          mov     ecx,dword ptr [eax+68h]
10003f74 81f920f80010    cmp     ecx,1000F820h
10003f7a 740a            je      10003f86
10003f7c 51              push    ecx
10003f7d e860d7ffff      call    100016e2
10003f82 59              pop     ecx
10003f83 8b45e4          mov     eax,dword ptr [ebp-1Ch]
10003f86 895868          mov     dword ptr [eax+68h],ebx
10003f89 53              push    ebx
10003f8a ff1554a00010    call    dword ptr ds:[1000A054h]
10003f90 8b45e4          mov     eax,dword ptr [ebp-1Ch]
10003f93 f6407002        test    byte ptr [eax+70h],2
10003f97 0f85f1000000    jne     1000408e
10003f9d f605f0fc001001  test    byte ptr ds:[1000FCF0h],1
10003fa4 0f85e4000000    jne     1000408e
10003faa 6a0d            push    0Dh
10003fac e88af6ffff      call    1000363b
10003fb1 59              pop     ecx
10003fb2 8975fc          mov     dword ptr [ebp-4],esi
10003fb5 8b4304          mov     eax,dword ptr [ebx+4]
10003fb8 a30c8d0010      mov     dword ptr ds:[10008D0Ch],eax
10003fbd 8b4308          mov     eax,dword ptr [ebx+8]
10003fc0 a3108d0010      mov     dword ptr ds:[10008D10h],eax
10003fc5 8b831c020000    mov     eax,dword ptr [ebx+21Ch]
10003fcb a3088d0010      mov     dword ptr ds:[10008D08h],eax
10003fd0 8bce            mov     ecx,esi
10003fd2 894de0          mov     dword ptr [ebp-20h],ecx
10003fd5 83f905          cmp     ecx,5
10003fd8 7d10            jge     10003fea
10003fda 668b444b0c      mov     ax,word ptr [ebx+ecx*2+0Ch]
10003fdf 6689044d148d0010 mov     word ptr [ecx*2+10008D14h],ax
10003fe7 41              inc     ecx
10003fe8 ebe8            jmp     10003fd2
10003fea 8bce            mov     ecx,esi
10003fec 894de0          mov     dword ptr [ebp-20h],ecx
10003fef 81f901010000    cmp     ecx,101h
10003ff5 7d0d            jge     10004004
10003ff7 8a441918        mov     al,byte ptr [ecx+ebx+18h]
10003ffb 888118f60010    mov     byte ptr [ecx+1000F618h],al
10004001 41              inc     ecx
10004002 ebe8            jmp     10003fec
10004004 8975e0          mov     dword ptr [ebp-20h],esi
10004007 81fe00010000    cmp     esi,100h
1000400d 7d10            jge     1000401f
1000400f 8a841e19010000  mov     al,byte ptr [esi+ebx+119h]
10004016 888620f70010    mov     byte ptr [esi+1000F720h],al
1000401c 46              inc     esi
1000401d ebe5            jmp     10004004
1000401f ff3520f50010    push    dword ptr ds:[1000F520h]
10004025 ff1558a00010    call    dword ptr ds:[1000A058h]
1000402b 85c0            test    eax,eax
1000402d 7513            jne     10004042
1000402f a120f50010      mov     eax,dword ptr ds:[1000F520h]
10004034 3d20f80010      cmp     eax,1000F820h
10004039 7407            je      10004042
1000403b 50              push    eax
1000403c e8a1d6ffff      call    100016e2
10004041 59              pop     ecx
10004042 891d20f50010    mov     dword ptr ds:[1000F520h],ebx
10004048 53              push    ebx
10004049 ff1554a00010    call    dword ptr ds:[1000A054h]
1000404f c745fcfeffffff  mov     dword ptr [ebp-4],0FFFFFFFEh
10004056 e805000000      call    10004060
1000405b eb31            jmp     1000408e
1000405d 8b7d08          mov     edi,dword ptr [ebp+8]
10004060 6a0d            push    0Dh
10004062 e838f7ffff      call    1000379f
10004067 59              pop     ecx
10004068 c3              ret
10004069 eb23            jmp     1000408e
1000406b 83ffff          cmp     edi,0FFFFFFFFh
1000406e 751e            jne     1000408e
10004070 81fb20f80010    cmp     ebx,1000F820h
10004076 7407            je      1000407f
10004078 53              push    ebx
10004079 e864d6ffff      call    100016e2
1000407e 59              pop     ecx
1000407f e85adbffff      call    10001bde
10004084 c70016000000    mov     dword ptr [eax],16h
1000408a eb02            jmp     1000408e
1000408c 33ff            xor     edi,edi
1000408e 8bc7            mov     eax,edi
10004090 e840f0ffff      call    100030d5
10004095 c3              ret
10004096 55              push    ebp
10004097 8bec            mov     ebp,esp
10004099 83ec20          sub     esp,20h
1000409c a100f00010      mov     eax,dword ptr ds:[1000F000h]
100040a1 33c5            xor     eax,ebp
100040a3 8945fc          mov     dword ptr [ebp-4],eax
100040a6 53              push    ebx
100040a7 56              push    esi
100040a8 ff7508          push    dword ptr [ebp+8]
100040ab 8b750c          mov     esi,dword ptr [ebp+0Ch]
100040ae e82dfbffff      call    10003be0
100040b3 8bd8            mov     ebx,eax
100040b5 59              pop     ecx
100040b6 895de0          mov     dword ptr [ebp-20h],ebx
100040b9 85db            test    ebx,ebx
100040bb 750e            jne     100040cb
100040bd 56              push    esi
100040be e889fbffff      call    10003c4c
100040c3 59              pop     ecx
100040c4 33c0            xor     eax,eax
100040c6 e9b2010000      jmp     1000427d
100040cb 57              push    edi
100040cc 33ff            xor     edi,edi
100040ce 8bcf            mov     ecx,edi
100040d0 894de4          mov     dword ptr [ebp-1Ch],ecx
100040d3 8bc7            mov     eax,edi
100040d5 399828f50010    cmp     dword ptr [eax+1000F528h],ebx
100040db 0f84f2000000    je      100041d3
100040e1 41              inc     ecx
100040e2 83c030          add     eax,30h
100040e5 894de4          mov     dword ptr [ebp-1Ch],ecx
100040e8 3df0000000      cmp     eax,0F0h
100040ed 72e6            jb      100040d5
100040ef 81fbe8fd0000    cmp     ebx,0FDE8h
100040f5 0f84d0000000    je      100041cb
100040fb 81fbe9fd0000    cmp     ebx,0FDE9h
10004101 0f84c4000000    je      100041cb
10004107 0fb7c3          movzx   eax,bx
1000410a 50              push    eax
1000410b ff15cca00010    call    dword ptr ds:[1000A0CCh]
10004111 85c0            test    eax,eax
10004113 0f84b2000000    je      100041cb
10004119 8d45e8          lea     eax,[ebp-18h]
1000411c 50              push    eax
1000411d 53              push    ebx
1000411e ff15d8a00010    call    dword ptr ds:[1000A0D8h]
10004124 85c0            test    eax,eax
10004126 0f848c000000    je      100041b8
1000412c 6801010000      push    101h
10004131 8d4618          lea     eax,[esi+18h]
10004134 57              push    edi
10004135 50              push    eax
10004136 e8d50e0000      call    10005010
1000413b 895e04          mov     dword ptr [esi+4],ebx
1000413e 33db            xor     ebx,ebx
10004140 43              inc     ebx
10004141 83c40c          add     esp,0Ch
10004144 89be1c020000    mov     dword ptr [esi+21Ch],edi
1000414a 395de8          cmp     dword ptr [ebp-18h],ebx
1000414d 764f            jbe     1000419e
1000414f 807dee00        cmp     byte ptr [ebp-12h],0
10004153 8d45ee          lea     eax,[ebp-12h]
10004156 7421            je      10004179
10004158 8a5001          mov     dl,byte ptr [eax+1]
1000415b 84d2            test    dl,dl
1000415d 741a            je      10004179
1000415f 0fb608          movzx   ecx,byte ptr [eax]
10004162 0fb6d2          movzx   edx,dl
10004165 eb06            jmp     1000416d
10004167 804c0e1904      or      byte ptr [esi+ecx+19h],4
1000416c 41              inc     ecx
1000416d 3bca            cmp     ecx,edx
1000416f 76f6            jbe     10004167
10004171 83c002          add     eax,2
10004174 803800          cmp     byte ptr [eax],0
10004177 75df            jne     10004158
10004179 8d461a          lea     eax,[esi+1Ah]
1000417c b9fe000000      mov     ecx,0FEh
10004181 800808          or      byte ptr [eax],8
10004184 40              inc     eax
10004185 49              dec     ecx
10004186 75f9            jne     10004181
10004188 ff7604          push    dword ptr [esi+4]
1000418b e816faffff      call    10003ba6
10004190 83c404          add     esp,4
10004193 89861c020000    mov     dword ptr [esi+21Ch],eax
10004199 895e08          mov     dword ptr [esi+8],ebx
1000419c eb03            jmp     100041a1
1000419e 897e08          mov     dword ptr [esi+8],edi
100041a1 33c0            xor     eax,eax
100041a3 0fb7c8          movzx   ecx,ax
100041a6 8bc1            mov     eax,ecx
100041a8 c1e110          shl     ecx,10h
100041ab 0bc1            or      eax,ecx
100041ad 8d7e0c          lea     edi,[esi+0Ch]
100041b0 ab              stos    dword ptr es:[edi]
100041b1 ab              stos    dword ptr es:[edi]
100041b2 ab              stos    dword ptr es:[edi]
100041b3 e9bb000000      jmp     10004273
100041b8 393d208d0010    cmp     dword ptr ds:[10008D20h],edi
100041be 740b            je      100041cb
100041c0 56              push    esi
100041c1 e886faffff      call    10003c4c
100041c6 e9ae000000      jmp     10004279
100041cb 83c8ff          or      eax,0FFFFFFFFh
100041ce e9a9000000      jmp     1000427c
100041d3 6801010000      push    101h
100041d8 8d4618          lea     eax,[esi+18h]
100041db 57              push    edi
100041dc 50              push    eax
100041dd e82e0e0000      call    10005010
100041e2 8b55e4          mov     edx,dword ptr [ebp-1Ch]
100041e5 83c40c          add     esp,0Ch
100041e8 6bd230          imul    edx,edx,30h
100041eb 8d8238f50010    lea     eax,[edx+1000F538h]
100041f1 8945e4          mov     dword ptr [ebp-1Ch],eax
100041f4 803800          cmp     byte ptr [eax],0
100041f7 8bc8            mov     ecx,eax
100041f9 7435            je      10004230
100041fb 8a4101          mov     al,byte ptr [ecx+1]
100041fe 84c0            test    al,al
10004200 742b            je      1000422d
10004202 0fb619          movzx   ebx,byte ptr [ecx]
10004205 0fb6c0          movzx   eax,al
10004208 eb17            jmp     10004221
1000420a 81fb00010000    cmp     ebx,100h
10004210 7313            jae     10004225
10004212 8a8724f50010    mov     al,byte ptr [edi+1000F524h]
10004218 08441e19        or      byte ptr [esi+ebx+19h],al
1000421c 0fb64101        movzx   eax,byte ptr [ecx+1]
10004220 43              inc     ebx
10004221 3bd8            cmp     ebx,eax
10004223 76e5            jbe     1000420a
10004225 83c102          add     ecx,2
10004228 803900          cmp     byte ptr [ecx],0
1000422b 75ce            jne     100041fb
1000422d 8b45e4          mov     eax,dword ptr [ebp-1Ch]
10004230 47              inc     edi
10004231 83c008          add     eax,8
10004234 8945e4          mov     dword ptr [ebp-1Ch],eax
10004237 83ff04          cmp     edi,4
1000423a 72b8            jb      100041f4
1000423c 8b5de0          mov     ebx,dword ptr [ebp-20h]
1000423f 53              push    ebx
10004240 895e04          mov     dword ptr [esi+4],ebx
10004243 c7460801000000  mov     dword ptr [esi+8],1
1000424a e857f9ffff      call    10003ba6
1000424f 83c404          add     esp,4
10004252 89861c020000    mov     dword ptr [esi+21Ch],eax
10004258 6a06            push    6
1000425a 8d4e0c          lea     ecx,[esi+0Ch]
1000425d 8d922cf50010    lea     edx,[edx+1000F52Ch]
10004263 5f              pop     edi
10004264 668b02          mov     ax,word ptr [edx]
10004267 668901          mov     word ptr [ecx],ax
1000426a 8d5202          lea     edx,[edx+2]
1000426d 8d4902          lea     ecx,[ecx+2]
10004270 4f              dec     edi
10004271 75f1            jne     10004264
10004273 56              push    esi
10004274 e83cfaffff      call    10003cb5
10004279 59              pop     ecx
1000427a 33c0            xor     eax,eax
1000427c 5f              pop     edi
1000427d 8b4dfc          mov     ecx,dword ptr [ebp-4]
10004280 5e              pop     esi
10004281 33cd            xor     ecx,ebp
10004283 5b              pop     ebx
10004284 e89fd3ffff      call    10001628
10004289 c9              leave
1000428a c3              ret
1000428b cc              int     3
1000428c cc              int     3
1000428d cc              int     3
1000428e cc              int     3
1000428f cc              int     3
10004290 55              push    ebp
10004291 8bec            mov     ebp,esp
10004293 8b4508          mov     eax,dword ptr [ebp+8]
10004296 53              push    ebx
10004297 8b483c          mov     ecx,dword ptr [eax+3Ch]
1000429a 03c8            add     ecx,eax
1000429c 56              push    esi
1000429d 0fb74114        movzx   eax,word ptr [ecx+14h]
100042a1 0fb75906        movzx   ebx,word ptr [ecx+6]
100042a5 83c018          add     eax,18h
100042a8 33d2            xor     edx,edx
100042aa 03c1            add     eax,ecx
100042ac 57              push    edi
100042ad 85db            test    ebx,ebx
100042af 741b            je      100042cc
100042b1 8b7d0c          mov     edi,dword ptr [ebp+0Ch]
100042b4 8b700c          mov     esi,dword ptr [eax+0Ch]
100042b7 3bfe            cmp     edi,esi
100042b9 7209            jb      100042c4
100042bb 8b4808          mov     ecx,dword ptr [eax+8]
100042be 03ce            add     ecx,esi
100042c0 3bf9            cmp     edi,ecx
100042c2 720a            jb      100042ce
100042c4 42              inc     edx
100042c5 83c028          add     eax,28h
100042c8 3bd3            cmp     edx,ebx
100042ca 72e8            jb      100042b4
100042cc 33c0            xor     eax,eax
100042ce 5f              pop     edi
100042cf 5e              pop     esi
100042d0 5b              pop     ebx
100042d1 5d              pop     ebp
100042d2 c3              ret
100042d3 cc              int     3
100042d4 cc              int     3
100042d5 cc              int     3
100042d6 cc              int     3
100042d7 cc              int     3
100042d8 cc              int     3
100042d9 cc              int     3
100042da cc              int     3
100042db cc              int     3
100042dc cc              int     3
100042dd cc              int     3
100042de cc              int     3
100042df cc              int     3
100042e0 55              push    ebp
100042e1 8bec            mov     ebp,esp
100042e3 6afe            push    0FFFFFFFEh
100042e5 6800de0010      push    1000DE00h
100042ea 68f0300010      push    100030F0h
100042ef 64a100000000    mov     eax,dword ptr fs:[00000000h]
100042f5 50              push    eax
100042f6 83ec08          sub     esp,8
100042f9 53              push    ebx
100042fa 56              push    esi
100042fb 57              push    edi
100042fc a100f00010      mov     eax,dword ptr ds:[1000F000h]
10004301 3145f8          xor     dword ptr [ebp-8],eax
10004304 33c5            xor     eax,ebp
10004306 50              push    eax
10004307 8d45f0          lea     eax,[ebp-10h]
1000430a 64a300000000    mov     dword ptr fs:[00000000h],eax
10004310 8965e8          mov     dword ptr [ebp-18h],esp
10004313 c745fc00000000  mov     dword ptr [ebp-4],0
1000431a 6800000010      push    10000000h
1000431f e87c000000      call    100043a0
10004324 83c404          add     esp,4
10004327 85c0            test    eax,eax
10004329 7454            je      1000437f
1000432b 8b4508          mov     eax,dword ptr [ebp+8]
1000432e 2d00000010      sub     eax,10000000h
10004333 50              push    eax
10004334 6800000010      push    10000000h
10004339 e852ffffff      call    10004290
1000433e 83c408          add     esp,8
10004341 85c0            test    eax,eax
10004343 743a            je      1000437f
10004345 8b4024          mov     eax,dword ptr [eax+24h]
10004348 c1e81f          shr     eax,1Fh
1000434b f7d0            not     eax
1000434d 83e001          and     eax,1
10004350 c745fcfeffffff  mov     dword ptr [ebp-4],0FFFFFFFEh
10004357 8b4df0          mov     ecx,dword ptr [ebp-10h]
1000435a 64890d00000000  mov     dword ptr fs:[0],ecx
10004361 59              pop     ecx
10004362 5f              pop     edi
10004363 5e              pop     esi
10004364 5b              pop     ebx
10004365 8be5            mov     esp,ebp
10004367 5d              pop     ebp
10004368 c3              ret
10004369 8b45ec          mov     eax,dword ptr [ebp-14h]
1000436c 8b00            mov     eax,dword ptr [eax]
1000436e 33c9            xor     ecx,ecx
10004370 8138050000c0    cmp     dword ptr [eax],0C0000005h
10004376 0f94c1          sete    cl
10004379 8bc1            mov     eax,ecx
1000437b c3              ret
1000437c 8b65e8          mov     esp,dword ptr [ebp-18h]
1000437f c745fcfeffffff  mov     dword ptr [ebp-4],0FFFFFFFEh
10004386 33c0            xor     eax,eax
10004388 8b4df0          mov     ecx,dword ptr [ebp-10h]
1000438b 64890d00000000  mov     dword ptr fs:[0],ecx
10004392 59              pop     ecx
10004393 5f              pop     edi
10004394 5e              pop     esi
10004395 5b              pop     ebx
10004396 8be5            mov     esp,ebp
10004398 5d              pop     ebp
10004399 c3              ret
1000439a cc              int     3
1000439b cc              int     3
1000439c cc              int     3
1000439d cc              int     3
1000439e cc              int     3
1000439f cc              int     3
100043a0 55              push    ebp
100043a1 8bec            mov     ebp,esp
100043a3 8b4508          mov     eax,dword ptr [ebp+8]
100043a6 b94d5a0000      mov     ecx,5A4Dh
100043ab 663908          cmp     word ptr [eax],cx
100043ae 7404            je      100043b4
100043b0 33c0            xor     eax,eax
100043b2 5d              pop     ebp
100043b3 c3              ret
100043b4 8b483c          mov     ecx,dword ptr [eax+3Ch]
100043b7 03c8            add     ecx,eax
100043b9 33c0            xor     eax,eax
100043bb 813950450000    cmp     dword ptr [ecx],4550h
100043c1 750c            jne     100043cf
100043c3 ba0b010000      mov     edx,10Bh
100043c8 66395118        cmp     word ptr [ecx+18h],dx
100043cc 0f94c0          sete    al
100043cf 5d              pop     ebp
100043d0 c3              ret
100043d1 56              push    esi
100043d2 6a04            push    4
100043d4 6a20            push    20h
100043d6 e892ebffff      call    10002f6d
100043db 59              pop     ecx
100043dc 59              pop     ecx
100043dd 8bf0            mov     esi,eax
100043df 56              push    esi
100043e0 ff1548a00010    call    dword ptr ds:[1000A048h]
100043e6 a3409e0010      mov     dword ptr ds:[10009E40h],eax
100043eb a33c9e0010      mov     dword ptr ds:[10009E3Ch],eax
100043f0 85f6            test    esi,esi
100043f2 7505            jne     100043f9
100043f4 6a18            push    18h
100043f6 58              pop     eax
100043f7 5e              pop     esi
100043f8 c3              ret
100043f9 832600          and     dword ptr [esi],0
100043fc 33c0            xor     eax,eax
100043fe 5e              pop     esi
100043ff c3              ret
10004400 6a0c            push    0Ch
10004402 6820de0010      push    1000DE20h
10004407 e884ecffff      call    10003090
1000440c e8c2dfffff      call    100023d3
10004411 8365fc00        and     dword ptr [ebp-4],0
10004415 ff7508          push    dword ptr [ebp+8]
10004418 e823000000      call    10004440
1000441d 59              pop     ecx
1000441e 8bf0            mov     esi,eax
10004420 8975e4          mov     dword ptr [ebp-1Ch],esi
10004423 c745fcfeffffff  mov     dword ptr [ebp-4],0FFFFFFFEh
1000442a e80b000000      call    1000443a
1000442f 8bc6            mov     eax,esi
10004431 e89fecffff      call    100030d5
10004436 c3              ret
10004437 8b75e4          mov     esi,dword ptr [ebp-1Ch]
1000443a e89ddfffff      call    100023dc
1000443f c3              ret
10004440 55              push    ebp
10004441 8bec            mov     ebp,esp
10004443 51              push    ecx
10004444 53              push    ebx
10004445 56              push    esi
10004446 8b354ca00010    mov     esi,dword ptr ds:[1000A04Ch]
1000444c 57              push    edi
1000444d ff35409e0010    push    dword ptr ds:[10009E40h]
10004453 ffd6            call    esi
10004455 ff353c9e0010    push    dword ptr ds:[10009E3Ch]
1000445b 8945fc          mov     dword ptr [ebp-4],eax
1000445e ffd6            call    esi
10004460 8bd8            mov     ebx,eax
10004462 8b45fc          mov     eax,dword ptr [ebp-4]
10004465 3bd8            cmp     ebx,eax
10004467 0f8282000000    jb      100044ef
1000446d 8bfb            mov     edi,ebx
1000446f 2bf8            sub     edi,eax
10004471 8d4f04          lea     ecx,[edi+4]
10004474 83f904          cmp     ecx,4
10004477 7276            jb      100044ef
10004479 50              push    eax
1000447a e879140000      call    100058f8
1000447f 8bf0            mov     esi,eax
10004481 8d4704          lea     eax,[edi+4]
10004484 59              pop     ecx
10004485 3bf0            cmp     esi,eax
10004487 7347            jae     100044d0
10004489 b800080000      mov     eax,800h
1000448e 3bf0            cmp     esi,eax
10004490 7302            jae     10004494
10004492 8bc6            mov     eax,esi
10004494 8b5dfc          mov     ebx,dword ptr [ebp-4]
10004497 03c6            add     eax,esi
10004499 3bc6            cmp     eax,esi
1000449b 720d            jb      100044aa
1000449d 50              push    eax
1000449e 53              push    ebx
1000449f e85cebffff      call    10003000
100044a4 59              pop     ecx
100044a5 59              pop     ecx
100044a6 85c0            test    eax,eax
100044a8 7514            jne     100044be
100044aa 8d4610          lea     eax,[esi+10h]
100044ad 3bc6            cmp     eax,esi
100044af 723e            jb      100044ef
100044b1 50              push    eax
100044b2 53              push    ebx
100044b3 e848ebffff      call    10003000
100044b8 59              pop     ecx
100044b9 59              pop     ecx
100044ba 85c0            test    eax,eax
100044bc 7431            je      100044ef
100044be c1ff02          sar     edi,2
100044c1 50              push    eax
100044c2 8d1cb8          lea     ebx,[eax+edi*4]
100044c5 ff1548a00010    call    dword ptr ds:[1000A048h]
100044cb a3409e0010      mov     dword ptr ds:[10009E40h],eax
100044d0 ff7508          push    dword ptr [ebp+8]
100044d3 ff1548a00010    call    dword ptr ds:[1000A048h]
100044d9 8d4b04          lea     ecx,[ebx+4]
100044dc 51              push    ecx
100044dd 8903            mov     dword ptr [ebx],eax
100044df ff1548a00010    call    dword ptr ds:[1000A048h]
100044e5 a33c9e0010      mov     dword ptr ds:[10009E3Ch],eax
100044ea 8b4508          mov     eax,dword ptr [ebp+8]
100044ed eb02            jmp     100044f1
100044ef 33c0            xor     eax,eax
100044f1 5f              pop     edi
100044f2 5e              pop     esi
100044f3 5b              pop     ebx
100044f4 c9              leave
100044f5 c3              ret
100044f6 55              push    ebp
100044f7 8bec            mov     ebp,esp
100044f9 ff7508          push    dword ptr [ebp+8]
100044fc e8fffeffff      call    10004400
10004501 f7d8            neg     eax
10004503 1bc0            sbb     eax,eax
10004505 f7d8            neg     eax
10004507 59              pop     ecx
10004508 48              dec     eax
10004509 5d              pop     ebp
1000450a c3              ret
1000450b 56              push    esi
1000450c 33f6            xor     esi,esi
1000450e ffb640fa0010    push    dword ptr [esi+1000FA40h]
10004514 ff1548a00010    call    dword ptr ds:[1000A048h]
1000451a 898640fa0010    mov     dword ptr [esi+1000FA40h],eax
10004520 83c604          add     esi,4
10004523 83fe28          cmp     esi,28h
10004526 72e6            jb      1000450e
10004528 5e              pop     esi
10004529 c3              ret
1000452a 6a08            push    8
1000452c 6840de0010      push    1000DE40h
10004531 e85aebffff      call    10003090
10004536 e82ddaffff      call    10001f68
1000453b 8b4078          mov     eax,dword ptr [eax+78h]
1000453e 85c0            test    eax,eax
10004540 7416            je      10004558
10004542 8365fc00        and     dword ptr [ebp-4],0
10004546 ffd0            call    eax
10004548 eb07            jmp     10004551
1000454a 33c0            xor     eax,eax
1000454c 40              inc     eax
1000454d c3              ret
1000454e 8b65e8          mov     esp,dword ptr [ebp-18h]
10004551 c745fcfeffffff  mov     dword ptr [ebp-4],0FFFFFFFEh
10004558 e8d5130000      call    10005932
1000455d cc              int     3
1000455e 682a450010      push    1000452Ah
10004563 ff1548a00010    call    dword ptr ds:[1000A048h]
10004569 a3248d0010      mov     dword ptr ds:[10008D24h],eax
1000456e c3              ret
1000456f 55              push    ebp
10004570 8bec            mov     ebp,esp
10004572 8b4508          mov     eax,dword ptr [ebp+8]
10004575 a3288d0010      mov     dword ptr ds:[10008D28h],eax
1000457a 5d              pop     ebp
1000457b c3              ret
1000457c 55              push    ebp
1000457d 8bec            mov     ebp,esp
1000457f 8b4508          mov     eax,dword ptr [ebp+8]
10004582 a32c8d0010      mov     dword ptr ds:[10008D2Ch],eax
10004587 5d              pop     ebp
10004588 c3              ret
10004589 ff35388d0010    push    dword ptr ds:[10008D38h]
1000458f ff154ca00010    call    dword ptr ds:[1000A04Ch]
10004595 c3              ret
10004596 55              push    ebp
10004597 8bec            mov     ebp,esp
10004599 8b4508          mov     eax,dword ptr [ebp+8]
1000459c a3308d0010      mov     dword ptr ds:[10008D30h],eax
100045a1 a3348d0010      mov     dword ptr ds:[10008D34h],eax
100045a6 a3388d0010      mov     dword ptr ds:[10008D38h],eax
100045ab a33c8d0010      mov     dword ptr ds:[10008D3Ch],eax
100045b0 5d              pop     ebp
100045b1 c3              ret
100045b2 6a24            push    24h
100045b4 6860de0010      push    1000DE60h
100045b9 e8d2eaffff      call    10003090
100045be 33db            xor     ebx,ebx
100045c0 895de0          mov     dword ptr [ebp-20h],ebx
100045c3 33ff            xor     edi,edi
100045c5 897dd8          mov     dword ptr [ebp-28h],edi
100045c8 8b7508          mov     esi,dword ptr [ebp+8]
100045cb 83fe0b          cmp     esi,0Bh
100045ce 7f50            jg      10004620
100045d0 7415            je      100045e7
100045d2 8bc6            mov     eax,esi
100045d4 6a02            push    2
100045d6 59              pop     ecx
100045d7 2bc1            sub     eax,ecx
100045d9 7422            je      100045fd
100045db 2bc1            sub     eax,ecx
100045dd 7408            je      100045e7
100045df 2bc1            sub     eax,ecx
100045e1 745e            je      10004641
100045e3 2bc1            sub     eax,ecx
100045e5 7548            jne     1000462f
100045e7 e894d9ffff      call    10001f80
100045ec 8bf8            mov     edi,eax
100045ee 897dd8          mov     dword ptr [ebp-28h],edi
100045f1 85ff            test    edi,edi
100045f3 7516            jne     1000460b
100045f5 83c8ff          or      eax,0FFFFFFFFh
100045f8 e964010000      jmp     10004761
100045fd c745e4308d0010  mov     dword ptr [ebp-1Ch],10008D30h
10004604 a1308d0010      mov     eax,dword ptr ds:[10008D30h]
10004609 eb5e            jmp     10004669
1000460b ff775c          push    dword ptr [edi+5Ch]
1000460e 56              push    esi
1000460f e853010000      call    10004767
10004614 59              pop     ecx
10004615 59              pop     ecx
10004616 83c008          add     eax,8
10004619 8945e4          mov     dword ptr [ebp-1Ch],eax
1000461c 8b00            mov     eax,dword ptr [eax]
1000461e eb56            jmp     10004676
10004620 8bc6            mov     eax,esi
10004622 83e80f          sub     eax,0Fh
10004625 7436            je      1000465d
10004627 83e806          sub     eax,6
1000462a 7423            je      1000464f
1000462c 48              dec     eax
1000462d 7412            je      10004641
1000462f e8aad5ffff      call    10001bde
10004634 c70016000000    mov     dword ptr [eax],16h
1000463a e8c1efffff      call    10003600
1000463f ebb4            jmp     100045f5
10004641 c745e4388d0010  mov     dword ptr [ebp-1Ch],10008D38h
10004648 a1388d0010      mov     eax,dword ptr ds:[10008D38h]
1000464d eb1a            jmp     10004669
1000464f c745e4348d0010  mov     dword ptr [ebp-1Ch],10008D34h
10004656 a1348d0010      mov     eax,dword ptr ds:[10008D34h]
1000465b eb0c            jmp     10004669
1000465d c745e43c8d0010  mov     dword ptr [ebp-1Ch],10008D3Ch
10004664 a13c8d0010      mov     eax,dword ptr ds:[10008D3Ch]
10004669 33db            xor     ebx,ebx
1000466b 43              inc     ebx
1000466c 895de0          mov     dword ptr [ebp-20h],ebx
1000466f 50              push    eax
10004670 ff154ca00010    call    dword ptr ds:[1000A04Ch]
10004676 8945dc          mov     dword ptr [ebp-24h],eax
10004679 83f801          cmp     eax,1
1000467c 0f84dd000000    je      1000475f
10004682 85c0            test    eax,eax
10004684 7507            jne     1000468d
10004686 6a03            push    3
10004688 e8bcdcffff      call    10002349
1000468d 85db            test    ebx,ebx
1000468f 7408            je      10004699
10004691 6a00            push    0
10004693 e8a3efffff      call    1000363b
10004698 59              pop     ecx
10004699 8365fc00        and     dword ptr [ebp-4],0
1000469d 83fe08          cmp     esi,8
100046a0 740a            je      100046ac
100046a2 83fe0b          cmp     esi,0Bh
100046a5 7405            je      100046ac
100046a7 83fe04          cmp     esi,4
100046aa 751c            jne     100046c8
100046ac 8b4760          mov     eax,dword ptr [edi+60h]
100046af 8945d0          mov     dword ptr [ebp-30h],eax
100046b2 83676000        and     dword ptr [edi+60h],0
100046b6 83fe08          cmp     esi,8
100046b9 7541            jne     100046fc
100046bb 8b4764          mov     eax,dword ptr [edi+64h]
100046be 8945cc          mov     dword ptr [ebp-34h],eax
100046c1 c747648c000000  mov     dword ptr [edi+64h],8Ch
100046c8 83fe08          cmp     esi,8
100046cb 752f            jne     100046fc
100046cd 8b0d00a20010    mov     ecx,dword ptr ds:[1000A200h]
100046d3 8bd1            mov     edx,ecx
100046d5 8955d4          mov     dword ptr [ebp-2Ch],edx
100046d8 a104a20010      mov     eax,dword ptr ds:[1000A204h]
100046dd 03c1            add     eax,ecx
100046df 3bd0            cmp     edx,eax
100046e1 7d26            jge     10004709
100046e3 8bca            mov     ecx,edx
100046e5 6bc90c          imul    ecx,ecx,0Ch
100046e8 8b475c          mov     eax,dword ptr [edi+5Ch]
100046eb 8364010800      and     dword ptr [ecx+eax+8],0
100046f0 42              inc     edx
100046f1 8955d4          mov     dword ptr [ebp-2Ch],edx
100046f4 8b0d00a20010    mov     ecx,dword ptr ds:[1000A200h]
100046fa ebdc            jmp     100046d8
100046fc 6a00            push    0
100046fe ff1548a00010    call    dword ptr ds:[1000A048h]
10004704 8b4de4          mov     ecx,dword ptr [ebp-1Ch]
10004707 8901            mov     dword ptr [ecx],eax
10004709 c745fcfeffffff  mov     dword ptr [ebp-4],0FFFFFFFEh
10004710 e818000000      call    1000472d
10004715 83fe08          cmp     esi,8
10004718 7520            jne     1000473a
1000471a ff7764          push    dword ptr [edi+64h]
1000471d 56              push    esi
1000471e ff55dc          call    dword ptr [ebp-24h]
10004721 59              pop     ecx
10004722 eb1a            jmp     1000473e
10004724 8b7508          mov     esi,dword ptr [ebp+8]
10004727 8b5de0          mov     ebx,dword ptr [ebp-20h]
1000472a 8b7dd8          mov     edi,dword ptr [ebp-28h]
1000472d 85db            test    ebx,ebx
1000472f 7408            je      10004739
10004731 6a00            push    0
10004733 e867f0ffff      call    1000379f
10004738 59              pop     ecx
10004739 c3              ret
1000473a 56              push    esi
1000473b ff55dc          call    dword ptr [ebp-24h]
1000473e 59              pop     ecx
1000473f 83fe08          cmp     esi,8
10004742 740a            je      1000474e
10004744 83fe0b          cmp     esi,0Bh
10004747 7405            je      1000474e
10004749 83fe04          cmp     esi,4
1000474c 7511            jne     1000475f
1000474e 8b45d0          mov     eax,dword ptr [ebp-30h]
10004751 894760          mov     dword ptr [edi+60h],eax
10004754 83fe08          cmp     esi,8
10004757 7506            jne     1000475f
10004759 8b45cc          mov     eax,dword ptr [ebp-34h]
1000475c 894764          mov     dword ptr [edi+64h],eax
1000475f 33c0            xor     eax,eax
10004761 e86fe9ffff      call    100030d5
10004766 c3              ret
10004767 55              push    ebp
10004768 8bec            mov     ebp,esp
1000476a 8b4d0c          mov     ecx,dword ptr [ebp+0Ch]
1000476d 8b15f8a10010    mov     edx,dword ptr ds:[1000A1F8h]
10004773 56              push    esi
10004774 8b7508          mov     esi,dword ptr [ebp+8]
10004777 397104          cmp     dword ptr [ecx+4],esi
1000477a 740f            je      1000478b
1000477c 8bc2            mov     eax,edx
1000477e 6bc00c          imul    eax,eax,0Ch
10004781 03450c          add     eax,dword ptr [ebp+0Ch]
10004784 83c10c          add     ecx,0Ch
10004787 3bc8            cmp     ecx,eax
10004789 72ec            jb      10004777
1000478b 6bd20c          imul    edx,edx,0Ch
1000478e 03550c          add     edx,dword ptr [ebp+0Ch]
10004791 3bca            cmp     ecx,edx
10004793 7309            jae     1000479e
10004795 397104          cmp     dword ptr [ecx+4],esi
10004798 7504            jne     1000479e
1000479a 8bc1            mov     eax,ecx
1000479c eb02            jmp     100047a0
1000479e 33c0            xor     eax,eax
100047a0 5e              pop     esi
100047a1 5d              pop     ebp
100047a2 c3              ret
100047a3 cc              int     3
100047a4 cc              int     3
100047a5 cc              int     3
100047a6 cc              int     3
100047a7 cc              int     3
100047a8 cc              int     3
100047a9 cc              int     3
100047aa cc              int     3
100047ab cc              int     3
100047ac cc              int     3
100047ad cc              int     3
100047ae cc              int     3
100047af cc              int     3
100047b0 53              push    ebx
100047b1 56              push    esi
100047b2 57              push    edi
100047b3 8b542410        mov     edx,dword ptr [esp+10h]
100047b7 8b442414        mov     eax,dword ptr [esp+14h]
100047bb 8b4c2418        mov     ecx,dword ptr [esp+18h]
100047bf 55              push    ebp
100047c0 52              push    edx
100047c1 50              push    eax
100047c2 51              push    ecx
100047c3 51              push    ecx
100047c4 6840480010      push    10004840h
100047c9 64ff3500000000  push    dword ptr fs:[0]
100047d0 a100f00010      mov     eax,dword ptr ds:[1000F000h]
100047d5 33c4            xor     eax,esp
100047d7 89442408        mov     dword ptr [esp+8],eax
100047db 64892500000000  mov     dword ptr fs:[0],esp
100047e2 8b442430        mov     eax,dword ptr [esp+30h]
100047e6 8b5808          mov     ebx,dword ptr [eax+8]
100047e9 8b4c242c        mov     ecx,dword ptr [esp+2Ch]
100047ed 3319            xor     ebx,dword ptr [ecx]
100047ef 8b700c          mov     esi,dword ptr [eax+0Ch]
100047f2 83fefe          cmp     esi,0FFFFFFFEh
100047f5 743b            je      10004832
100047f7 8b542434        mov     edx,dword ptr [esp+34h]
100047fb 83fafe          cmp     edx,0FFFFFFFEh
100047fe 7404            je      10004804
10004800 3bf2            cmp     esi,edx
10004802 762e            jbe     10004832
10004804 8d3476          lea     esi,[esi+esi*2]
10004807 8d5cb310        lea     ebx,[ebx+esi*4+10h]
1000480b 8b0b            mov     ecx,dword ptr [ebx]
1000480d 89480c          mov     dword ptr [eax+0Ch],ecx
10004810 837b0400        cmp     dword ptr [ebx+4],0
10004814 75cc            jne     100047e2
10004816 6801010000      push    101h
1000481b 8b4308          mov     eax,dword ptr [ebx+8]
1000481e e8021c0000      call    10006425
10004823 b901000000      mov     ecx,1
10004828 8b4308          mov     eax,dword ptr [ebx+8]
1000482b e8141c0000      call    10006444
10004830 ebb0            jmp     100047e2
10004832 648f0500000000  pop     dword ptr fs:[0]
10004839 83c418          add     esp,18h
1000483c 5f              pop     edi
1000483d 5e              pop     esi
1000483e 5b              pop     ebx
1000483f c3              ret
10004840 8b4c2404        mov     ecx,dword ptr [esp+4]
10004844 f7410406000000  test    dword ptr [ecx+4],6
1000484b b801000000      mov     eax,1
10004850 7433            je      10004885
10004852 8b442408        mov     eax,dword ptr [esp+8]
10004856 8b4808          mov     ecx,dword ptr [eax+8]
10004859 33c8            xor     ecx,eax
1000485b e8c8cdffff      call    10001628
10004860 55              push    ebp
10004861 8b6818          mov     ebp,dword ptr [eax+18h]
10004864 ff700c          push    dword ptr [eax+0Ch]
10004867 ff7010          push    dword ptr [eax+10h]
1000486a ff7014          push    dword ptr [eax+14h]
1000486d e83effffff      call    100047b0
10004872 83c40c          add     esp,0Ch
10004875 5d              pop     ebp
10004876 8b442408        mov     eax,dword ptr [esp+8]
1000487a 8b542410        mov     edx,dword ptr [esp+10h]
1000487e 8902            mov     dword ptr [edx],eax
10004880 b803000000      mov     eax,3
10004885 c3              ret
10004886 55              push    ebp
10004887 8b4c2408        mov     ecx,dword ptr [esp+8]
1000488b 8b29            mov     ebp,dword ptr [ecx]
1000488d ff711c          push    dword ptr [ecx+1Ch]
10004890 ff7118          push    dword ptr [ecx+18h]
10004893 ff7128          push    dword ptr [ecx+28h]
10004896 e815ffffff      call    100047b0
1000489b 83c40c          add     esp,0Ch
1000489e 5d              pop     ebp
1000489f c20400          ret     4
100048a2 55              push    ebp
100048a3 56              push    esi
100048a4 57              push    edi
100048a5 53              push    ebx
100048a6 8bea            mov     ebp,edx
100048a8 33c0            xor     eax,eax
100048aa 33db            xor     ebx,ebx
100048ac 33d2            xor     edx,edx
100048ae 33f6            xor     esi,esi
100048b0 33ff            xor     edi,edi
100048b2 ffd1            call    ecx
100048b4 5b              pop     ebx
100048b5 5f              pop     edi
100048b6 5e              pop     esi
100048b7 5d              pop     ebp
100048b8 c3              ret
100048b9 8bea            mov     ebp,edx
100048bb 8bf1            mov     esi,ecx
100048bd 8bc1            mov     eax,ecx
100048bf 6a01            push    1
100048c1 e85f1b0000      call    10006425
100048c6 33c0            xor     eax,eax
100048c8 33db            xor     ebx,ebx
100048ca 33c9            xor     ecx,ecx
100048cc 33d2            xor     edx,edx
100048ce 33ff            xor     edi,edi
100048d0 ffe6            jmp     esi
100048d2 55              push    ebp
100048d3 8bec            mov     ebp,esp
100048d5 53              push    ebx
100048d6 56              push    esi
100048d7 57              push    edi
100048d8 6a00            push    0
100048da 52              push    edx
100048db 68e6480010      push    100048E6h
100048e0 51              push    ecx
100048e1 e8e42f0000      call    100078ca
100048e6 5f              pop     edi
100048e7 5e              pop     esi
100048e8 5b              pop     ebx
100048e9 5d              pop     ebp
100048ea c3              ret
100048eb 55              push    ebp
100048ec 8b6c2408        mov     ebp,dword ptr [esp+8]
100048f0 52              push    edx
100048f1 51              push    ecx
100048f2 ff742414        push    dword ptr [esp+14h]
100048f6 e8b5feffff      call    100047b0
100048fb 83c40c          add     esp,0Ch
100048fe 5d              pop     ebp
100048ff c20800          ret     8
10004902 a18c8d0010      mov     eax,dword ptr ds:[10008D8Ch]
10004907 56              push    esi
10004908 6a14            push    14h
1000490a 5e              pop     esi
1000490b 85c0            test    eax,eax
1000490d 7507            jne     10004916
1000490f b800020000      mov     eax,200h
10004914 eb06            jmp     1000491c
10004916 3bc6            cmp     eax,esi
10004918 7d07            jge     10004921
1000491a 8bc6            mov     eax,esi
1000491c a38c8d0010      mov     dword ptr ds:[10008D8Ch],eax
10004921 6a04            push    4
10004923 50              push    eax
10004924 e844e6ffff      call    10002f6d
10004929 59              pop     ecx
1000492a 59              pop     ecx
1000492b a3888d0010      mov     dword ptr ds:[10008D88h],eax
10004930 85c0            test    eax,eax
10004932 751e            jne     10004952
10004934 6a04            push    4
10004936 56              push    esi
10004937 89358c8d0010    mov     dword ptr ds:[10008D8Ch],esi
1000493d e82be6ffff      call    10002f6d
10004942 59              pop     ecx
10004943 59              pop     ecx
10004944 a3888d0010      mov     dword ptr ds:[10008D88h],eax
10004949 85c0            test    eax,eax
1000494b 7505            jne     10004952
1000494d 6a1a            push    1Ah
1000494f 58              pop     eax
10004950 5e              pop     esi
10004951 c3              ret
10004952 33d2            xor     edx,edx
10004954 b970fa0010      mov     ecx,1000FA70h
10004959 890c02          mov     dword ptr [edx+eax],ecx
1000495c 83c120          add     ecx,20h
1000495f 8d5204          lea     edx,[edx+4]
10004962 81f9f0fc0010    cmp     ecx,1000FCF0h
10004968 7d07            jge     10004971
1000496a a1888d0010      mov     eax,dword ptr ds:[10008D88h]
1000496f ebe8            jmp     10004959
10004971 33c0            xor     eax,eax
10004973 5e              pop     esi
10004974 c3              ret
10004975 e89c180000      call    10006216
1000497a 803d4083001000  cmp     byte ptr ds:[10008340h],0
10004981 7405            je      10004988
10004983 e8bf1a0000      call    10006447
10004988 ff35888d0010    push    dword ptr ds:[10008D88h]
1000498e e84fcdffff      call    100016e2
10004993 8325888d001000  and     dword ptr ds:[10008D88h],0
1000499a 59              pop     ecx
1000499b c3              ret
1000499c 55              push    ebp
1000499d 8bec            mov     ebp,esp
1000499f 56              push    esi
100049a0 8b7508          mov     esi,dword ptr [ebp+8]
100049a3 b970fa0010      mov     ecx,1000FA70h
100049a8 3bf1            cmp     esi,ecx
100049aa 7222            jb      100049ce
100049ac 81fed0fc0010    cmp     esi,1000FCD0h
100049b2 771a            ja      100049ce
100049b4 8bc6            mov     eax,esi
100049b6 2bc1            sub     eax,ecx
100049b8 c1f805          sar     eax,5
100049bb 83c010          add     eax,10h
100049be 50              push    eax
100049bf e877ecffff      call    1000363b
100049c4 814e0c00800000  or      dword ptr [esi+0Ch],8000h
100049cb 59              pop     ecx
100049cc eb0a            jmp     100049d8
100049ce 8d4620          lea     eax,[esi+20h]
100049d1 50              push    eax
100049d2 ff15c4a00010    call    dword ptr ds:[1000A0C4h]
100049d8 5e              pop     esi
100049d9 5d              pop     ebp
100049da c3              ret
100049db 55              push    ebp
100049dc 8bec            mov     ebp,esp
100049de 8b4508          mov     eax,dword ptr [ebp+8]
100049e1 83f814          cmp     eax,14h
100049e4 7d16            jge     100049fc
100049e6 83c010          add     eax,10h
100049e9 50              push    eax
100049ea e84cecffff      call    1000363b
100049ef 8b450c          mov     eax,dword ptr [ebp+0Ch]
100049f2 59              pop     ecx
100049f3 81480c00800000  or      dword ptr [eax+0Ch],8000h
100049fa 5d              pop     ebp
100049fb c3              ret
100049fc 8b450c          mov     eax,dword ptr [ebp+0Ch]
100049ff 83c020          add     eax,20h
10004a02 50              push    eax
10004a03 ff15c4a00010    call    dword ptr ds:[1000A0C4h]
10004a09 5d              pop     ebp
10004a0a c3              ret
10004a0b 55              push    ebp
10004a0c 8bec            mov     ebp,esp
10004a0e 8b4508          mov     eax,dword ptr [ebp+8]
10004a11 b970fa0010      mov     ecx,1000FA70h
10004a16 3bc1            cmp     eax,ecx
10004a18 721f            jb      10004a39
10004a1a 3dd0fc0010      cmp     eax,1000FCD0h
10004a1f 7718            ja      10004a39
10004a21 81600cff7fffff  and     dword ptr [eax+0Ch],0FFFF7FFFh
10004a28 2bc1            sub     eax,ecx
10004a2a c1f805          sar     eax,5
10004a2d 83c010          add     eax,10h
10004a30 50              push    eax
10004a31 e869edffff      call    1000379f
10004a36 59              pop     ecx
10004a37 5d              pop     ebp
10004a38 c3              ret
10004a39 83c020          add     eax,20h
10004a3c 50              push    eax
10004a3d ff15c8a00010    call    dword ptr ds:[1000A0C8h]
10004a43 5d              pop     ebp
10004a44 c3              ret
10004a45 55              push    ebp
10004a46 8bec            mov     ebp,esp
10004a48 8b4d08          mov     ecx,dword ptr [ebp+8]
10004a4b 8b450c          mov     eax,dword ptr [ebp+0Ch]
10004a4e 83f914          cmp     ecx,14h
10004a51 7d13            jge     10004a66
10004a53 81600cff7fffff  and     dword ptr [eax+0Ch],0FFFF7FFFh
10004a5a 8d4110          lea     eax,[ecx+10h]
10004a5d 50              push    eax
10004a5e e83cedffff      call    1000379f
10004a63 59              pop     ecx
10004a64 5d              pop     ebp
10004a65 c3              ret
10004a66 83c020          add     eax,20h
10004a69 50              push    eax
10004a6a ff15c8a00010    call    dword ptr ds:[1000A0C8h]
10004a70 5d              pop     ebp
10004a71 c3              ret
10004a72 55              push    ebp
10004a73 8bec            mov     ebp,esp
10004a75 83ec10          sub     esp,10h
10004a78 56              push    esi
10004a79 ff7508          push    dword ptr [ebp+8]
10004a7c 8d4df0          lea     ecx,[ebp-10h]
10004a7f e89af0ffff      call    10003b1e
10004a84 0fb6750c        movzx   esi,byte ptr [ebp+0Ch]
10004a88 8b45f4          mov     eax,dword ptr [ebp-0Ch]
10004a8b 8a4d14          mov     cl,byte ptr [ebp+14h]
10004a8e 844c3019        test    byte ptr [eax+esi+19h],cl
10004a92 751f            jne     10004ab3
10004a94 33d2            xor     edx,edx
10004a96 395510          cmp     dword ptr [ebp+10h],edx
10004a99 7412            je      10004aad
10004a9b 8b45f0          mov     eax,dword ptr [ebp-10h]
10004a9e 8b8090000000    mov     eax,dword ptr [eax+90h]
10004aa4 0fb70470        movzx   eax,word ptr [eax+esi*2]
10004aa8 234510          and     eax,dword ptr [ebp+10h]
10004aab eb02            jmp     10004aaf
10004aad 8bc2            mov     eax,edx
10004aaf 85c0            test    eax,eax
10004ab1 7403            je      10004ab6
10004ab3 33d2            xor     edx,edx
10004ab5 42              inc     edx
10004ab6 807dfc00        cmp     byte ptr [ebp-4],0
10004aba 5e              pop     esi
10004abb 7407            je      10004ac4
10004abd 8b4df8          mov     ecx,dword ptr [ebp-8]
10004ac0 836170fd        and     dword ptr [ecx+70h],0FFFFFFFDh
10004ac4 8bc2            mov     eax,edx
10004ac6 c9              leave
10004ac7 c3              ret
10004ac8 55              push    ebp
10004ac9 8bec            mov     ebp,esp
10004acb 6a04            push    4
10004acd 6a00            push    0
10004acf ff7508          push    dword ptr [ebp+8]
10004ad2 6a00            push    0
10004ad4 e899ffffff      call    10004a72
10004ad9 83c410          add     esp,10h
10004adc 5d              pop     ebp
10004add c3              ret
10004ade 55              push    ebp
10004adf 8bec            mov     ebp,esp
10004ae1 56              push    esi
10004ae2 8b7508          mov     esi,dword ptr [ebp+8]
10004ae5 85f6            test    esi,esi
10004ae7 7410            je      10004af9
10004ae9 8b550c          mov     edx,dword ptr [ebp+0Ch]
10004aec 85d2            test    edx,edx
10004aee 7409            je      10004af9
10004af0 8b4d10          mov     ecx,dword ptr [ebp+10h]
10004af3 85c9            test    ecx,ecx
10004af5 7516            jne     10004b0d
10004af7 880e            mov     byte ptr [esi],cl
10004af9 e8e0d0ffff      call    10001bde
10004afe 6a16            push    16h
10004b00 5e              pop     esi
10004b01 8930            mov     dword ptr [eax],esi
10004b03 e8f8eaffff      call    10003600
10004b08 8bc6            mov     eax,esi
10004b0a 5e              pop     esi
10004b0b 5d              pop     ebp
10004b0c c3              ret
10004b0d 57              push    edi
10004b0e 8bfe            mov     edi,esi
10004b10 2bf9            sub     edi,ecx
10004b12 8a01            mov     al,byte ptr [ecx]
10004b14 88040f          mov     byte ptr [edi+ecx],al
10004b17 41              inc     ecx
10004b18 84c0            test    al,al
10004b1a 7403            je      10004b1f
10004b1c 4a              dec     edx
10004b1d 75f3            jne     10004b12
10004b1f 5f              pop     edi
10004b20 85d2            test    edx,edx
10004b22 750b            jne     10004b2f
10004b24 8816            mov     byte ptr [esi],dl
10004b26 e8b3d0ffff      call    10001bde
10004b2b 6a22            push    22h
10004b2d ebd1            jmp     10004b00
10004b2f 33c0            xor     eax,eax
10004b31 ebd7            jmp     10004b0a
10004b33 cc              int     3
10004b34 cc              int     3
10004b35 cc              int     3
10004b36 cc              int     3
10004b37 cc              int     3
10004b38 cc              int     3
10004b39 cc              int     3
10004b3a cc              int     3
10004b3b cc              int     3
10004b3c cc              int     3
10004b3d cc              int     3
10004b3e cc              int     3
10004b3f cc              int     3
10004b40 8b4c2404        mov     ecx,dword ptr [esp+4]
10004b44 f7c103000000    test    ecx,3
10004b4a 7424            je      10004b70
10004b4c 8a01            mov     al,byte ptr [ecx]
10004b4e 83c101          add     ecx,1
10004b51 84c0            test    al,al
10004b53 744e            je      10004ba3
10004b55 f7c103000000    test    ecx,3
10004b5b 75ef            jne     10004b4c
10004b5d 0500000000      add     eax,0
10004b62 8da42400000000  lea     esp,[esp]
10004b69 8da42400000000  lea     esp,[esp]
10004b70 8b01            mov     eax,dword ptr [ecx]
10004b72 bafffefe7e      mov     edx,7EFEFEFFh
10004b77 03d0            add     edx,eax
10004b79 83f0ff          xor     eax,0FFFFFFFFh
10004b7c 33c2            xor     eax,edx
10004b7e 83c104          add     ecx,4
10004b81 a900010181      test    eax,81010100h
10004b86 74e8            je      10004b70
10004b88 8b41fc          mov     eax,dword ptr [ecx-4]
10004b8b 84c0            test    al,al
10004b8d 7432            je      10004bc1
10004b8f 84e4            test    ah,ah
10004b91 7424            je      10004bb7
10004b93 a90000ff00      test    eax,0FF0000h
10004b98 7413            je      10004bad
10004b9a a9000000ff      test    eax,0FF000000h
10004b9f 7402            je      10004ba3
10004ba1 ebcd            jmp     10004b70
10004ba3 8d41ff          lea     eax,[ecx-1]
10004ba6 8b4c2404        mov     ecx,dword ptr [esp+4]
10004baa 2bc1            sub     eax,ecx
10004bac c3              ret
10004bad 8d41fe          lea     eax,[ecx-2]
10004bb0 8b4c2404        mov     ecx,dword ptr [esp+4]
10004bb4 2bc1            sub     eax,ecx
10004bb6 c3              ret
10004bb7 8d41fd          lea     eax,[ecx-3]
10004bba 8b4c2404        mov     ecx,dword ptr [esp+4]
10004bbe 2bc1            sub     eax,ecx
10004bc0 c3              ret
10004bc1 8d41fc          lea     eax,[ecx-4]
10004bc4 8b4c2404        mov     ecx,dword ptr [esp+4]
10004bc8 2bc1            sub     eax,ecx
10004bca c3              ret
10004bcb 55              push    ebp
10004bcc 8bec            mov     ebp,esp
10004bce 56              push    esi
10004bcf 8b7508          mov     esi,dword ptr [ebp+8]
10004bd2 85f6            test    esi,esi
10004bd4 741b            je      10004bf1
10004bd6 6ae0            push    0FFFFFFE0h
10004bd8 33d2            xor     edx,edx
10004bda 58              pop     eax
10004bdb f7f6            div     eax,esi
10004bdd 3b450c          cmp     eax,dword ptr [ebp+0Ch]
10004be0 730f            jae     10004bf1
10004be2 e8f7cfffff      call    10001bde
10004be7 c7000c000000    mov     dword ptr [eax],0Ch
10004bed 33c0            xor     eax,eax
10004bef eb51            jmp     10004c42
10004bf1 0faf750c        imul    esi,dword ptr [ebp+0Ch]
10004bf5 85f6            test    esi,esi
10004bf7 7501            jne     10004bfa
10004bf9 46              inc     esi
10004bfa 33c9            xor     ecx,ecx
10004bfc 83fee0          cmp     esi,0FFFFFFE0h
10004bff 7715            ja      10004c16
10004c01 56              push    esi
10004c02 6a08            push    8
10004c04 ff3534830010    push    dword ptr ds:[10008334h]
10004c0a ff1520a00010    call    dword ptr ds:[1000A020h]
10004c10 8bc8            mov     ecx,eax
10004c12 85c9            test    ecx,ecx
10004c14 752a            jne     10004c40
10004c16 833d3883001000  cmp     dword ptr ds:[10008338h],0
10004c1d 7414            je      10004c33
10004c1f 56              push    esi
10004c20 e80dd0ffff      call    10001c32
10004c25 59              pop     ecx
10004c26 85c0            test    eax,eax
10004c28 75d0            jne     10004bfa
10004c2a 8b4510          mov     eax,dword ptr [ebp+10h]
10004c2d 85c0            test    eax,eax
10004c2f 74bc            je      10004bed
10004c31 ebb4            jmp     10004be7
10004c33 8b4510          mov     eax,dword ptr [ebp+10h]
10004c36 85c0            test    eax,eax
10004c38 7406            je      10004c40
10004c3a c7000c000000    mov     dword ptr [eax],0Ch
10004c40 8bc1            mov     eax,ecx
10004c42 5e              pop     esi
10004c43 5d              pop     ebp
10004c44 c3              ret
10004c45 55              push    ebp
10004c46 8bec            mov     ebp,esp
10004c48 56              push    esi
10004c49 57              push    edi
10004c4a 8b7d08          mov     edi,dword ptr [ebp+8]
10004c4d 85ff            test    edi,edi
10004c4f 7413            je      10004c64
10004c51 8b4d0c          mov     ecx,dword ptr [ebp+0Ch]
10004c54 85c9            test    ecx,ecx
10004c56 740c            je      10004c64
10004c58 8b5510          mov     edx,dword ptr [ebp+10h]
10004c5b 85d2            test    edx,edx
10004c5d 751a            jne     10004c79
10004c5f 33c0            xor     eax,eax
10004c61 668907          mov     word ptr [edi],ax
10004c64 e875cfffff      call    10001bde
10004c69 6a16            push    16h
10004c6b 5e              pop     esi
10004c6c 8930            mov     dword ptr [eax],esi
10004c6e e88de9ffff      call    10003600
10004c73 8bc6            mov     eax,esi
10004c75 5f              pop     edi
10004c76 5e              pop     esi
10004c77 5d              pop     ebp
10004c78 c3              ret
10004c79 8bf7            mov     esi,edi
10004c7b 66833e00        cmp     word ptr [esi],0
10004c7f 7406            je      10004c87
10004c81 83c602          add     esi,2
10004c84 49              dec     ecx
10004c85 75f4            jne     10004c7b
10004c87 85c9            test    ecx,ecx
10004c89 74d4            je      10004c5f
10004c8b 2bf2            sub     esi,edx
10004c8d 0fb702          movzx   eax,word ptr [edx]
10004c90 66890416        mov     word ptr [esi+edx],ax
10004c94 8d5202          lea     edx,[edx+2]
10004c97 6685c0          test    ax,ax
10004c9a 7403            je      10004c9f
10004c9c 49              dec     ecx
10004c9d 75ee            jne     10004c8d
10004c9f 33c0            xor     eax,eax
10004ca1 85c9            test    ecx,ecx
10004ca3 75d0            jne     10004c75
10004ca5 668907          mov     word ptr [edi],ax
10004ca8 e831cfffff      call    10001bde
10004cad 6a22            push    22h
10004caf ebba            jmp     10004c6b
10004cb1 55              push    ebp
10004cb2 8bec            mov     ebp,esp
10004cb4 56              push    esi
10004cb5 8b7508          mov     esi,dword ptr [ebp+8]
10004cb8 85f6            test    esi,esi
10004cba 7413            je      10004ccf
10004cbc 8b550c          mov     edx,dword ptr [ebp+0Ch]
10004cbf 85d2            test    edx,edx
10004cc1 740c            je      10004ccf
10004cc3 8b4d10          mov     ecx,dword ptr [ebp+10h]
10004cc6 85c9            test    ecx,ecx
10004cc8 7519            jne     10004ce3
10004cca 33c0            xor     eax,eax
10004ccc 668906          mov     word ptr [esi],ax
10004ccf e80acfffff      call    10001bde
10004cd4 6a16            push    16h
10004cd6 5e              pop     esi
10004cd7 8930            mov     dword ptr [eax],esi
10004cd9 e822e9ffff      call    10003600
10004cde 8bc6            mov     eax,esi
10004ce0 5e              pop     esi
10004ce1 5d              pop     ebp
10004ce2 c3              ret
10004ce3 57              push    edi
10004ce4 8bfe            mov     edi,esi
10004ce6 2bf9            sub     edi,ecx
10004ce8 0fb701          movzx   eax,word ptr [ecx]
10004ceb 6689040f        mov     word ptr [edi+ecx],ax
10004cef 8d4902          lea     ecx,[ecx+2]
10004cf2 6685c0          test    ax,ax
10004cf5 7403            je      10004cfa
10004cf7 4a              dec     edx
10004cf8 75ee            jne     10004ce8
10004cfa 33c0            xor     eax,eax
10004cfc 5f              pop     edi
10004cfd 85d2            test    edx,edx
10004cff 75df            jne     10004ce0
10004d01 668906          mov     word ptr [esi],ax
10004d04 e8d5ceffff      call    10001bde
10004d09 6a22            push    22h
10004d0b ebc9            jmp     10004cd6
10004d0d 55              push    ebp
10004d0e 8bec            mov     ebp,esp
10004d10 8b4508          mov     eax,dword ptr [ebp+8]
10004d13 668b08          mov     cx,word ptr [eax]
10004d16 83c002          add     eax,2
10004d19 6685c9          test    cx,cx
10004d1c 75f5            jne     10004d13
10004d1e 2b4508          sub     eax,dword ptr [ebp+8]
10004d21 d1f8            sar     eax,1
10004d23 48              dec     eax
10004d24 5d              pop     ebp
10004d25 c3              ret
10004d26 55              push    ebp
10004d27 8bec            mov     ebp,esp
10004d29 8b5514          mov     edx,dword ptr [ebp+14h]
10004d2c 8b4d08          mov     ecx,dword ptr [ebp+8]
10004d2f 56              push    esi
10004d30 85d2            test    edx,edx
10004d32 750d            jne     10004d41
10004d34 85c9            test    ecx,ecx
10004d36 750d            jne     10004d45
10004d38 394d0c          cmp     dword ptr [ebp+0Ch],ecx
10004d3b 7526            jne     10004d63
10004d3d 33c0            xor     eax,eax
10004d3f eb33            jmp     10004d74
10004d41 85c9            test    ecx,ecx
10004d43 741e            je      10004d63
10004d45 8b450c          mov     eax,dword ptr [ebp+0Ch]
10004d48 85c0            test    eax,eax
10004d4a 7417            je      10004d63
10004d4c 85d2            test    edx,edx
10004d4e 7507            jne     10004d57
10004d50 33c0            xor     eax,eax
10004d52 668901          mov     word ptr [ecx],ax
10004d55 ebe6            jmp     10004d3d
10004d57 8b7510          mov     esi,dword ptr [ebp+10h]
10004d5a 85f6            test    esi,esi
10004d5c 7519            jne     10004d77
10004d5e 33c0            xor     eax,eax
10004d60 668901          mov     word ptr [ecx],ax
10004d63 e876ceffff      call    10001bde
10004d68 6a16            push    16h
10004d6a 5e              pop     esi
10004d6b 8930            mov     dword ptr [eax],esi
10004d6d e88ee8ffff      call    10003600
10004d72 8bc6            mov     eax,esi
10004d74 5e              pop     esi
10004d75 5d              pop     ebp
10004d76 c3              ret
10004d77 53              push    ebx
10004d78 57              push    edi
10004d79 8bd9            mov     ebx,ecx
10004d7b 8bf8            mov     edi,eax
10004d7d 83faff          cmp     edx,0FFFFFFFFh
10004d80 7516            jne     10004d98
10004d82 2bde            sub     ebx,esi
10004d84 0fb706          movzx   eax,word ptr [esi]
10004d87 66890433        mov     word ptr [ebx+esi],ax
10004d8b 8d7602          lea     esi,[esi+2]
10004d8e 6685c0          test    ax,ax
10004d91 7425            je      10004db8
10004d93 4f              dec     edi
10004d94 75ee            jne     10004d84
10004d96 eb20            jmp     10004db8
10004d98 2bf1            sub     esi,ecx
10004d9a 0fb7041e        movzx   eax,word ptr [esi+ebx]
10004d9e 668903          mov     word ptr [ebx],ax
10004da1 8d5b02          lea     ebx,[ebx+2]
10004da4 6685c0          test    ax,ax
10004da7 7406            je      10004daf
10004da9 4f              dec     edi
10004daa 7403            je      10004daf
10004dac 4a              dec     edx
10004dad 75eb            jne     10004d9a
10004daf 85d2            test    edx,edx
10004db1 7505            jne     10004db8
10004db3 33c0            xor     eax,eax
10004db5 668903          mov     word ptr [ebx],ax
10004db8 85ff            test    edi,edi
10004dba 5f              pop     edi
10004dbb 5b              pop     ebx
10004dbc 0f857bffffff    jne     10004d3d
10004dc2 83faff          cmp     edx,0FFFFFFFFh
10004dc5 750f            jne     10004dd6
10004dc7 8b450c          mov     eax,dword ptr [ebp+0Ch]
10004dca 33d2            xor     edx,edx
10004dcc 6a50            push    50h
10004dce 66895441fe      mov     word ptr [ecx+eax*2-2],dx
10004dd3 58              pop     eax
10004dd4 eb9e            jmp     10004d74
10004dd6 33c0            xor     eax,eax
10004dd8 668901          mov     word ptr [ecx],ax
10004ddb e8fecdffff      call    10001bde
10004de0 6a22            push    22h
10004de2 eb86            jmp     10004d6a
10004de4 55              push    ebp
10004de5 8bec            mov     ebp,esp
10004de7 8b4508          mov     eax,dword ptr [ebp+8]
10004dea 85c0            test    eax,eax
10004dec 7821            js      10004e0f
10004dee 83f802          cmp     eax,2
10004df1 7e0d            jle     10004e00
10004df3 83f803          cmp     eax,3
10004df6 7517            jne     10004e0f
10004df8 8b0d508d0010    mov     ecx,dword ptr ds:[10008D50h]
10004dfe eb0b            jmp     10004e0b
10004e00 8b0d508d0010    mov     ecx,dword ptr ds:[10008D50h]
10004e06 a3508d0010      mov     dword ptr ds:[10008D50h],eax
10004e0b 8bc1            mov     eax,ecx
10004e0d 5d              pop     ebp
10004e0e c3              ret
10004e0f e8cacdffff      call    10001bde
10004e14 c70016000000    mov     dword ptr [eax],16h
10004e1a e8e1e7ffff      call    10003600
10004e1f 83c8ff          or      eax,0FFFFFFFFh
10004e22 5d              pop     ebp
10004e23 c3              ret
10004e24 55              push    ebp
10004e25 8bec            mov     ebp,esp
10004e27 83ec24          sub     esp,24h
10004e2a a100f00010      mov     eax,dword ptr ds:[1000F000h]
10004e2f 33c5            xor     eax,ebp
10004e31 8945fc          mov     dword ptr [ebp-4],eax
10004e34 8b4508          mov     eax,dword ptr [ebp+8]
10004e37 53              push    ebx
10004e38 8b1d48a00010    mov     ebx,dword ptr ds:[1000A048h]
10004e3e 56              push    esi
10004e3f 57              push    edi
10004e40 8945e4          mov     dword ptr [ebp-1Ch],eax
10004e43 8b450c          mov     eax,dword ptr [ebp+0Ch]
10004e46 33ff            xor     edi,edi
10004e48 57              push    edi
10004e49 8945e0          mov     dword ptr [ebp-20h],eax
10004e4c ffd3            call    ebx
10004e4e 8bf0            mov     esi,eax
10004e50 8975e8          mov     dword ptr [ebp-18h],esi
10004e53 e86ddeffff      call    10002cc5
10004e58 8945ec          mov     dword ptr [ebp-14h],eax
10004e5b 393d548d0010    cmp     dword ptr ds:[10008D54h],edi
10004e61 0f85ae000000    jne     10004f15
10004e67 6800080000      push    800h
10004e6c 57              push    edi
10004e6d 68b0b20010      push    1000B2B0h
10004e72 ff15dca00010    call    dword ptr ds:[1000A0DCh]
10004e78 8bf0            mov     esi,eax
10004e7a 85f6            test    esi,esi
10004e7c 7524            jne     10004ea2
10004e7e ff1530a00010    call    dword ptr ds:[1000A030h]
10004e84 83f857          cmp     eax,57h
10004e87 0f8568010000    jne     10004ff5
10004e8d 68b0b20010      push    1000B2B0h
10004e92 ff15e8a00010    call    dword ptr ds:[1000A0E8h]
10004e98 8bf0            mov     esi,eax
10004e9a 85f6            test    esi,esi
10004e9c 0f8453010000    je      10004ff5
10004ea2 68c8b20010      push    1000B2C8h
10004ea7 56              push    esi
10004ea8 ff1514a00010    call    dword ptr ds:[1000A014h]
10004eae 85c0            test    eax,eax
10004eb0 0f843f010000    je      10004ff5
10004eb6 50              push    eax
10004eb7 ffd3            call    ebx
10004eb9 68d4b20010      push    1000B2D4h
10004ebe 56              push    esi
10004ebf a3548d0010      mov     dword ptr ds:[10008D54h],eax
10004ec4 ff1514a00010    call    dword ptr ds:[1000A014h]
10004eca 50              push    eax
10004ecb ffd3            call    ebx
10004ecd 68e4b20010      push    1000B2E4h
10004ed2 56              push    esi
10004ed3 a3588d0010      mov     dword ptr ds:[10008D58h],eax
10004ed8 ff1514a00010    call    dword ptr ds:[1000A014h]
10004ede 50              push    eax
10004edf ffd3            call    ebx
10004ee1 68f8b20010      push    1000B2F8h
10004ee6 56              push    esi
10004ee7 a35c8d0010      mov     dword ptr ds:[10008D5Ch],eax
10004eec ff1514a00010    call    dword ptr ds:[1000A014h]
10004ef2 50              push    eax
10004ef3 ffd3            call    ebx
10004ef5 a3648d0010      mov     dword ptr ds:[10008D64h],eax
10004efa 85c0            test    eax,eax
10004efc 7414            je      10004f12
10004efe 6814b30010      push    1000B314h
10004f03 56              push    esi
10004f04 ff1514a00010    call    dword ptr ds:[1000A014h]
10004f0a 50              push    eax
10004f0b ffd3            call    ebx
10004f0d a3608d0010      mov     dword ptr ds:[10008D60h],eax
10004f12 8b75e8          mov     esi,dword ptr [ebp-18h]
10004f15 ff1540a00010    call    dword ptr ds:[1000A040h]
10004f1b 85c0            test    eax,eax
10004f1d 741b            je      10004f3a
10004f1f 8b45e4          mov     eax,dword ptr [ebp-1Ch]
10004f22 85c0            test    eax,eax
10004f24 7407            je      10004f2d
10004f26 50              push    eax
10004f27 ff15e4a00010    call    dword ptr ds:[1000A0E4h]
10004f2d 397dec          cmp     dword ptr [ebp-14h],edi
10004f30 741d            je      10004f4f
10004f32 6a04            push    4
10004f34 58              pop     eax
10004f35 e9bd000000      jmp     10004ff7
10004f3a 397dec          cmp     dword ptr [ebp-14h],edi
10004f3d 7410            je      10004f4f
10004f3f ff35548d0010    push    dword ptr ds:[10008D54h]
10004f45 ff154ca00010    call    dword ptr ds:[1000A04Ch]
10004f4b 6a03            push    3
10004f4d ebe5            jmp     10004f34
10004f4f a1608d0010      mov     eax,dword ptr ds:[10008D60h]
10004f54 8b1d4ca00010    mov     ebx,dword ptr ds:[1000A04Ch]
10004f5a 3bc6            cmp     eax,esi
10004f5c 744f            je      10004fad
10004f5e 3935648d0010    cmp     dword ptr ds:[10008D64h],esi
10004f64 7447            je      10004fad
10004f66 50              push    eax
10004f67 ffd3            call    ebx
10004f69 ff35648d0010    push    dword ptr ds:[10008D64h]
10004f6f 8945ec          mov     dword ptr [ebp-14h],eax
10004f72 ffd3            call    ebx
10004f74 8b4dec          mov     ecx,dword ptr [ebp-14h]
10004f77 8945e8          mov     dword ptr [ebp-18h],eax
10004f7a 85c9            test    ecx,ecx
10004f7c 742f            je      10004fad
10004f7e 85c0            test    eax,eax
10004f80 742b            je      10004fad
10004f82 ffd1            call    ecx
10004f84 85c0            test    eax,eax
10004f86 741a            je      10004fa2
10004f88 8d4ddc          lea     ecx,[ebp-24h]
10004f8b 51              push    ecx
10004f8c 6a0c            push    0Ch
10004f8e 8d4df0          lea     ecx,[ebp-10h]
10004f91 51              push    ecx
10004f92 6a01            push    1
10004f94 50              push    eax
10004f95 ff55e8          call    dword ptr [ebp-18h]
10004f98 85c0            test    eax,eax
10004f9a 7406            je      10004fa2
10004f9c f645f801        test    byte ptr [ebp-8],1
10004fa0 750b            jne     10004fad
10004fa2 8b7510          mov     esi,dword ptr [ebp+10h]
10004fa5 81ce00002000    or      esi,200000h
10004fab eb30            jmp     10004fdd
10004fad a1588d0010      mov     eax,dword ptr ds:[10008D58h]
10004fb2 3bc6            cmp     eax,esi
10004fb4 7424            je      10004fda
10004fb6 50              push    eax
10004fb7 ffd3            call    ebx
10004fb9 85c0            test    eax,eax
10004fbb 741d            je      10004fda
10004fbd ffd0            call    eax
10004fbf 8bf8            mov     edi,eax
10004fc1 85ff            test    edi,edi
10004fc3 7415            je      10004fda
10004fc5 a15c8d0010      mov     eax,dword ptr ds:[10008D5Ch]
10004fca 3bc6            cmp     eax,esi
10004fcc 740c            je      10004fda
10004fce 50              push    eax
10004fcf ffd3            call    ebx
10004fd1 85c0            test    eax,eax
10004fd3 7405            je      10004fda
10004fd5 57              push    edi
10004fd6 ffd0            call    eax
10004fd8 8bf8            mov     edi,eax
10004fda 8b7510          mov     esi,dword ptr [ebp+10h]
10004fdd ff35548d0010    push    dword ptr ds:[10008D54h]
10004fe3 ffd3            call    ebx
10004fe5 85c0            test    eax,eax
10004fe7 740c            je      10004ff5
10004fe9 56              push    esi
10004fea ff75e0          push    dword ptr [ebp-20h]
10004fed ff75e4          push    dword ptr [ebp-1Ch]
10004ff0 57              push    edi
10004ff1 ffd0            call    eax
10004ff3 eb02            jmp     10004ff7
10004ff5 33c0            xor     eax,eax
10004ff7 8b4dfc          mov     ecx,dword ptr [ebp-4]
10004ffa 5f              pop     edi
10004ffb 5e              pop     esi
10004ffc 33cd            xor     ecx,ebp
10004ffe 5b              pop     ebx
10004fff e824c6ffff      call    10001628
10005004 c9              leave
10005005 c3              ret
10005006 cc              int     3
10005007 cc              int     3
10005008 cc              int     3
10005009 cc              int     3
1000500a cc              int     3
1000500b cc              int     3
1000500c cc              int     3
1000500d cc              int     3
1000500e cc              int     3
1000500f cc              int     3
10005010 8b54240c        mov     edx,dword ptr [esp+0Ch]
10005014 8b4c2404        mov     ecx,dword ptr [esp+4]
10005018 85d2            test    edx,edx
1000501a 747f            je      1000509b
1000501c 0fb6442408      movzx   eax,byte ptr [esp+8]
10005021 0fba25788d001001 bt      dword ptr ds:[10008D78h],1
10005029 730d            jae     10005038
1000502b 8b4c240c        mov     ecx,dword ptr [esp+0Ch]
1000502f 57              push    edi
10005030 8b7c2408        mov     edi,dword ptr [esp+8]
10005034 f3aa            rep stos byte ptr es:[edi]
10005036 eb5d            jmp     10005095
10005038 8b54240c        mov     edx,dword ptr [esp+0Ch]
1000503c 81fa80000000    cmp     edx,80h
10005042 7c0e            jl      10005052
10005044 0fba2570fd001001 bt      dword ptr ds:[1000FD70h],1
1000504c 0f8292140000    jb      100064e4
10005052 57              push    edi
10005053 8bf9            mov     edi,ecx
10005055 83fa04          cmp     edx,4
10005058 7231            jb      1000508b
1000505a f7d9            neg     ecx
1000505c 83e103          and     ecx,3
1000505f 740c            je      1000506d
10005061 2bd1            sub     edx,ecx
10005063 8807            mov     byte ptr [edi],al
10005065 83c701          add     edi,1
10005068 83e901          sub     ecx,1
1000506b 75f6            jne     10005063
1000506d 8bc8            mov     ecx,eax
1000506f c1e008          shl     eax,8
10005072 03c1            add     eax,ecx
10005074 8bc8            mov     ecx,eax
10005076 c1e010          shl     eax,10h
10005079 03c1            add     eax,ecx
1000507b 8bca            mov     ecx,edx
1000507d 83e203          and     edx,3
10005080 c1e902          shr     ecx,2
10005083 7406            je      1000508b
10005085 f3ab            rep stos dword ptr es:[edi]
10005087 85d2            test    edx,edx
10005089 740a            je      10005095
1000508b 8807            mov     byte ptr [edi],al
1000508d 83c701          add     edi,1
10005090 83ea01          sub     edx,1
10005093 75f6            jne     1000508b
10005095 8b442408        mov     eax,dword ptr [esp+8]
10005099 5f              pop     edi
1000509a c3              ret
1000509b 8b442404        mov     eax,dword ptr [esp+4]
1000509f c3              ret
100050a0 55              push    ebp
100050a1 8bec            mov     ebp,esp
100050a3 56              push    esi
100050a4 8b7508          mov     esi,dword ptr [ebp+8]
100050a7 85f6            test    esi,esi
100050a9 0f84ea000000    je      10005199
100050af 8b460c          mov     eax,dword ptr [esi+0Ch]
100050b2 3b050cfd0010    cmp     eax,dword ptr ds:[1000FD0Ch]
100050b8 7407            je      100050c1
100050ba 50              push    eax
100050bb e822c6ffff      call    100016e2
100050c0 59              pop     ecx
100050c1 8b4610          mov     eax,dword ptr [esi+10h]
100050c4 3b0510fd0010    cmp     eax,dword ptr ds:[1000FD10h]
100050ca 7407            je      100050d3
100050cc 50              push    eax
100050cd e810c6ffff      call    100016e2
100050d2 59              pop     ecx
100050d3 8b4614          mov     eax,dword ptr [esi+14h]
100050d6 3b0514fd0010    cmp     eax,dword ptr ds:[1000FD14h]
100050dc 7407            je      100050e5
100050de 50              push    eax
100050df e8fec5ffff      call    100016e2
100050e4 59              pop     ecx
100050e5 8b4618          mov     eax,dword ptr [esi+18h]
100050e8 3b0518fd0010    cmp     eax,dword ptr ds:[1000FD18h]
100050ee 7407            je      100050f7
100050f0 50              push    eax
100050f1 e8ecc5ffff      call    100016e2
100050f6 59              pop     ecx
100050f7 8b461c          mov     eax,dword ptr [esi+1Ch]
100050fa 3b051cfd0010    cmp     eax,dword ptr ds:[1000FD1Ch]
10005100 7407            je      10005109
10005102 50              push    eax
10005103 e8dac5ffff      call    100016e2
10005108 59              pop     ecx
10005109 8b4620          mov     eax,dword ptr [esi+20h]
1000510c 3b0520fd0010    cmp     eax,dword ptr ds:[1000FD20h]
10005112 7407            je      1000511b
10005114 50              push    eax
10005115 e8c8c5ffff      call    100016e2
1000511a 59              pop     ecx
1000511b 8b4624          mov     eax,dword ptr [esi+24h]
1000511e 3b0524fd0010    cmp     eax,dword ptr ds:[1000FD24h]
10005124 7407            je      1000512d
10005126 50              push    eax
10005127 e8b6c5ffff      call    100016e2
1000512c 59              pop     ecx
1000512d 8b4638          mov     eax,dword ptr [esi+38h]
10005130 3b0538fd0010    cmp     eax,dword ptr ds:[1000FD38h]
10005136 7407            je      1000513f
10005138 50              push    eax
10005139 e8a4c5ffff      call    100016e2
1000513e 59              pop     ecx
1000513f 8b463c          mov     eax,dword ptr [esi+3Ch]
10005142 3b053cfd0010    cmp     eax,dword ptr ds:[1000FD3Ch]
10005148 7407            je      10005151
1000514a 50              push    eax
1000514b e892c5ffff      call    100016e2
10005150 59              pop     ecx
10005151 8b4640          mov     eax,dword ptr [esi+40h]
10005154 3b0540fd0010    cmp     eax,dword ptr ds:[1000FD40h]
1000515a 7407            je      10005163
1000515c 50              push    eax
1000515d e880c5ffff      call    100016e2
10005162 59              pop     ecx
10005163 8b4644          mov     eax,dword ptr [esi+44h]
10005166 3b0544fd0010    cmp     eax,dword ptr ds:[1000FD44h]
1000516c 7407            je      10005175
1000516e 50              push    eax
1000516f e86ec5ffff      call    100016e2
10005174 59              pop     ecx
10005175 8b4648          mov     eax,dword ptr [esi+48h]
10005178 3b0548fd0010    cmp     eax,dword ptr ds:[1000FD48h]
1000517e 7407            je      10005187
10005180 50              push    eax
10005181 e85cc5ffff      call    100016e2
10005186 59              pop     ecx
10005187 8b464c          mov     eax,dword ptr [esi+4Ch]
1000518a 3b054cfd0010    cmp     eax,dword ptr ds:[1000FD4Ch]
10005190 7407            je      10005199
10005192 50              push    eax
10005193 e84ac5ffff      call    100016e2
10005198 59              pop     ecx
10005199 5e              pop     esi
1000519a 5d              pop     ebp
1000519b c3              ret
1000519c 55              push    ebp
1000519d 8bec            mov     ebp,esp
1000519f 56              push    esi
100051a0 8b7508          mov     esi,dword ptr [ebp+8]
100051a3 85f6            test    esi,esi
100051a5 7459            je      10005200
100051a7 8b06            mov     eax,dword ptr [esi]
100051a9 3b0500fd0010    cmp     eax,dword ptr ds:[1000FD00h]
100051af 7407            je      100051b8
100051b1 50              push    eax
100051b2 e82bc5ffff      call    100016e2
100051b7 59              pop     ecx
100051b8 8b4604          mov     eax,dword ptr [esi+4]
100051bb 3b0504fd0010    cmp     eax,dword ptr ds:[1000FD04h]
100051c1 7407            je      100051ca
100051c3 50              push    eax
100051c4 e819c5ffff      call    100016e2
100051c9 59              pop     ecx
100051ca 8b4608          mov     eax,dword ptr [esi+8]
100051cd 3b0508fd0010    cmp     eax,dword ptr ds:[1000FD08h]
100051d3 7407            je      100051dc
100051d5 50              push    eax
100051d6 e807c5ffff      call    100016e2
100051db 59              pop     ecx
100051dc 8b4630          mov     eax,dword ptr [esi+30h]
100051df 3b0530fd0010    cmp     eax,dword ptr ds:[1000FD30h]
100051e5 7407            je      100051ee
100051e7 50              push    eax
100051e8 e8f5c4ffff      call    100016e2
100051ed 59              pop     ecx
100051ee 8b4634          mov     eax,dword ptr [esi+34h]
100051f1 3b0534fd0010    cmp     eax,dword ptr ds:[1000FD34h]
100051f7 7407            je      10005200
100051f9 50              push    eax
100051fa e8e3c4ffff      call    100016e2
100051ff 59              pop     ecx
10005200 5e              pop     esi
10005201 5d              pop     ebp
10005202 c3              ret
10005203 55              push    ebp
10005204 8bec            mov     ebp,esp
10005206 56              push    esi
10005207 8b7508          mov     esi,dword ptr [ebp+8]
1000520a 85f6            test    esi,esi
1000520c 0f846e030000    je      10005580
10005212 ff7604          push    dword ptr [esi+4]
10005215 e8c8c4ffff      call    100016e2
1000521a ff7608          push    dword ptr [esi+8]
1000521d e8c0c4ffff      call    100016e2
10005222 ff760c          push    dword ptr [esi+0Ch]
10005225 e8b8c4ffff      call    100016e2
1000522a ff7610          push    dword ptr [esi+10h]
1000522d e8b0c4ffff      call    100016e2
10005232 ff7614          push    dword ptr [esi+14h]
10005235 e8a8c4ffff      call    100016e2
1000523a ff7618          push    dword ptr [esi+18h]
1000523d e8a0c4ffff      call    100016e2
10005242 ff36            push    dword ptr [esi]
10005244 e899c4ffff      call    100016e2
10005249 ff7620          push    dword ptr [esi+20h]
1000524c e891c4ffff      call    100016e2
10005251 ff7624          push    dword ptr [esi+24h]
10005254 e889c4ffff      call    100016e2
10005259 ff7628          push    dword ptr [esi+28h]
1000525c e881c4ffff      call    100016e2
10005261 ff762c          push    dword ptr [esi+2Ch]
10005264 e879c4ffff      call    100016e2
10005269 ff7630          push    dword ptr [esi+30h]
1000526c e871c4ffff      call    100016e2
10005271 ff7634          push    dword ptr [esi+34h]
10005274 e869c4ffff      call    100016e2
10005279 ff761c          push    dword ptr [esi+1Ch]
1000527c e861c4ffff      call    100016e2
10005281 ff7638          push    dword ptr [esi+38h]
10005284 e859c4ffff      call    100016e2
10005289 ff763c          push    dword ptr [esi+3Ch]
1000528c e851c4ffff      call    100016e2
10005291 83c440          add     esp,40h
10005294 ff7640          push    dword ptr [esi+40h]
10005297 e846c4ffff      call    100016e2
1000529c ff7644          push    dword ptr [esi+44h]
1000529f e83ec4ffff      call    100016e2
100052a4 ff7648          push    dword ptr [esi+48h]
100052a7 e836c4ffff      call    100016e2
100052ac ff764c          push    dword ptr [esi+4Ch]
100052af e82ec4ffff      call    100016e2
100052b4 ff7650          push    dword ptr [esi+50h]
100052b7 e826c4ffff      call    100016e2
100052bc ff7654          push    dword ptr [esi+54h]
100052bf e81ec4ffff      call    100016e2
100052c4 ff7658          push    dword ptr [esi+58h]
100052c7 e816c4ffff      call    100016e2
100052cc ff765c          push    dword ptr [esi+5Ch]
100052cf e80ec4ffff      call    100016e2
100052d4 ff7660          push    dword ptr [esi+60h]
100052d7 e806c4ffff      call    100016e2
100052dc ff7664          push    dword ptr [esi+64h]
100052df e8fec3ffff      call    100016e2
100052e4 ff7668          push    dword ptr [esi+68h]
100052e7 e8f6c3ffff      call    100016e2
100052ec ff766c          push    dword ptr [esi+6Ch]
100052ef e8eec3ffff      call    100016e2
100052f4 ff7670          push    dword ptr [esi+70h]
100052f7 e8e6c3ffff      call    100016e2
100052fc ff7674          push    dword ptr [esi+74h]
100052ff e8dec3ffff      call    100016e2
10005304 ff7678          push    dword ptr [esi+78h]
10005307 e8d6c3ffff      call    100016e2
1000530c ff767c          push    dword ptr [esi+7Ch]
1000530f e8cec3ffff      call    100016e2
10005314 83c440          add     esp,40h
10005317 ffb680000000    push    dword ptr [esi+80h]
1000531d e8c0c3ffff      call    100016e2
10005322 ffb684000000    push    dword ptr [esi+84h]
10005328 e8b5c3ffff      call    100016e2
1000532d ffb688000000    push    dword ptr [esi+88h]
10005333 e8aac3ffff      call    100016e2
10005338 ffb68c000000    push    dword ptr [esi+8Ch]
1000533e e89fc3ffff      call    100016e2
10005343 ffb690000000    push    dword ptr [esi+90h]
10005349 e894c3ffff      call    100016e2
1000534e ffb694000000    push    dword ptr [esi+94h]
10005354 e889c3ffff      call    100016e2
10005359 ffb698000000    push    dword ptr [esi+98h]
1000535f e87ec3ffff      call    100016e2
10005364 ffb69c000000    push    dword ptr [esi+9Ch]
1000536a e873c3ffff      call    100016e2
1000536f ffb6a0000000    push    dword ptr [esi+0A0h]
10005375 e868c3ffff      call    100016e2
1000537a ffb6a4000000    push    dword ptr [esi+0A4h]
10005380 e85dc3ffff      call    100016e2
10005385 ffb6a8000000    push    dword ptr [esi+0A8h]
1000538b e852c3ffff      call    100016e2
10005390 ffb6b8000000    push    dword ptr [esi+0B8h]
10005396 e847c3ffff      call    100016e2
1000539b ffb6bc000000    push    dword ptr [esi+0BCh]
100053a1 e83cc3ffff      call    100016e2
100053a6 ffb6c0000000    push    dword ptr [esi+0C0h]
100053ac e831c3ffff      call    100016e2
100053b1 ffb6c4000000    push    dword ptr [esi+0C4h]
100053b7 e826c3ffff      call    100016e2
100053bc ffb6c8000000    push    dword ptr [esi+0C8h]
100053c2 e81bc3ffff      call    100016e2
100053c7 83c440          add     esp,40h
100053ca ffb6cc000000    push    dword ptr [esi+0CCh]
100053d0 e80dc3ffff      call    100016e2
100053d5 ffb6b4000000    push    dword ptr [esi+0B4h]
100053db e802c3ffff      call    100016e2
100053e0 ffb6d4000000    push    dword ptr [esi+0D4h]
100053e6 e8f7c2ffff      call    100016e2
100053eb ffb6d8000000    push    dword ptr [esi+0D8h]
100053f1 e8ecc2ffff      call    100016e2
100053f6 ffb6dc000000    push    dword ptr [esi+0DCh]
100053fc e8e1c2ffff      call    100016e2
10005401 ffb6e0000000    push    dword ptr [esi+0E0h]
10005407 e8d6c2ffff      call    100016e2
1000540c ffb6e4000000    push    dword ptr [esi+0E4h]
10005412 e8cbc2ffff      call    100016e2
10005417 ffb6e8000000    push    dword ptr [esi+0E8h]
1000541d e8c0c2ffff      call    100016e2
10005422 ffb6d0000000    push    dword ptr [esi+0D0h]
10005428 e8b5c2ffff      call    100016e2
1000542d ffb6ec000000    push    dword ptr [esi+0ECh]
10005433 e8aac2ffff      call    100016e2
10005438 ffb6f0000000    push    dword ptr [esi+0F0h]
1000543e e89fc2ffff      call    100016e2
10005443 ffb6f4000000    push    dword ptr [esi+0F4h]
10005449 e894c2ffff      call    100016e2
1000544e ffb6f8000000    push    dword ptr [esi+0F8h]
10005454 e889c2ffff      call    100016e2
10005459 ffb6fc000000    push    dword ptr [esi+0FCh]
1000545f e87ec2ffff      call    100016e2
10005464 ffb600010000    push    dword ptr [esi+100h]
1000546a e873c2ffff      call    100016e2
1000546f ffb604010000    push    dword ptr [esi+104h]
10005475 e868c2ffff      call    100016e2
1000547a 83c440          add     esp,40h
1000547d ffb608010000    push    dword ptr [esi+108h]
10005483 e85ac2ffff      call    100016e2
10005488 ffb60c010000    push    dword ptr [esi+10Ch]
1000548e e84fc2ffff      call    100016e2
10005493 ffb610010000    push    dword ptr [esi+110h]
10005499 e844c2ffff      call    100016e2
1000549e ffb614010000    push    dword ptr [esi+114h]
100054a4 e839c2ffff      call    100016e2
100054a9 ffb618010000    push    dword ptr [esi+118h]
100054af e82ec2ffff      call    100016e2
100054b4 ffb61c010000    push    dword ptr [esi+11Ch]
100054ba e823c2ffff      call    100016e2
100054bf ffb620010000    push    dword ptr [esi+120h]
100054c5 e818c2ffff      call    100016e2
100054ca ffb624010000    push    dword ptr [esi+124h]
100054d0 e80dc2ffff      call    100016e2
100054d5 ffb628010000    push    dword ptr [esi+128h]
100054db e802c2ffff      call    100016e2
100054e0 ffb62c010000    push    dword ptr [esi+12Ch]
100054e6 e8f7c1ffff      call    100016e2
100054eb ffb630010000    push    dword ptr [esi+130h]
100054f1 e8ecc1ffff      call    100016e2
100054f6 ffb634010000    push    dword ptr [esi+134h]
100054fc e8e1c1ffff      call    100016e2
10005501 ffb638010000    push    dword ptr [esi+138h]
10005507 e8d6c1ffff      call    100016e2
1000550c ffb63c010000    push    dword ptr [esi+13Ch]
10005512 e8cbc1ffff      call    100016e2
10005517 ffb640010000    push    dword ptr [esi+140h]
1000551d e8c0c1ffff      call    100016e2
10005522 ffb644010000    push    dword ptr [esi+144h]
10005528 e8b5c1ffff      call    100016e2
1000552d 83c440          add     esp,40h
10005530 ffb648010000    push    dword ptr [esi+148h]
10005536 e8a7c1ffff      call    100016e2
1000553b ffb64c010000    push    dword ptr [esi+14Ch]
10005541 e89cc1ffff      call    100016e2
10005546 ffb650010000    push    dword ptr [esi+150h]
1000554c e891c1ffff      call    100016e2
10005551 ffb654010000    push    dword ptr [esi+154h]
10005557 e886c1ffff      call    100016e2
1000555c ffb658010000    push    dword ptr [esi+158h]
10005562 e87bc1ffff      call    100016e2
10005567 ffb65c010000    push    dword ptr [esi+15Ch]
1000556d e870c1ffff      call    100016e2
10005572 ffb660010000    push    dword ptr [esi+160h]
10005578 e865c1ffff      call    100016e2
1000557d 83c41c          add     esp,1Ch
10005580 5e              pop     esi
10005581 5d              pop     ebp
10005582 c3              ret
10005583 55              push    ebp
10005584 8bec            mov     ebp,esp
10005586 51              push    ecx
10005587 51              push    ecx
10005588 a100f00010      mov     eax,dword ptr ds:[1000F000h]
1000558d 33c5            xor     eax,ebp
1000558f 8945fc          mov     dword ptr [ebp-4],eax
10005592 53              push    ebx
10005593 56              push    esi
10005594 8b7518          mov     esi,dword ptr [ebp+18h]
10005597 57              push    edi
10005598 85f6            test    esi,esi
1000559a 7e21            jle     100055bd
1000559c 8b4514          mov     eax,dword ptr [ebp+14h]
1000559f 8bce            mov     ecx,esi
100055a1 49              dec     ecx
100055a2 803800          cmp     byte ptr [eax],0
100055a5 7408            je      100055af
100055a7 40              inc     eax
100055a8 85c9            test    ecx,ecx
100055aa 75f5            jne     100055a1
100055ac 83c9ff          or      ecx,0FFFFFFFFh
100055af 8bc6            mov     eax,esi
100055b1 2bc1            sub     eax,ecx
100055b3 48              dec     eax
100055b4 3bc6            cmp     eax,esi
100055b6 8d7001          lea     esi,[eax+1]
100055b9 7c02            jl      100055bd
100055bb 8bf0            mov     esi,eax
100055bd 8b4d24          mov     ecx,dword ptr [ebp+24h]
100055c0 33ff            xor     edi,edi
100055c2 85c9            test    ecx,ecx
100055c4 750d            jne     100055d3
100055c6 8b4508          mov     eax,dword ptr [ebp+8]
100055c9 8b00            mov     eax,dword ptr [eax]
100055cb 8b4004          mov     eax,dword ptr [eax+4]
100055ce 894524          mov     dword ptr [ebp+24h],eax
100055d1 8bc8            mov     ecx,eax
100055d3 33c0            xor     eax,eax
100055d5 394528          cmp     dword ptr [ebp+28h],eax
100055d8 6a00            push    0
100055da 0f95c0          setne   al
100055dd 6a00            push    0
100055df 56              push    esi
100055e0 ff7514          push    dword ptr [ebp+14h]
100055e3 8d04c501000000  lea     eax,[eax*8+1]
100055ea 50              push    eax
100055eb 51              push    ecx
100055ec ff1564a00010    call    dword ptr ds:[1000A064h]
100055f2 8bc8            mov     ecx,eax
100055f4 894df8          mov     dword ptr [ebp-8],ecx
100055f7 85c9            test    ecx,ecx
100055f9 7507            jne     10005602
100055fb 33c0            xor     eax,eax
100055fd e958010000      jmp     1000575a
10005602 7e4b            jle     1000564f
10005604 6ae0            push    0FFFFFFE0h
10005606 33d2            xor     edx,edx
10005608 58              pop     eax
10005609 f7f1            div     eax,ecx
1000560b 83f802          cmp     eax,2
1000560e 723f            jb      1000564f
10005610 8d0c4d08000000  lea     ecx,[ecx*2+8]
10005617 81f900040000    cmp     ecx,400h
1000561d 7715            ja      10005634
1000561f 8bc1            mov     eax,ecx
10005621 e81a110000      call    10006740
10005626 8bdc            mov     ebx,esp
10005628 85db            test    ebx,ebx
1000562a 741e            je      1000564a
1000562c c703cccc0000    mov     dword ptr [ebx],0CCCCh
10005632 eb13            jmp     10005647
10005634 51              push    ecx
10005635 e8dec4ffff      call    10001b18
1000563a 8bd8            mov     ebx,eax
1000563c 59              pop     ecx
1000563d 85db            test    ebx,ebx
1000563f 7409            je      1000564a
10005641 c703dddd0000    mov     dword ptr [ebx],0DDDDh
10005647 83c308          add     ebx,8
1000564a 8b4df8          mov     ecx,dword ptr [ebp-8]
1000564d eb02            jmp     10005651
1000564f 33db            xor     ebx,ebx
10005651 85db            test    ebx,ebx
10005653 74a6            je      100055fb
10005655 51              push    ecx
10005656 53              push    ebx
10005657 56              push    esi
10005658 ff7514          push    dword ptr [ebp+14h]
1000565b 6a01            push    1
1000565d ff7524          push    dword ptr [ebp+24h]
10005660 ff1564a00010    call    dword ptr ds:[1000A064h]
10005666 85c0            test    eax,eax
10005668 0f84e3000000    je      10005751
1000566e 8b75f8          mov     esi,dword ptr [ebp-8]
10005671 6a00            push    0
10005673 6a00            push    0
10005675 56              push    esi
10005676 53              push    ebx
10005677 ff7510          push    dword ptr [ebp+10h]
1000567a ff750c          push    dword ptr [ebp+0Ch]
1000567d e86b030000      call    100059ed
10005682 8bf8            mov     edi,eax
10005684 83c418          add     esp,18h
10005687 85ff            test    edi,edi
10005689 0f84c2000000    je      10005751
1000568f b900040000      mov     ecx,400h
10005694 854d10          test    dword ptr [ebp+10h],ecx
10005697 742c            je      100056c5
10005699 8b4d20          mov     ecx,dword ptr [ebp+20h]
1000569c 85c9            test    ecx,ecx
1000569e 0f84ad000000    je      10005751
100056a4 3bf9            cmp     edi,ecx
100056a6 0f8fa5000000    jg      10005751
100056ac 51              push    ecx
100056ad ff751c          push    dword ptr [ebp+1Ch]
100056b0 56              push    esi
100056b1 53              push    ebx
100056b2 ff7510          push    dword ptr [ebp+10h]
100056b5 ff750c          push    dword ptr [ebp+0Ch]
100056b8 e830030000      call    100059ed
100056bd 83c418          add     esp,18h
100056c0 e98c000000      jmp     10005751
100056c5 85ff            test    edi,edi
100056c7 7e42            jle     1000570b
100056c9 6ae0            push    0FFFFFFE0h
100056cb 33d2            xor     edx,edx
100056cd 58              pop     eax
100056ce f7f7            div     eax,edi
100056d0 83f802          cmp     eax,2
100056d3 7236            jb      1000570b
100056d5 8d047d08000000  lea     eax,[edi*2+8]
100056dc 3bc1            cmp     eax,ecx
100056de 7713            ja      100056f3
100056e0 e85b100000      call    10006740
100056e5 8bf4            mov     esi,esp
100056e7 85f6            test    esi,esi
100056e9 7466            je      10005751
100056eb c706cccc0000    mov     dword ptr [esi],0CCCCh
100056f1 eb13            jmp     10005706
100056f3 50              push    eax
100056f4 e81fc4ffff      call    10001b18
100056f9 8bf0            mov     esi,eax
100056fb 59              pop     ecx
100056fc 85f6            test    esi,esi
100056fe 7451            je      10005751
10005700 c706dddd0000    mov     dword ptr [esi],0DDDDh
10005706 83c608          add     esi,8
10005709 eb02            jmp     1000570d
1000570b 33f6            xor     esi,esi
1000570d 85f6            test    esi,esi
1000570f 7440            je      10005751
10005711 57              push    edi
10005712 56              push    esi
10005713 ff75f8          push    dword ptr [ebp-8]
10005716 53              push    ebx
10005717 ff7510          push    dword ptr [ebp+10h]
1000571a ff750c          push    dword ptr [ebp+0Ch]
1000571d e8cb020000      call    100059ed
10005722 83c418          add     esp,18h
10005725 85c0            test    eax,eax
10005727 7421            je      1000574a
10005729 33c0            xor     eax,eax
1000572b 50              push    eax
1000572c 50              push    eax
1000572d 394520          cmp     dword ptr [ebp+20h],eax
10005730 7504            jne     10005736
10005732 50              push    eax
10005733 50              push    eax
10005734 eb06            jmp     1000573c
10005736 ff7520          push    dword ptr [ebp+20h]
10005739 ff751c          push    dword ptr [ebp+1Ch]
1000573c 57              push    edi
1000573d 56              push    esi
1000573e 50              push    eax
1000573f ff7524          push    dword ptr [ebp+24h]
10005742 ff1594a00010    call    dword ptr ds:[1000A094h]
10005748 8bf8            mov     edi,eax
1000574a 56              push    esi
1000574b e860000000      call    100057b0
10005750 59              pop     ecx
10005751 53              push    ebx
10005752 e859000000      call    100057b0
10005757 59              pop     ecx
10005758 8bc7            mov     eax,edi
1000575a 8d65ec          lea     esp,[ebp-14h]
1000575d 5f              pop     edi
1000575e 5e              pop     esi
1000575f 5b              pop     ebx
10005760 8b4dfc          mov     ecx,dword ptr [ebp-4]
10005763 33cd            xor     ecx,ebp
10005765 e8bebeffff      call    10001628
1000576a c9              leave
1000576b c3              ret
1000576c 55              push    ebp
1000576d 8bec            mov     ebp,esp
1000576f 83ec10          sub     esp,10h
10005772 ff7508          push    dword ptr [ebp+8]
10005775 8d4df0          lea     ecx,[ebp-10h]
10005778 e8a1e3ffff      call    10003b1e
1000577d ff7528          push    dword ptr [ebp+28h]
10005780 8d45f0          lea     eax,[ebp-10h]
10005783 ff7524          push    dword ptr [ebp+24h]
10005786 ff7520          push    dword ptr [ebp+20h]
10005789 ff751c          push    dword ptr [ebp+1Ch]
1000578c ff7518          push    dword ptr [ebp+18h]
1000578f ff7514          push    dword ptr [ebp+14h]
10005792 ff7510          push    dword ptr [ebp+10h]
10005795 ff750c          push    dword ptr [ebp+0Ch]
10005798 50              push    eax
10005799 e8e5fdffff      call    10005583
1000579e 83c424          add     esp,24h
100057a1 807dfc00        cmp     byte ptr [ebp-4],0
100057a5 7407            je      100057ae
100057a7 8b4df8          mov     ecx,dword ptr [ebp-8]
100057aa 836170fd        and     dword ptr [ecx+70h],0FFFFFFFDh
100057ae c9              leave
100057af c3              ret
100057b0 55              push    ebp
100057b1 8bec            mov     ebp,esp
100057b3 8b4508          mov     eax,dword ptr [ebp+8]
100057b6 85c0            test    eax,eax
100057b8 7412            je      100057cc
100057ba 83e808          sub     eax,8
100057bd 8138dddd0000    cmp     dword ptr [eax],0DDDDh
100057c3 7507            jne     100057cc
100057c5 50              push    eax
100057c6 e817bfffff      call    100016e2
100057cb 59              pop     ecx
100057cc 5d              pop     ebp
100057cd c3              ret
100057ce 55              push    ebp
100057cf 8bec            mov     ebp,esp
100057d1 51              push    ecx
100057d2 a100f00010      mov     eax,dword ptr ds:[1000F000h]
100057d7 33c5            xor     eax,ebp
100057d9 8945fc          mov     dword ptr [ebp-4],eax
100057dc 8b4d1c          mov     ecx,dword ptr [ebp+1Ch]
100057df 53              push    ebx
100057e0 56              push    esi
100057e1 57              push    edi
100057e2 33ff            xor     edi,edi
100057e4 85c9            test    ecx,ecx
100057e6 750d            jne     100057f5
100057e8 8b4508          mov     eax,dword ptr [ebp+8]
100057eb 8b00            mov     eax,dword ptr [eax]
100057ed 8b4004          mov     eax,dword ptr [eax+4]
100057f0 89451c          mov     dword ptr [ebp+1Ch],eax
100057f3 8bc8            mov     ecx,eax
100057f5 33c0            xor     eax,eax
100057f7 394520          cmp     dword ptr [ebp+20h],eax
100057fa 57              push    edi
100057fb 57              push    edi
100057fc ff7514          push    dword ptr [ebp+14h]
100057ff 0f95c0          setne   al
10005802 ff7510          push    dword ptr [ebp+10h]
10005805 8d04c501000000  lea     eax,[eax*8+1]
1000580c 50              push    eax
1000580d 51              push    ecx
1000580e ff1564a00010    call    dword ptr ds:[1000A064h]
10005814 8bd8            mov     ebx,eax
10005816 85db            test    ebx,ebx
10005818 7507            jne     10005821
1000581a 33c0            xor     eax,eax
1000581c e987000000      jmp     100058a8
10005821 7e41            jle     10005864
10005823 81fbf0ffff7f    cmp     ebx,7FFFFFF0h
10005829 7739            ja      10005864
1000582b 8d045d08000000  lea     eax,[ebx*2+8]
10005832 3d00040000      cmp     eax,400h
10005837 7713            ja      1000584c
10005839 e8020f0000      call    10006740
1000583e 8bf4            mov     esi,esp
10005840 85f6            test    esi,esi
10005842 74d6            je      1000581a
10005844 c706cccc0000    mov     dword ptr [esi],0CCCCh
1000584a eb13            jmp     1000585f
1000584c 50              push    eax
1000584d e8c6c2ffff      call    10001b18
10005852 8bf0            mov     esi,eax
10005854 59              pop     ecx
10005855 85f6            test    esi,esi
10005857 74c1            je      1000581a
10005859 c706dddd0000    mov     dword ptr [esi],0DDDDh
1000585f 83c608          add     esi,8
10005862 eb02            jmp     10005866
10005864 8bf7            mov     esi,edi
10005866 85f6            test    esi,esi
10005868 74b0            je      1000581a
1000586a 8d041b          lea     eax,[ebx+ebx]
1000586d 50              push    eax
1000586e 57              push    edi
1000586f 56              push    esi
10005870 e89bf7ffff      call    10005010
10005875 83c40c          add     esp,0Ch
10005878 53              push    ebx
10005879 56              push    esi
1000587a ff7514          push    dword ptr [ebp+14h]
1000587d ff7510          push    dword ptr [ebp+10h]
10005880 6a01            push    1
10005882 ff751c          push    dword ptr [ebp+1Ch]
10005885 ff1564a00010    call    dword ptr ds:[1000A064h]
1000588b 85c0            test    eax,eax
1000588d 7410            je      1000589f
1000588f ff7518          push    dword ptr [ebp+18h]
10005892 50              push    eax
10005893 56              push    esi
10005894 ff750c          push    dword ptr [ebp+0Ch]
10005897 ff15eca00010    call    dword ptr ds:[1000A0ECh]
1000589d 8bf8            mov     edi,eax
1000589f 56              push    esi
100058a0 e80bffffff      call    100057b0
100058a5 59              pop     ecx
100058a6 8bc7            mov     eax,edi
100058a8 8d65f0          lea     esp,[ebp-10h]
100058ab 5f              pop     edi
100058ac 5e              pop     esi
100058ad 5b              pop     ebx
100058ae 8b4dfc          mov     ecx,dword ptr [ebp-4]
100058b1 33cd            xor     ecx,ebp
100058b3 e870bdffff      call    10001628
100058b8 c9              leave
100058b9 c3              ret
100058ba 55              push    ebp
100058bb 8bec            mov     ebp,esp
100058bd 83ec10          sub     esp,10h
100058c0 ff7508          push    dword ptr [ebp+8]
100058c3 8d4df0          lea     ecx,[ebp-10h]
100058c6 e853e2ffff      call    10003b1e
100058cb ff7520          push    dword ptr [ebp+20h]
100058ce 8d45f0          lea     eax,[ebp-10h]
100058d1 ff751c          push    dword ptr [ebp+1Ch]
100058d4 ff7518          push    dword ptr [ebp+18h]
100058d7 ff7514          push    dword ptr [ebp+14h]
100058da ff7510          push    dword ptr [ebp+10h]
100058dd ff750c          push    dword ptr [ebp+0Ch]
100058e0 50              push    eax
100058e1 e8e8feffff      call    100057ce
100058e6 83c41c          add     esp,1Ch
100058e9 807dfc00        cmp     byte ptr [ebp-4],0
100058ed 7407            je      100058f6
100058ef 8b4df8          mov     ecx,dword ptr [ebp-8]
100058f2 836170fd        and     dword ptr [ecx+70h],0FFFFFFFDh
100058f6 c9              leave
100058f7 c3              ret
100058f8 55              push    ebp
100058f9 8bec            mov     ebp,esp
100058fb 837d0800        cmp     dword ptr [ebp+8],0
100058ff 7515            jne     10005916
10005901 e8d8c2ffff      call    10001bde
10005906 c70016000000    mov     dword ptr [eax],16h
1000590c e8efdcffff      call    10003600
10005911 83c8ff          or      eax,0FFFFFFFFh
10005914 5d              pop     ebp
10005915 c3              ret
10005916 ff7508          push    dword ptr [ebp+8]
10005919 6a00            push    0
1000591b ff3534830010    push    dword ptr ds:[10008334h]
10005921 ff15f0a00010    call    dword ptr ds:[1000A0F0h]
10005927 5d              pop     ebp
10005928 c3              ret
10005929 6a02            push    2
1000592b e85dc9ffff      call    1000228d
10005930 59              pop     ecx
10005931 c3              ret
10005932 e852ecffff      call    10004589
10005937 85c0            test    eax,eax
10005939 7408            je      10005943
1000593b 6a16            push    16h
1000593d e870ecffff      call    100045b2
10005942 59              pop     ecx
10005943 f6055cfd001002  test    byte ptr ds:[1000FD5Ch],2
1000594a 7421            je      1000596d
1000594c 6a17            push    17h
1000594e e8711f0000      call    100078c4
10005953 85c0            test    eax,eax
10005955 7405            je      1000595c
10005957 6a07            push    7
10005959 59              pop     ecx
1000595a cd29            int     29h
1000595c 6a01            push    1
1000595e 6815000040      push    40000015h
10005963 6a03            push    3
10005965 e83bdbffff      call    100034a5
1000596a 83c40c          add     esp,0Ch
1000596d 6a03            push    3
1000596f e8d5c9ffff      call    10002349
10005974 cc              int     3
10005975 55              push    ebp
10005976 8bec            mov     ebp,esp
10005978 53              push    ebx
10005979 56              push    esi
1000597a 57              push    edi
1000597b 33ff            xor     edi,edi
1000597d bbe3000000      mov     ebx,0E3h
10005982 8d043b          lea     eax,[ebx+edi]
10005985 99              cdq
10005986 2bc2            sub     eax,edx
10005988 8bf0            mov     esi,eax
1000598a d1fe            sar     esi,1
1000598c 6a55            push    55h
1000598e ff34f558c20010  push    dword ptr [esi*8+1000C258h]
10005995 ff7508          push    dword ptr [ebp+8]
10005998 e89c000000      call    10005a39
1000599d 83c40c          add     esp,0Ch
100059a0 85c0            test    eax,eax
100059a2 7413            je      100059b7
100059a4 7905            jns     100059ab
100059a6 8d5eff          lea     ebx,[esi-1]
100059a9 eb03            jmp     100059ae
100059ab 8d7e01          lea     edi,[esi+1]
100059ae 3bfb            cmp     edi,ebx
100059b0 7ed0            jle     10005982
100059b2 83c8ff          or      eax,0FFFFFFFFh
100059b5 eb07            jmp     100059be
100059b7 8b04f55cc20010  mov     eax,dword ptr [esi*8+1000C25Ch]
100059be 5f              pop     edi
100059bf 5e              pop     esi
100059c0 5b              pop     ebx
100059c1 5d              pop     ebp
100059c2 c3              ret
100059c3 55              push    ebp
100059c4 8bec            mov     ebp,esp
100059c6 837d0800        cmp     dword ptr [ebp+8],0
100059ca 741d            je      100059e9
100059cc ff7508          push    dword ptr [ebp+8]
100059cf e8a1ffffff      call    10005975
100059d4 59              pop     ecx
100059d5 85c0            test    eax,eax
100059d7 7810            js      100059e9
100059d9 3de4000000      cmp     eax,0E4h
100059de 7309            jae     100059e9
100059e0 8b04c538bb0010  mov     eax,dword ptr [eax*8+1000BB38h]
100059e7 5d              pop     ebp
100059e8 c3              ret
100059e9 33c0            xor     eax,eax
100059eb 5d              pop     ebp
100059ec c3              ret
100059ed 55              push    ebp
100059ee 8bec            mov     ebp,esp
100059f0 a12c9e0010      mov     eax,dword ptr ds:[10009E2Ch]
100059f5 330500f00010    xor     eax,dword ptr ds:[1000F000h]
100059fb 741b            je      10005a18
100059fd 33c9            xor     ecx,ecx
100059ff 51              push    ecx
10005a00 51              push    ecx
10005a01 51              push    ecx
10005a02 ff751c          push    dword ptr [ebp+1Ch]
10005a05 ff7518          push    dword ptr [ebp+18h]
10005a08 ff7514          push    dword ptr [ebp+14h]
10005a0b ff7510          push    dword ptr [ebp+10h]
10005a0e ff750c          push    dword ptr [ebp+0Ch]
10005a11 ff7508          push    dword ptr [ebp+8]
10005a14 ffd0            call    eax
10005a16 5d              pop     ebp
10005a17 c3              ret
10005a18 ff751c          push    dword ptr [ebp+1Ch]
10005a1b ff7518          push    dword ptr [ebp+18h]
10005a1e ff7514          push    dword ptr [ebp+14h]
10005a21 ff7510          push    dword ptr [ebp+10h]
10005a24 ff750c          push    dword ptr [ebp+0Ch]
10005a27 ff7508          push    dword ptr [ebp+8]
10005a2a e894ffffff      call    100059c3
10005a2f 59              pop     ecx
10005a30 50              push    eax
10005a31 ff15f4a00010    call    dword ptr ds:[1000A0F4h]
10005a37 5d              pop     ebp
10005a38 c3              ret
10005a39 55              push    ebp
10005a3a 8bec            mov     ebp,esp
10005a3c 56              push    esi
10005a3d 8b7510          mov     esi,dword ptr [ebp+10h]
10005a40 33c0            xor     eax,eax
10005a42 85f6            test    esi,esi
10005a44 745e            je      10005aa4
10005a46 8b4d0c          mov     ecx,dword ptr [ebp+0Ch]
10005a49 53              push    ebx
10005a4a 57              push    edi
10005a4b 8b7d08          mov     edi,dword ptr [ebp+8]
10005a4e 6a41            push    41h
10005a50 5b              pop     ebx
10005a51 6a5a            push    5Ah
10005a53 5a              pop     edx
10005a54 2bf9            sub     edi,ecx
10005a56 895510          mov     dword ptr [ebp+10h],edx
10005a59 eb03            jmp     10005a5e
10005a5b 6a5a            push    5Ah
10005a5d 5a              pop     edx
10005a5e 0fb7040f        movzx   eax,word ptr [edi+ecx]
10005a62 663bc3          cmp     ax,bx
10005a65 720d            jb      10005a74
10005a67 663bc2          cmp     ax,dx
10005a6a 7708            ja      10005a74
10005a6c 83c020          add     eax,20h
10005a6f 0fb7d0          movzx   edx,ax
10005a72 eb02            jmp     10005a76
10005a74 8bd0            mov     edx,eax
10005a76 0fb701          movzx   eax,word ptr [ecx]
10005a79 663bc3          cmp     ax,bx
10005a7c 720c            jb      10005a8a
10005a7e 663b4510        cmp     ax,word ptr [ebp+10h]
10005a82 7706            ja      10005a8a
10005a84 83c020          add     eax,20h
10005a87 0fb7c0          movzx   eax,ax
10005a8a 83c102          add     ecx,2
10005a8d 4e              dec     esi
10005a8e 740a            je      10005a9a
10005a90 6685d2          test    dx,dx
10005a93 7405            je      10005a9a
10005a95 663bd0          cmp     dx,ax
10005a98 74c1            je      10005a5b
10005a9a 0fb7c8          movzx   ecx,ax
10005a9d 0fb7c2          movzx   eax,dx
10005aa0 5f              pop     edi
10005aa1 2bc1            sub     eax,ecx
10005aa3 5b              pop     ebx
10005aa4 5e              pop     esi
10005aa5 5d              pop     ebp
10005aa6 c3              ret
10005aa7 cc              int     3
10005aa8 cc              int     3
10005aa9 cc              int     3
10005aaa cc              int     3
10005aab cc              int     3
10005aac cc              int     3
10005aad cc              int     3
10005aae cc              int     3
10005aaf cc              int     3
10005ab0 57              push    edi
10005ab1 56              push    esi
10005ab2 8b742410        mov     esi,dword ptr [esp+10h]
10005ab6 8b4c2414        mov     ecx,dword ptr [esp+14h]
10005aba 8b7c240c        mov     edi,dword ptr [esp+0Ch]
10005abe 8bc1            mov     eax,ecx
10005ac0 8bd1            mov     edx,ecx
10005ac2 03c6            add     eax,esi
10005ac4 3bfe            cmp     edi,esi
10005ac6 7608            jbe     10005ad0
10005ac8 3bf8            cmp     edi,eax
10005aca 0f8268030000    jb      10005e38
10005ad0 0fba25788d001001 bt      dword ptr ds:[10008D78h],1
10005ad8 7307            jae     10005ae1
10005ada f3a4            rep movs byte ptr es:[edi],byte ptr [esi]
10005adc e917030000      jmp     10005df8
10005ae1 81f980000000    cmp     ecx,80h
10005ae7 0f82ce010000    jb      10005cbb
10005aed 8bc7            mov     eax,edi
10005aef 33c6            xor     eax,esi
10005af1 a90f000000      test    eax,0Fh
10005af6 750e            jne     10005b06
10005af8 0fba2570fd001001 bt      dword ptr ds:[1000FD70h],1
10005b00 0f82da040000    jb      10005fe0
10005b06 0fba25788d001000 bt      dword ptr ds:[10008D78h],0
10005b0e 0f83a7010000    jae     10005cbb
10005b14 f7c703000000    test    edi,3
10005b1a 0f85b8010000    jne     10005cd8
10005b20 f7c603000000    test    esi,3
10005b26 0f8597010000    jne     10005cc3
10005b2c 0fbae702        bt      edi,2
10005b30 730d            jae     10005b3f
10005b32 8b06            mov     eax,dword ptr [esi]
10005b34 83e904          sub     ecx,4
10005b37 8d7604          lea     esi,[esi+4]
10005b3a 8907            mov     dword ptr [edi],eax
10005b3c 8d7f04          lea     edi,[edi+4]
10005b3f 0fbae703        bt      edi,3
10005b43 7311            jae     10005b56
10005b45 f30f7e0e        movq    xmm1,mmword ptr [esi]
10005b49 83e908          sub     ecx,8
10005b4c 8d7608          lea     esi,[esi+8]
10005b4f 660fd60f        movq    mmword ptr [edi],xmm1
10005b53 8d7f08          lea     edi,[edi+8]
10005b56 f7c607000000    test    esi,7
10005b5c 7463            je      10005bc1
10005b5e 0fbae603        bt      esi,3
10005b62 0f83b2000000    jae     10005c1a
10005b68 660f6f4ef4      movdqa  xmm1,xmmword ptr [esi-0Ch]
10005b6d 8d76f4          lea     esi,[esi-0Ch]
10005b70 660f6f5e10      movdqa  xmm3,xmmword ptr [esi+10h]
10005b75 83e930          sub     ecx,30h
10005b78 660f6f4620      movdqa  xmm0,xmmword ptr [esi+20h]
10005b7d 660f6f6e30      movdqa  xmm5,xmmword ptr [esi+30h]
10005b82 8d7630          lea     esi,[esi+30h]
10005b85 83f930          cmp     ecx,30h
10005b88 660f6fd3        movdqa  xmm2,xmm3
10005b8c 660f3a0fd90c    palignr xmm3,xmm1,0Ch
10005b92 660f7f1f        movdqa  xmmword ptr [edi],xmm3
10005b96 660f6fe0        movdqa  xmm4,xmm0
10005b9a 660f3a0fc20c    palignr xmm0,xmm2,0Ch
10005ba0 660f7f4710      movdqa  xmmword ptr [edi+10h],xmm0
10005ba5 660f6fcd        movdqa  xmm1,xmm5
10005ba9 660f3a0fec0c    palignr xmm5,xmm4,0Ch
10005baf 660f7f6f20      movdqa  xmmword ptr [edi+20h],xmm5
10005bb4 8d7f30          lea     edi,[edi+30h]
10005bb7 7db7            jge     10005b70
10005bb9 8d760c          lea     esi,[esi+0Ch]
10005bbc e9af000000      jmp     10005c70
10005bc1 660f6f4ef8      movdqa  xmm1,xmmword ptr [esi-8]
10005bc6 8d76f8          lea     esi,[esi-8]
10005bc9 8d4900          lea     ecx,[ecx]
10005bcc 660f6f5e10      movdqa  xmm3,xmmword ptr [esi+10h]
10005bd1 83e930          sub     ecx,30h
10005bd4 660f6f4620      movdqa  xmm0,xmmword ptr [esi+20h]
10005bd9 660f6f6e30      movdqa  xmm5,xmmword ptr [esi+30h]
10005bde 8d7630          lea     esi,[esi+30h]
10005be1 83f930          cmp     ecx,30h
10005be4 660f6fd3        movdqa  xmm2,xmm3
10005be8 660f3a0fd908    palignr xmm3,xmm1,8
10005bee 660f7f1f        movdqa  xmmword ptr [edi],xmm3
10005bf2 660f6fe0        movdqa  xmm4,xmm0
10005bf6 660f3a0fc208    palignr xmm0,xmm2,8
10005bfc 660f7f4710      movdqa  xmmword ptr [edi+10h],xmm0
10005c01 660f6fcd        movdqa  xmm1,xmm5
10005c05 660f3a0fec08    palignr xmm5,xmm4,8
10005c0b 660f7f6f20      movdqa  xmmword ptr [edi+20h],xmm5
10005c10 8d7f30          lea     edi,[edi+30h]
10005c13 7db7            jge     10005bcc
10005c15 8d7608          lea     esi,[esi+8]
10005c18 eb56            jmp     10005c70
10005c1a 660f6f4efc      movdqa  xmm1,xmmword ptr [esi-4]
10005c1f 8d76fc          lea     esi,[esi-4]
10005c22 8bff            mov     edi,edi
10005c24 660f6f5e10      movdqa  xmm3,xmmword ptr [esi+10h]
10005c29 83e930          sub     ecx,30h
10005c2c 660f6f4620      movdqa  xmm0,xmmword ptr [esi+20h]
10005c31 660f6f6e30      movdqa  xmm5,xmmword ptr [esi+30h]
10005c36 8d7630          lea     esi,[esi+30h]
10005c39 83f930          cmp     ecx,30h
10005c3c 660f6fd3        movdqa  xmm2,xmm3
10005c40 660f3a0fd904    palignr xmm3,xmm1,4
10005c46 660f7f1f        movdqa  xmmword ptr [edi],xmm3
10005c4a 660f6fe0        movdqa  xmm4,xmm0
10005c4e 660f3a0fc204    palignr xmm0,xmm2,4
10005c54 660f7f4710      movdqa  xmmword ptr [edi+10h],xmm0
10005c59 660f6fcd        movdqa  xmm1,xmm5
10005c5d 660f3a0fec04    palignr xmm5,xmm4,4
10005c63 660f7f6f20      movdqa  xmmword ptr [edi+20h],xmm5
10005c68 8d7f30          lea     edi,[edi+30h]
10005c6b 7db7            jge     10005c24
10005c6d 8d7604          lea     esi,[esi+4]
10005c70 83f910          cmp     ecx,10h
10005c73 7c13            jl      10005c88
10005c75 f30f6f0e        movdqu  xmm1,xmmword ptr [esi]
10005c79 83e910          sub     ecx,10h
10005c7c 8d7610          lea     esi,[esi+10h]
10005c7f 660f7f0f        movdqa  xmmword ptr [edi],xmm1
10005c83 8d7f10          lea     edi,[edi+10h]
10005c86 ebe8            jmp     10005c70
10005c88 0fbae102        bt      ecx,2
10005c8c 730d            jae     10005c9b
10005c8e 8b06            mov     eax,dword ptr [esi]
10005c90 83e904          sub     ecx,4
10005c93 8d7604          lea     esi,[esi+4]
10005c96 8907            mov     dword ptr [edi],eax
10005c98 8d7f04          lea     edi,[edi+4]
10005c9b 0fbae103        bt      ecx,3
10005c9f 7311            jae     10005cb2
10005ca1 f30f7e0e        movq    xmm1,mmword ptr [esi]
10005ca5 83e908          sub     ecx,8
10005ca8 8d7608          lea     esi,[esi+8]
10005cab 660fd60f        movq    mmword ptr [edi],xmm1
10005caf 8d7f08          lea     edi,[edi+8]
10005cb2 8b048de85d0010  mov     eax,dword ptr [ecx*4+10005DE8h]
10005cb9 ffe0            jmp     eax
10005cbb f7c703000000    test    edi,3
10005cc1 7515            jne     10005cd8
10005cc3 c1e902          shr     ecx,2
10005cc6 83e203          and     edx,3
10005cc9 83f908          cmp     ecx,8
10005ccc 722a            jb      10005cf8
10005cce f3a5            rep movs dword ptr es:[edi],dword ptr [esi]
10005cd0 ff2495e85d0010  jmp     dword ptr [edx*4+10005DE8h]
10005cd7 90              nop
10005cd8 8bc7            mov     eax,edi
10005cda ba03000000      mov     edx,3
10005cdf 83e904          sub     ecx,4
10005ce2 720c            jb      10005cf0
10005ce4 83e003          and     eax,3
10005ce7 03c8            add     ecx,eax
10005ce9 ff2485fc5c0010  jmp     dword ptr [eax*4+10005CFCh]
10005cf0 ff248df85d0010  jmp     dword ptr [ecx*4+10005DF8h]
10005cf7 90              nop
10005cf8 ff248d7c5d0010  jmp     dword ptr [ecx*4+10005D7Ch]
10005cff 90              nop
10005d00 0c5d            or      al,5Dh
10005d02 0010            add     byte ptr [eax],dl
10005d04 385d00          cmp     byte ptr [ebp],bl
10005d07 105c5d00        adc     byte ptr [ebp+ebx*2],bl
10005d0b 1023            adc     byte ptr [ebx],ah
10005d0d d18a0688078a    ror     dword ptr [edx-75F877FAh],1
10005d13 46              inc     esi
10005d14 018847018a46    add     dword ptr [eax+468A0147h],ecx
10005d1a 02c1            add     al,cl
10005d1c e902884702      jmp     1247e523
10005d21 83c603          add     esi,3
10005d24 83c703          add     edi,3
10005d27 83f908          cmp     ecx,8
10005d2a 72cc            jb      10005cf8
10005d2c f3a5            rep movs dword ptr es:[edi],dword ptr [esi]
10005d2e ff2495e85d0010  jmp     dword ptr [edx*4+10005DE8h]
10005d35 8d4900          lea     ecx,[ecx]
10005d38 23d1            and     edx,ecx
10005d3a 8a06            mov     al,byte ptr [esi]
10005d3c 8807            mov     byte ptr [edi],al
10005d3e 8a4601          mov     al,byte ptr [esi+1]
10005d41 c1e902          shr     ecx,2
10005d44 884701          mov     byte ptr [edi+1],al
10005d47 83c602          add     esi,2
10005d4a 83c702          add     edi,2
10005d4d 83f908          cmp     ecx,8
10005d50 72a6            jb      10005cf8
10005d52 f3a5            rep movs dword ptr es:[edi],dword ptr [esi]
10005d54 ff2495e85d0010  jmp     dword ptr [edx*4+10005DE8h]
10005d5b 90              nop
10005d5c 23d1            and     edx,ecx
10005d5e 8a06            mov     al,byte ptr [esi]
10005d60 8807            mov     byte ptr [edi],al
10005d62 83c601          add     esi,1
10005d65 c1e902          shr     ecx,2
10005d68 83c701          add     edi,1
10005d6b 83f908          cmp     ecx,8
10005d6e 7288            jb      10005cf8
10005d70 f3a5            rep movs dword ptr es:[edi],dword ptr [esi]
10005d72 ff2495e85d0010  jmp     dword ptr [edx*4+10005DE8h]
10005d79 8d4900          lea     ecx,[ecx]
10005d7c df5d00          fistp   word ptr [ebp]
10005d7f 10cc            adc     ah,cl
10005d81 5d              pop     ebp
10005d82 0010            add     byte ptr [eax],dl
10005d84 c45d00          les     ebx,fword ptr [ebp]
10005d87 10bc5d0010b45d  adc     byte ptr [ebp+ebx*2+5DB41000h],bh
10005d8e 0010            add     byte ptr [eax],dl
10005d90 ac              lods    byte ptr [esi]
10005d91 5d              pop     ebp
10005d92 0010            add     byte ptr [eax],dl
10005d94 a4              movs    byte ptr es:[edi],byte ptr [esi]
10005d95 5d              pop     ebp
10005d96 0010            add     byte ptr [eax],dl
10005d98 9c              pushfd
10005d99 5d              pop     ebp
10005d9a 0010            add     byte ptr [eax],dl
10005d9c 8b448ee4        mov     eax,dword ptr [esi+ecx*4-1Ch]
10005da0 89448fe4        mov     dword ptr [edi+ecx*4-1Ch],eax
10005da4 8b448ee8        mov     eax,dword ptr [esi+ecx*4-18h]
10005da8 89448fe8        mov     dword ptr [edi+ecx*4-18h],eax
10005dac 8b448eec        mov     eax,dword ptr [esi+ecx*4-14h]
10005db0 89448fec        mov     dword ptr [edi+ecx*4-14h],eax
10005db4 8b448ef0        mov     eax,dword ptr [esi+ecx*4-10h]
10005db8 89448ff0        mov     dword ptr [edi+ecx*4-10h],eax
10005dbc 8b448ef4        mov     eax,dword ptr [esi+ecx*4-0Ch]
10005dc0 89448ff4        mov     dword ptr [edi+ecx*4-0Ch],eax
10005dc4 8b448ef8        mov     eax,dword ptr [esi+ecx*4-8]
10005dc8 89448ff8        mov     dword ptr [edi+ecx*4-8],eax
10005dcc 8b448efc        mov     eax,dword ptr [esi+ecx*4-4]
10005dd0 89448ffc        mov     dword ptr [edi+ecx*4-4],eax
10005dd4 8d048d00000000  lea     eax,[ecx*4]
10005ddb 03f0            add     esi,eax
10005ddd 03f8            add     edi,eax
10005ddf ff2495e85d0010  jmp     dword ptr [edx*4+10005DE8h]
10005de6 8bff            mov     edi,edi
10005de8 f8              clc
10005de9 5d              pop     ebp
10005dea 0010            add     byte ptr [eax],dl
10005dec 005e00          add     byte ptr [esi],bl
10005def 100c5e          adc     byte ptr [esi+ebx*2],cl
10005df2 0010            add     byte ptr [eax],dl
10005df4 205e00          and     byte ptr [esi],bl
10005df7 108b44240c5e    adc     byte ptr [ebx+5E0C2444h],cl
10005dfd 5f              pop     edi
10005dfe c3              ret
10005dff 90              nop
10005e00 8a06            mov     al,byte ptr [esi]
10005e02 8807            mov     byte ptr [edi],al
10005e04 8b44240c        mov     eax,dword ptr [esp+0Ch]
10005e08 5e              pop     esi
10005e09 5f              pop     edi
10005e0a c3              ret
10005e0b 90              nop
10005e0c 8a06            mov     al,byte ptr [esi]
10005e0e 8807            mov     byte ptr [edi],al
10005e10 8a4601          mov     al,byte ptr [esi+1]
10005e13 884701          mov     byte ptr [edi+1],al
10005e16 8b44240c        mov     eax,dword ptr [esp+0Ch]
10005e1a 5e              pop     esi
10005e1b 5f              pop     edi
10005e1c c3              ret
10005e1d 8d4900          lea     ecx,[ecx]
10005e20 8a06            mov     al,byte ptr [esi]
10005e22 8807            mov     byte ptr [edi],al
10005e24 8a4601          mov     al,byte ptr [esi+1]
10005e27 884701          mov     byte ptr [edi+1],al
10005e2a 8a4602          mov     al,byte ptr [esi+2]
10005e2d 884702          mov     byte ptr [edi+2],al
10005e30 8b44240c        mov     eax,dword ptr [esp+0Ch]
10005e34 5e              pop     esi
10005e35 5f              pop     edi
10005e36 c3              ret
10005e37 90              nop
10005e38 8d7431fc        lea     esi,[ecx+esi-4]
10005e3c 8d7c39fc        lea     edi,[ecx+edi-4]
10005e40 f7c703000000    test    edi,3
10005e46 7524            jne     10005e6c
10005e48 c1e902          shr     ecx,2
10005e4b 83e203          and     edx,3
10005e4e 83f908          cmp     ecx,8
10005e51 720d            jb      10005e60
10005e53 fd              std
10005e54 f3a5            rep movs dword ptr es:[edi],dword ptr [esi]
10005e56 fc              cld
10005e57 ff2495845f0010  jmp     dword ptr [edx*4+10005F84h]
10005e5e 8bff            mov     edi,edi
10005e60 f7d9            neg     ecx
10005e62 ff248d345f0010  jmp     dword ptr [ecx*4+10005F34h]
10005e69 8d4900          lea     ecx,[ecx]
10005e6c 8bc7            mov     eax,edi
10005e6e ba03000000      mov     edx,3
10005e73 83f904          cmp     ecx,4
10005e76 720c            jb      10005e84
10005e78 83e003          and     eax,3
10005e7b 2bc8            sub     ecx,eax
10005e7d ff2485885e0010  jmp     dword ptr [eax*4+10005E88h]
10005e84 ff248d845f0010  jmp     dword ptr [ecx*4+10005F84h]
10005e8b 90              nop
10005e8c 98              cwde
10005e8d 5e              pop     esi
10005e8e 0010            add     byte ptr [eax],dl
10005e90 bc5e0010e4      mov     esp,0E410005Eh
10005e95 5e              pop     esi
10005e96 0010            add     byte ptr [eax],dl
10005e98 8a4603          mov     al,byte ptr [esi+3]
10005e9b 23d1            and     edx,ecx
10005e9d 884703          mov     byte ptr [edi+3],al
10005ea0 83ee01          sub     esi,1
10005ea3 c1e902          shr     ecx,2
10005ea6 83ef01          sub     edi,1
10005ea9 83f908          cmp     ecx,8
10005eac 72b2            jb      10005e60
10005eae fd              std
10005eaf f3a5            rep movs dword ptr es:[edi],dword ptr [esi]
10005eb1 fc              cld
10005eb2 ff2495845f0010  jmp     dword ptr [edx*4+10005F84h]
10005eb9 8d4900          lea     ecx,[ecx]
10005ebc 8a4603          mov     al,byte ptr [esi+3]
10005ebf 23d1            and     edx,ecx
10005ec1 884703          mov     byte ptr [edi+3],al
10005ec4 8a4602          mov     al,byte ptr [esi+2]
10005ec7 c1e902          shr     ecx,2
10005eca 884702          mov     byte ptr [edi+2],al
10005ecd 83ee02          sub     esi,2
10005ed0 83ef02          sub     edi,2
10005ed3 83f908          cmp     ecx,8
10005ed6 7288            jb      10005e60
10005ed8 fd              std
10005ed9 f3a5            rep movs dword ptr es:[edi],dword ptr [esi]
10005edb fc              cld
10005edc ff2495845f0010  jmp     dword ptr [edx*4+10005F84h]
10005ee3 90              nop
10005ee4 8a4603          mov     al,byte ptr [esi+3]
10005ee7 23d1            and     edx,ecx
10005ee9 884703          mov     byte ptr [edi+3],al
10005eec 8a4602          mov     al,byte ptr [esi+2]
10005eef 884702          mov     byte ptr [edi+2],al
10005ef2 8a4601          mov     al,byte ptr [esi+1]
10005ef5 c1e902          shr     ecx,2
10005ef8 884701          mov     byte ptr [edi+1],al
10005efb 83ee03          sub     esi,3
10005efe 83ef03          sub     edi,3
10005f01 83f908          cmp     ecx,8
10005f04 0f8256ffffff    jb      10005e60
10005f0a fd              std
10005f0b f3a5            rep movs dword ptr es:[edi],dword ptr [esi]
10005f0d fc              cld
10005f0e ff2495845f0010  jmp     dword ptr [edx*4+10005F84h]
10005f15 8d4900          lea     ecx,[ecx]
10005f18 385f00          cmp     byte ptr [edi],bl
10005f1b 10405f          adc     byte ptr [eax+5Fh],al
10005f1e 0010            add     byte ptr [eax],dl
10005f20 48              dec     eax
10005f21 5f              pop     edi
10005f22 0010            add     byte ptr [eax],dl
10005f24 50              push    eax
10005f25 5f              pop     edi
10005f26 0010            add     byte ptr [eax],dl
10005f28 58              pop     eax
10005f29 5f              pop     edi
10005f2a 0010            add     byte ptr [eax],dl
10005f2c 60              pushad
10005f2d 5f              pop     edi
10005f2e 0010            add     byte ptr [eax],dl
10005f30 685f00107b      push    7B10005Fh
10005f35 5f              pop     edi
10005f36 0010            add     byte ptr [eax],dl
10005f38 8b448e1c        mov     eax,dword ptr [esi+ecx*4+1Ch]
10005f3c 89448f1c        mov     dword ptr [edi+ecx*4+1Ch],eax
10005f40 8b448e18        mov     eax,dword ptr [esi+ecx*4+18h]
10005f44 89448f18        mov     dword ptr [edi+ecx*4+18h],eax
10005f48 8b448e14        mov     eax,dword ptr [esi+ecx*4+14h]
10005f4c 89448f14        mov     dword ptr [edi+ecx*4+14h],eax
10005f50 8b448e10        mov     eax,dword ptr [esi+ecx*4+10h]
10005f54 89448f10        mov     dword ptr [edi+ecx*4+10h],eax
10005f58 8b448e0c        mov     eax,dword ptr [esi+ecx*4+0Ch]
10005f5c 89448f0c        mov     dword ptr [edi+ecx*4+0Ch],eax
10005f60 8b448e08        mov     eax,dword ptr [esi+ecx*4+8]
10005f64 89448f08        mov     dword ptr [edi+ecx*4+8],eax
10005f68 8b448e04        mov     eax,dword ptr [esi+ecx*4+4]
10005f6c 89448f04        mov     dword ptr [edi+ecx*4+4],eax
10005f70 8d048d00000000  lea     eax,[ecx*4]
10005f77 03f0            add     esi,eax
10005f79 03f8            add     edi,eax
10005f7b ff2495845f0010  jmp     dword ptr [edx*4+10005F84h]
10005f82 8bff            mov     edi,edi
10005f84 94              xchg    eax,esp
10005f85 5f              pop     edi
10005f86 0010            add     byte ptr [eax],dl
10005f88 9c              pushfd
10005f89 5f              pop     edi
10005f8a 0010            add     byte ptr [eax],dl
10005f8c ac              lods    byte ptr [esi]
10005f8d 5f              pop     edi
10005f8e 0010            add     byte ptr [eax],dl
10005f90 c05f0010        rcr     byte ptr [edi],10h
10005f94 8b44240c        mov     eax,dword ptr [esp+0Ch]
10005f98 5e              pop     esi
10005f99 5f              pop     edi
10005f9a c3              ret
10005f9b 90              nop
10005f9c 8a4603          mov     al,byte ptr [esi+3]
10005f9f 884703          mov     byte ptr [edi+3],al
10005fa2 8b44240c        mov     eax,dword ptr [esp+0Ch]
10005fa6 5e              pop     esi
10005fa7 5f              pop     edi
10005fa8 c3              ret
10005fa9 8d4900          lea     ecx,[ecx]
10005fac 8a4603          mov     al,byte ptr [esi+3]
10005faf 884703          mov     byte ptr [edi+3],al
10005fb2 8a4602          mov     al,byte ptr [esi+2]
10005fb5 884702          mov     byte ptr [edi+2],al
10005fb8 8b44240c        mov     eax,dword ptr [esp+0Ch]
10005fbc 5e              pop     esi
10005fbd 5f              pop     edi
10005fbe c3              ret
10005fbf 90              nop
10005fc0 8a4603          mov     al,byte ptr [esi+3]
10005fc3 884703          mov     byte ptr [edi+3],al
10005fc6 8a4602          mov     al,byte ptr [esi+2]
10005fc9 884702          mov     byte ptr [edi+2],al
10005fcc 8a4601          mov     al,byte ptr [esi+1]
10005fcf 884701          mov     byte ptr [edi+1],al
10005fd2 8b44240c        mov     eax,dword ptr [esp+0Ch]
10005fd6 5e              pop     esi
10005fd7 5f              pop     edi
10005fd8 c3              ret
10005fd9 8da42400000000  lea     esp,[esp]
10005fe0 57              push    edi
10005fe1 8bc6            mov     eax,esi
10005fe3 83e00f          and     eax,0Fh
10005fe6 85c0            test    eax,eax
10005fe8 0f85d2000000    jne     100060c0
10005fee 8bd1            mov     edx,ecx
10005ff0 83e17f          and     ecx,7Fh
10005ff3 c1ea07          shr     edx,7
10005ff6 7465            je      1000605d
10005ff8 8da42400000000  lea     esp,[esp]
10005fff 90              nop
10006000 660f6f06        movdqa  xmm0,xmmword ptr [esi]
10006004 660f6f4e10      movdqa  xmm1,xmmword ptr [esi+10h]
10006009 660f6f5620      movdqa  xmm2,xmmword ptr [esi+20h]
1000600e 660f6f5e30      movdqa  xmm3,xmmword ptr [esi+30h]
10006013 660f7f07        movdqa  xmmword ptr [edi],xmm0
10006017 660f7f4f10      movdqa  xmmword ptr [edi+10h],xmm1
1000601c 660f7f5720      movdqa  xmmword ptr [edi+20h],xmm2
10006021 660f7f5f30      movdqa  xmmword ptr [edi+30h],xmm3
10006026 660f6f6640      movdqa  xmm4,xmmword ptr [esi+40h]
1000602b 660f6f6e50      movdqa  xmm5,xmmword ptr [esi+50h]
10006030 660f6f7660      movdqa  xmm6,xmmword ptr [esi+60h]
10006035 660f6f7e70      movdqa  xmm7,xmmword ptr [esi+70h]
1000603a 660f7f6740      movdqa  xmmword ptr [edi+40h],xmm4
1000603f 660f7f6f50      movdqa  xmmword ptr [edi+50h],xmm5
10006044 660f7f7760      movdqa  xmmword ptr [edi+60h],xmm6
10006049 660f7f7f70      movdqa  xmmword ptr [edi+70h],xmm7
1000604e 8db680000000    lea     esi,[esi+80h]
10006054 8dbf80000000    lea     edi,[edi+80h]
1000605a 4a              dec     edx
1000605b 75a3            jne     10006000
1000605d 85c9            test    ecx,ecx
1000605f 744f            je      100060b0
10006061 8bd1            mov     edx,ecx
10006063 c1ea04          shr     edx,4
10006066 85d2            test    edx,edx
10006068 7417            je      10006081
1000606a 8d9b00000000    lea     ebx,[ebx]
10006070 660f6f06        movdqa  xmm0,xmmword ptr [esi]
10006074 660f7f07        movdqa  xmmword ptr [edi],xmm0
10006078 8d7610          lea     esi,[esi+10h]
1000607b 8d7f10          lea     edi,[edi+10h]
1000607e 4a              dec     edx
1000607f 75ef            jne     10006070
10006081 83e10f          and     ecx,0Fh
10006084 742a            je      100060b0
10006086 8bc1            mov     eax,ecx
10006088 c1e902          shr     ecx,2
1000608b 740d            je      1000609a
1000608d 8b16            mov     edx,dword ptr [esi]
1000608f 8917            mov     dword ptr [edi],edx
10006091 8d7604          lea     esi,[esi+4]
10006094 8d7f04          lea     edi,[edi+4]
10006097 49              dec     ecx
10006098 75f3            jne     1000608d
1000609a 8bc8            mov     ecx,eax
1000609c 83e103          and     ecx,3
1000609f 740f            je      100060b0
100060a1 8a06            mov     al,byte ptr [esi]
100060a3 8807            mov     byte ptr [edi],al
100060a5 46              inc     esi
100060a6 47              inc     edi
100060a7 49              dec     ecx
100060a8 75f7            jne     100060a1
100060aa 8d9b00000000    lea     ebx,[ebx]
100060b0 58              pop     eax
100060b1 5e              pop     esi
100060b2 5f              pop     edi
100060b3 c3              ret
100060b4 8da42400000000  lea     esp,[esp]
100060bb eb03            jmp     100060c0
100060bd cc              int     3
100060be cc              int     3
100060bf cc              int     3
100060c0 ba10000000      mov     edx,10h
100060c5 2bd0            sub     edx,eax
100060c7 2bca            sub     ecx,edx
100060c9 51              push    ecx
100060ca 8bc2            mov     eax,edx
100060cc 8bc8            mov     ecx,eax
100060ce 83e103          and     ecx,3
100060d1 7409            je      100060dc
100060d3 8a16            mov     dl,byte ptr [esi]
100060d5 8817            mov     byte ptr [edi],dl
100060d7 46              inc     esi
100060d8 47              inc     edi
100060d9 49              dec     ecx
100060da 75f7            jne     100060d3
100060dc c1e802          shr     eax,2
100060df 740d            je      100060ee
100060e1 8b16            mov     edx,dword ptr [esi]
100060e3 8917            mov     dword ptr [edi],edx
100060e5 8d7604          lea     esi,[esi+4]
100060e8 8d7f04          lea     edi,[edi+4]
100060eb 48              dec     eax
100060ec 75f3            jne     100060e1
100060ee 59              pop     ecx
100060ef e9fafeffff      jmp     10005fee
100060f4 55              push    ebp
100060f5 8bec            mov     ebp,esp
100060f7 8b4508          mov     eax,dword ptr [ebp+8]
100060fa 85c0            test    eax,eax
100060fc 7515            jne     10006113
100060fe e8dbbaffff      call    10001bde
10006103 c70016000000    mov     dword ptr [eax],16h
10006109 e8f2d4ffff      call    10003600
1000610e 83c8ff          or      eax,0FFFFFFFFh
10006111 5d              pop     ebp
10006112 c3              ret
10006113 8b4010          mov     eax,dword ptr [eax+10h]
10006116 5d              pop     ebp
10006117 c3              ret
10006118 55              push    ebp
10006119 8bec            mov     ebp,esp
1000611b 8b4d08          mov     ecx,dword ptr [ebp+8]
1000611e 83f9fe          cmp     ecx,0FFFFFFFEh
10006121 750d            jne     10006130
10006123 e8b6baffff      call    10001bde
10006128 c70009000000    mov     dword ptr [eax],9
1000612e eb38            jmp     10006168
10006130 85c9            test    ecx,ecx
10006132 7824            js      10006158
10006134 3b0d349e0010    cmp     ecx,dword ptr ds:[10009E34h]
1000613a 731c            jae     10006158
1000613c 8bc1            mov     eax,ecx
1000613e c1f805          sar     eax,5
10006141 83e11f          and     ecx,1Fh
10006144 8b048570830010  mov     eax,dword ptr [eax*4+10008370h]
1000614b c1e106          shl     ecx,6
1000614e 0fbe440804      movsx   eax,byte ptr [eax+ecx+4]
10006153 83e040          and     eax,40h
10006156 5d              pop     ebp
10006157 c3              ret
10006158 e881baffff      call    10001bde
1000615d c70009000000    mov     dword ptr [eax],9
10006163 e898d4ffff      call    10003600
10006168 33c0            xor     eax,eax
1000616a 5d              pop     ebp
1000616b c3              ret
1000616c 55              push    ebp
1000616d 8bec            mov     ebp,esp
1000616f 56              push    esi
10006170 8b7508          mov     esi,dword ptr [ebp+8]
10006173 85f6            test    esi,esi
10006175 7509            jne     10006180
10006177 56              push    esi
10006178 e8a2000000      call    1000621f
1000617d 59              pop     ecx
1000617e eb2f            jmp     100061af
10006180 56              push    esi
10006181 e82c000000      call    100061b2
10006186 59              pop     ecx
10006187 85c0            test    eax,eax
10006189 7405            je      10006190
1000618b 83c8ff          or      eax,0FFFFFFFFh
1000618e eb1f            jmp     100061af
10006190 f7460c00400000  test    dword ptr [esi+0Ch],4000h
10006197 7414            je      100061ad
10006199 56              push    esi
1000619a e855ffffff      call    100060f4
1000619f 50              push    eax
100061a0 e8c7050000      call    1000676c
100061a5 59              pop     ecx
100061a6 f7d8            neg     eax
100061a8 59              pop     ecx
100061a9 1bc0            sbb     eax,eax
100061ab eb02            jmp     100061af
100061ad 33c0            xor     eax,eax
100061af 5e              pop     esi
100061b0 5d              pop     ebp
100061b1 c3              ret
100061b2 55              push    ebp
100061b3 8bec            mov     ebp,esp
100061b5 53              push    ebx
100061b6 56              push    esi
100061b7 8b7508          mov     esi,dword ptr [ebp+8]
100061ba 33db            xor     ebx,ebx
100061bc 8b460c          mov     eax,dword ptr [esi+0Ch]
100061bf 2403            and     al,3
100061c1 3c02            cmp     al,2
100061c3 7542            jne     10006207
100061c5 f7460c08010000  test    dword ptr [esi+0Ch],108h
100061cc 7439            je      10006207
100061ce 57              push    edi
100061cf 8b3e            mov     edi,dword ptr [esi]
100061d1 2b7e08          sub     edi,dword ptr [esi+8]
100061d4 85ff            test    edi,edi
100061d6 7e2e            jle     10006206
100061d8 57              push    edi
100061d9 ff7608          push    dword ptr [esi+8]
100061dc 56              push    esi
100061dd e812ffffff      call    100060f4
100061e2 59              pop     ecx
100061e3 50              push    eax
100061e4 e869060000      call    10006852
100061e9 83c40c          add     esp,0Ch
100061ec 3bc7            cmp     eax,edi
100061ee 750f            jne     100061ff
100061f0 8b460c          mov     eax,dword ptr [esi+0Ch]
100061f3 84c0            test    al,al
100061f5 790f            jns     10006206
100061f7 83e0fd          and     eax,0FFFFFFFDh
100061fa 89460c          mov     dword ptr [esi+0Ch],eax
100061fd eb07            jmp     10006206
100061ff 834e0c20        or      dword ptr [esi+0Ch],20h
10006203 83cbff          or      ebx,0FFFFFFFFh
10006206 5f              pop     edi
10006207 8b4e08          mov     ecx,dword ptr [esi+8]
1000620a 83660400        and     dword ptr [esi+4],0
1000620e 890e            mov     dword ptr [esi],ecx
10006210 5e              pop     esi
10006211 8bc3            mov     eax,ebx
10006213 5b              pop     ebx
10006214 5d              pop     ebp
10006215 c3              ret
10006216 6a01            push    1
10006218 e802000000      call    1000621f
1000621d 59              pop     ecx
1000621e c3              ret
1000621f 6a14            push    14h
10006221 6880de0010      push    1000DE80h
10006226 e865ceffff      call    10003090
1000622b 33ff            xor     edi,edi
1000622d 897de4          mov     dword ptr [ebp-1Ch],edi
10006230 217ddc          and     dword ptr [ebp-24h],edi
10006233 6a01            push    1
10006235 e801d4ffff      call    1000363b
1000623a 59              pop     ecx
1000623b 217dfc          and     dword ptr [ebp-4],edi
1000623e 33f6            xor     esi,esi
10006240 8b5d08          mov     ebx,dword ptr [ebp+8]
10006243 8975e0          mov     dword ptr [ebp-20h],esi
10006246 3b358c8d0010    cmp     esi,dword ptr ds:[10008D8Ch]
1000624c 0f8d86000000    jge     100062d8
10006252 a1888d0010      mov     eax,dword ptr ds:[10008D88h]
10006257 8b04b0          mov     eax,dword ptr [eax+esi*4]
1000625a 85c0            test    eax,eax
1000625c 745d            je      100062bb
1000625e f6400c83        test    byte ptr [eax+0Ch],83h
10006262 7457            je      100062bb
10006264 50              push    eax
10006265 56              push    esi
10006266 e870e7ffff      call    100049db
1000626b 59              pop     ecx
1000626c 59              pop     ecx
1000626d c745fc01000000  mov     dword ptr [ebp-4],1
10006274 a1888d0010      mov     eax,dword ptr ds:[10008D88h]
10006279 8b04b0          mov     eax,dword ptr [eax+esi*4]
1000627c f6400c83        test    byte ptr [eax+0Ch],83h
10006280 7430            je      100062b2
10006282 83fb01          cmp     ebx,1
10006285 7512            jne     10006299
10006287 50              push    eax
10006288 e8dffeffff      call    1000616c
1000628d 59              pop     ecx
1000628e 83f8ff          cmp     eax,0FFFFFFFFh
10006291 741f            je      100062b2
10006293 47              inc     edi
10006294 897de4          mov     dword ptr [ebp-1Ch],edi
10006297 eb19            jmp     100062b2
10006299 85db            test    ebx,ebx
1000629b 7515            jne     100062b2
1000629d f6400c02        test    byte ptr [eax+0Ch],2
100062a1 740f            je      100062b2
100062a3 50              push    eax
100062a4 e8c3feffff      call    1000616c
100062a9 59              pop     ecx
100062aa 83f8ff          cmp     eax,0FFFFFFFFh
100062ad 7503            jne     100062b2
100062af 0945dc          or      dword ptr [ebp-24h],eax
100062b2 8365fc00        and     dword ptr [ebp-4],0
100062b6 e80c000000      call    100062c7
100062bb 46              inc     esi
100062bc eb85            jmp     10006243
100062be 8b5d08          mov     ebx,dword ptr [ebp+8]
100062c1 8b7de4          mov     edi,dword ptr [ebp-1Ch]
100062c4 8b75e0          mov     esi,dword ptr [ebp-20h]
100062c7 a1888d0010      mov     eax,dword ptr ds:[10008D88h]
100062cc ff34b0          push    dword ptr [eax+esi*4]
100062cf 56              push    esi
100062d0 e870e7ffff      call    10004a45
100062d5 59              pop     ecx
100062d6 59              pop     ecx
100062d7 c3              ret
100062d8 c745fcfeffffff  mov     dword ptr [ebp-4],0FFFFFFFEh
100062df e816000000      call    100062fa
100062e4 83fb01          cmp     ebx,1
100062e7 8bc7            mov     eax,edi
100062e9 7403            je      100062ee
100062eb 8b45dc          mov     eax,dword ptr [ebp-24h]
100062ee e8e2cdffff      call    100030d5
100062f3 c3              ret
100062f4 8b5d08          mov     ebx,dword ptr [ebp+8]
100062f7 8b7de4          mov     edi,dword ptr [ebp-1Ch]
100062fa 6a01            push    1
100062fc e89ed4ffff      call    1000379f
10006301 59              pop     ecx
10006302 c3              ret
10006303 cc              int     3
10006304 cc              int     3
10006305 cc              int     3
10006306 cc              int     3
10006307 cc              int     3
10006308 cc              int     3
10006309 cc              int     3
1000630a cc              int     3
1000630b cc              int     3
1000630c cc              int     3
1000630d cc              int     3
1000630e cc              int     3
1000630f cc              int     3
10006310 55              push    ebp
10006311 8bec            mov     ebp,esp
10006313 53              push    ebx
10006314 56              push    esi
10006315 57              push    edi
10006316 55              push    ebp
10006317 6a00            push    0
10006319 6a00            push    0
1000631b 6828630010      push    10006328h
10006320 ff7508          push    dword ptr [ebp+8]
10006323 e8a2150000      call    100078ca
10006328 5d              pop     ebp
10006329 5f              pop     edi
1000632a 5e              pop     esi
1000632b 5b              pop     ebx
1000632c 8be5            mov     esp,ebp
1000632e 5d              pop     ebp
1000632f c3              ret
10006330 8b4c2404        mov     ecx,dword ptr [esp+4]
10006334 f7410406000000  test    dword ptr [ecx+4],6
1000633b b801000000      mov     eax,1
10006340 7432            je      10006374
10006342 8b442414        mov     eax,dword ptr [esp+14h]
10006346 8b48fc          mov     ecx,dword ptr [eax-4]
10006349 33c8            xor     ecx,eax
1000634b e8d8b2ffff      call    10001628
10006350 55              push    ebp
10006351 8b6810          mov     ebp,dword ptr [eax+10h]
10006354 8b5028          mov     edx,dword ptr [eax+28h]
10006357 52              push    edx
10006358 8b5024          mov     edx,dword ptr [eax+24h]
1000635b 52              push    edx
1000635c e814000000      call    10006375
10006361 83c408          add     esp,8
10006364 5d              pop     ebp
10006365 8b442408        mov     eax,dword ptr [esp+8]
10006369 8b542410        mov     edx,dword ptr [esp+10h]
1000636d 8902            mov     dword ptr [edx],eax
1000636f b803000000      mov     eax,3
10006374 c3              ret
10006375 53              push    ebx
10006376 56              push    esi
10006377 57              push    edi
10006378 8b442410        mov     eax,dword ptr [esp+10h]
1000637c 55              push    ebp
1000637d 50              push    eax
1000637e 6afe            push    0FFFFFFFEh
10006380 6830630010      push    10006330h
10006385 64ff3500000000  push    dword ptr fs:[0]
1000638c a100f00010      mov     eax,dword ptr ds:[1000F000h]
10006391 33c4            xor     eax,esp
10006393 50              push    eax
10006394 8d442404        lea     eax,[esp+4]
10006398 64a300000000    mov     dword ptr fs:[00000000h],eax
1000639e 8b442428        mov     eax,dword ptr [esp+28h]
100063a2 8b5808          mov     ebx,dword ptr [eax+8]
100063a5 8b700c          mov     esi,dword ptr [eax+0Ch]
100063a8 83feff          cmp     esi,0FFFFFFFFh
100063ab 743a            je      100063e7
100063ad 837c242cff      cmp     dword ptr [esp+2Ch],0FFFFFFFFh
100063b2 7406            je      100063ba
100063b4 3b74242c        cmp     esi,dword ptr [esp+2Ch]
100063b8 762d            jbe     100063e7
100063ba 8d3476          lea     esi,[esi+esi*2]
100063bd 8b0cb3          mov     ecx,dword ptr [ebx+esi*4]
100063c0 894c240c        mov     dword ptr [esp+0Ch],ecx
100063c4 89480c          mov     dword ptr [eax+0Ch],ecx
100063c7 837cb30400      cmp     dword ptr [ebx+esi*4+4],0
100063cc 7517            jne     100063e5
100063ce 6801010000      push    101h
100063d3 8b44b308        mov     eax,dword ptr [ebx+esi*4+8]
100063d7 e849000000      call    10006425
100063dc 8b44b308        mov     eax,dword ptr [ebx+esi*4+8]
100063e0 e85f000000      call    10006444
100063e5 ebb7            jmp     1000639e
100063e7 8b4c2404        mov     ecx,dword ptr [esp+4]
100063eb 64890d00000000  mov     dword ptr fs:[0],ecx
100063f2 83c418          add     esp,18h
100063f5 5f              pop     edi
100063f6 5e              pop     esi
100063f7 5b              pop     ebx
100063f8 c3              ret
100063f9 33c0            xor     eax,eax
100063fb 648b0d00000000  mov     ecx,dword ptr fs:[0]
10006402 81790430630010  cmp     dword ptr [ecx+4],10006330h
10006409 7510            jne     1000641b
1000640b 8b510c          mov     edx,dword ptr [ecx+0Ch]
1000640e 8b520c          mov     edx,dword ptr [edx+0Ch]
10006411 395108          cmp     dword ptr [ecx+8],edx
10006414 7505            jne     1000641b
10006416 b801000000      mov     eax,1
1000641b c3              ret
1000641c 53              push    ebx
1000641d 51              push    ecx
1000641e bb60fd0010      mov     ebx,1000FD60h
10006423 eb0b            jmp     10006430
10006425 53              push    ebx
10006426 51              push    ecx
10006427 bb60fd0010      mov     ebx,1000FD60h
1000642c 8b4c240c        mov     ecx,dword ptr [esp+0Ch]
10006430 894b08          mov     dword ptr [ebx+8],ecx
10006433 894304          mov     dword ptr [ebx+4],eax
10006436 896b0c          mov     dword ptr [ebx+0Ch],ebp
10006439 55              push    ebp
1000643a 51              push    ecx
1000643b 50              push    eax
1000643c 58              pop     eax
1000643d 59              pop     ecx
1000643e 5d              pop     ebp
1000643f 59              pop     ecx
10006440 5b              pop     ebx
10006441 c20400          ret     4
10006444 ffd0            call    eax
10006446 c3              ret
10006447 6a10            push    10h
10006449 68a8de0010      push    1000DEA8h
1000644e e83dccffff      call    10003090
10006453 33ff            xor     edi,edi
10006455 897de4          mov     dword ptr [ebp-1Ch],edi
10006458 6a01            push    1
1000645a e8dcd1ffff      call    1000363b
1000645f 59              pop     ecx
10006460 217dfc          and     dword ptr [ebp-4],edi
10006463 6a03            push    3
10006465 5e              pop     esi
10006466 8975e0          mov     dword ptr [ebp-20h],esi
10006469 3b358c8d0010    cmp     esi,dword ptr ds:[10008D8Ch]
1000646f 7d53            jge     100064c4
10006471 a1888d0010      mov     eax,dword ptr ds:[10008D88h]
10006476 8b04b0          mov     eax,dword ptr [eax+esi*4]
10006479 85c0            test    eax,eax
1000647b 7444            je      100064c1
1000647d f6400c83        test    byte ptr [eax+0Ch],83h
10006481 7410            je      10006493
10006483 50              push    eax
10006484 e8410d0000      call    100071ca
10006489 59              pop     ecx
1000648a 83f8ff          cmp     eax,0FFFFFFFFh
1000648d 7404            je      10006493
1000648f 47              inc     edi
10006490 897de4          mov     dword ptr [ebp-1Ch],edi
10006493 83fe14          cmp     esi,14h
10006496 7c29            jl      100064c1
10006498 a1888d0010      mov     eax,dword ptr ds:[10008D88h]
1000649d 8b04b0          mov     eax,dword ptr [eax+esi*4]
100064a0 83c020          add     eax,20h
100064a3 50              push    eax
100064a4 ff1574a00010    call    dword ptr ds:[1000A074h]
100064aa a1888d0010      mov     eax,dword ptr ds:[10008D88h]
100064af ff34b0          push    dword ptr [eax+esi*4]
100064b2 e82bb2ffff      call    100016e2
100064b7 59              pop     ecx
100064b8 a1888d0010      mov     eax,dword ptr ds:[10008D88h]
100064bd 8324b000        and     dword ptr [eax+esi*4],0
100064c1 46              inc     esi
100064c2 eba2            jmp     10006466
100064c4 c745fcfeffffff  mov     dword ptr [ebp-4],0FFFFFFFEh
100064cb e80b000000      call    100064db
100064d0 8bc7            mov     eax,edi
100064d2 e8fecbffff      call    100030d5
100064d7 c3              ret
100064d8 8b7de4          mov     edi,dword ptr [ebp-1Ch]
100064db 6a01            push    1
100064dd e8bdd2ffff      call    1000379f
100064e2 59              pop     ecx
100064e3 c3              ret
100064e4 85c0            test    eax,eax
100064e6 7506            jne     100064ee
100064e8 660fefc0        pxor    xmm0,xmm0
100064ec eb11            jmp     100064ff
100064ee 660f6ec0        movd    xmm0,eax
100064f2 660f60c0        punpcklbw xmm0,xmm0
100064f6 660f61c0        punpcklwd xmm0,xmm0
100064fa 660f70c000      pshufd  xmm0,xmm0,0
100064ff 53              push    ebx
10006500 51              push    ecx
10006501 8bd9            mov     ebx,ecx
10006503 83e30f          and     ebx,0Fh
10006506 85db            test    ebx,ebx
10006508 7578            jne     10006582
1000650a 8bda            mov     ebx,edx
1000650c 83e27f          and     edx,7Fh
1000650f c1eb07          shr     ebx,7
10006512 7430            je      10006544
10006514 660f7f01        movdqa  xmmword ptr [ecx],xmm0
10006518 660f7f4110      movdqa  xmmword ptr [ecx+10h],xmm0
1000651d 660f7f4120      movdqa  xmmword ptr [ecx+20h],xmm0
10006522 660f7f4130      movdqa  xmmword ptr [ecx+30h],xmm0
10006527 660f7f4140      movdqa  xmmword ptr [ecx+40h],xmm0
1000652c 660f7f4150      movdqa  xmmword ptr [ecx+50h],xmm0
10006531 660f7f4160      movdqa  xmmword ptr [ecx+60h],xmm0
10006536 660f7f4170      movdqa  xmmword ptr [ecx+70h],xmm0
1000653b 8d8980000000    lea     ecx,[ecx+80h]
10006541 4b              dec     ebx
10006542 75d0            jne     10006514
10006544 85d2            test    edx,edx
10006546 7437            je      1000657f
10006548 8bda            mov     ebx,edx
1000654a c1eb04          shr     ebx,4
1000654d 740f            je      1000655e
1000654f eb03            jmp     10006554
10006551 8d4900          lea     ecx,[ecx]
10006554 660f7f01        movdqa  xmmword ptr [ecx],xmm0
10006558 8d4910          lea     ecx,[ecx+10h]
1000655b 4b              dec     ebx
1000655c 75f6            jne     10006554
1000655e 83e20f          and     edx,0Fh
10006561 741c            je      1000657f
10006563 8bda            mov     ebx,edx
10006565 c1ea02          shr     edx,2
10006568 740a            je      10006574
1000656a 660f7e01        movd    dword ptr [ecx],xmm0
1000656e 8d4904          lea     ecx,[ecx+4]
10006571 4a              dec     edx
10006572 75f6            jne     1000656a
10006574 83e303          and     ebx,3
10006577 7406            je      1000657f
10006579 8801            mov     byte ptr [ecx],al
1000657b 41              inc     ecx
1000657c 4b              dec     ebx
1000657d 75fa            jne     10006579
1000657f 58              pop     eax
10006580 5b              pop     ebx
10006581 c3              ret
10006582 f7db            neg     ebx
10006584 83c310          add     ebx,10h
10006587 2bd3            sub     edx,ebx
10006589 52              push    edx
1000658a 8bd3            mov     edx,ebx
1000658c 83e203          and     edx,3
1000658f 7406            je      10006597
10006591 8801            mov     byte ptr [ecx],al
10006593 41              inc     ecx
10006594 4a              dec     edx
10006595 75fa            jne     10006591
10006597 c1eb02          shr     ebx,2
1000659a 740a            je      100065a6
1000659c 660f7e01        movd    dword ptr [ecx],xmm0
100065a0 8d4904          lea     ecx,[ecx+4]
100065a3 4b              dec     ebx
100065a4 75f6            jne     1000659c
100065a6 5a              pop     edx
100065a7 e95effffff      jmp     1000650a
100065ac 55              push    ebp
100065ad 8bec            mov     ebp,esp
100065af 8325748d001000  and     dword ptr ds:[10008D74h],0
100065b6 83ec10          sub     esp,10h
100065b9 53              push    ebx
100065ba 33db            xor     ebx,ebx
100065bc 43              inc     ebx
100065bd 091d70fd0010    or      dword ptr ds:[1000FD70h],ebx
100065c3 6a0a            push    0Ah
100065c5 e8fa120000      call    100078c4
100065ca 85c0            test    eax,eax
100065cc 0f840e010000    je      100066e0
100065d2 33c9            xor     ecx,ecx
100065d4 8bc3            mov     eax,ebx
100065d6 891d748d0010    mov     dword ptr ds:[10008D74h],ebx
100065dc 0fa2            cpuid
100065de 56              push    esi
100065df 8b3570fd0010    mov     esi,dword ptr ds:[1000FD70h]
100065e5 57              push    edi
100065e6 8d7df0          lea     edi,[ebp-10h]
100065e9 83ce02          or      esi,2
100065ec 8907            mov     dword ptr [edi],eax
100065ee 895f04          mov     dword ptr [edi+4],ebx
100065f1 894f08          mov     dword ptr [edi+8],ecx
100065f4 89570c          mov     dword ptr [edi+0Ch],edx
100065f7 f745f800001000  test    dword ptr [ebp-8],100000h
100065fe 893570fd0010    mov     dword ptr ds:[1000FD70h],esi
10006604 7413            je      10006619
10006606 83ce04          or      esi,4
10006609 c705748d001002000000 mov dword ptr ds:[10008D74h],2
10006613 893570fd0010    mov     dword ptr ds:[1000FD70h],esi
10006619 f745f800000010  test    dword ptr [ebp-8],10000000h
10006620 7413            je      10006635
10006622 83ce08          or      esi,8
10006625 c705748d001003000000 mov dword ptr ds:[10008D74h],3
1000662f 893570fd0010    mov     dword ptr ds:[1000FD70h],esi
10006635 6a07            push    7
10006637 33c9            xor     ecx,ecx
10006639 58              pop     eax
1000663a 0fa2            cpuid
1000663c 8d75f0          lea     esi,[ebp-10h]
1000663f 8906            mov     dword ptr [esi],eax
10006641 895e04          mov     dword ptr [esi+4],ebx
10006644 894e08          mov     dword ptr [esi+8],ecx
10006647 89560c          mov     dword ptr [esi+0Ch],edx
1000664a f745f400020000  test    dword ptr [ebp-0Ch],200h
10006651 8b35788d0010    mov     esi,dword ptr ds:[10008D78h]
10006657 7409            je      10006662
10006659 83ce02          or      esi,2
1000665c 8935788d0010    mov     dword ptr ds:[10008D78h],esi
10006662 33c0            xor     eax,eax
10006664 33c9            xor     ecx,ecx
10006666 0fa2            cpuid
10006668 8d7df0          lea     edi,[ebp-10h]
1000666b 8907            mov     dword ptr [edi],eax
1000666d 895f04          mov     dword ptr [edi+4],ebx
10006670 894f08          mov     dword ptr [edi+8],ecx
10006673 89570c          mov     dword ptr [edi+0Ch],edx
10006676 817df447656e75  cmp     dword ptr [ebp-0Ch],756E6547h
1000667d 755f            jne     100066de
1000667f 817dfc696e6549  cmp     dword ptr [ebp-4],49656E69h
10006686 7556            jne     100066de
10006688 817df86e74656c  cmp     dword ptr [ebp-8],6C65746Eh
1000668f 754d            jne     100066de
10006691 33c0            xor     eax,eax
10006693 40              inc     eax
10006694 33c9            xor     ecx,ecx
10006696 0fa2            cpuid
10006698 8907            mov     dword ptr [edi],eax
1000669a 895f04          mov     dword ptr [edi+4],ebx
1000669d 894f08          mov     dword ptr [edi+8],ecx
100066a0 89570c          mov     dword ptr [edi+0Ch],edx
100066a3 8b45f0          mov     eax,dword ptr [ebp-10h]
100066a6 25f03fff0f      and     eax,0FFF3FF0h
100066ab 3dc0060100      cmp     eax,106C0h
100066b0 7423            je      100066d5
100066b2 3d60060200      cmp     eax,20660h
100066b7 741c            je      100066d5
100066b9 3d70060200      cmp     eax,20670h
100066be 7415            je      100066d5
100066c0 3d50060300      cmp     eax,30650h
100066c5 740e            je      100066d5
100066c7 3d60060300      cmp     eax,30660h
100066cc 7407            je      100066d5
100066ce 3d70060300      cmp     eax,30670h
100066d3 7509            jne     100066de
100066d5 83ce01          or      esi,1
100066d8 8935788d0010    mov     dword ptr ds:[10008D78h],esi
100066de 5f              pop     edi
100066df 5e              pop     esi
100066e0 33c0            xor     eax,eax
100066e2 5b              pop     ebx
100066e3 c9              leave
100066e4 c3              ret
100066e5 6a08            push    8
100066e7 68c8de0010      push    1000DEC8h
100066ec e89fc9ffff      call    10003090
100066f1 be60f40010      mov     esi,1000F460h
100066f6 39355cf40010    cmp     dword ptr ds:[1000F45Ch],esi
100066fc 742a            je      10006728
100066fe 6a0c            push    0Ch
10006700 e836cfffff      call    1000363b
10006705 59              pop     ecx
10006706 8365fc00        and     dword ptr [ebp-4],0
1000670a 56              push    esi
1000670b 685cf40010      push    1000F45Ch
10006710 e8a0d3ffff      call    10003ab5
10006715 59              pop     ecx
10006716 59              pop     ecx
10006717 a35cf40010      mov     dword ptr ds:[1000F45Ch],eax
1000671c c745fcfeffffff  mov     dword ptr [ebp-4],0FFFFFFFEh
10006723 e806000000      call    1000672e
10006728 e8a8c9ffff      call    100030d5
1000672d c3              ret
1000672e 6a0c            push    0Ch
10006730 e86ad0ffff      call    1000379f
10006735 59              pop     ecx
10006736 c3              ret
10006737 cc              int     3
10006738 cc              int     3
10006739 cc              int     3
1000673a cc              int     3
1000673b cc              int     3
1000673c cc              int     3
1000673d cc              int     3
1000673e cc              int     3
1000673f cc              int     3
10006740 51              push    ecx
10006741 8d4c2408        lea     ecx,[esp+8]
10006745 2bc8            sub     ecx,eax
10006747 83e10f          and     ecx,0Fh
1000674a 03c1            add     eax,ecx
1000674c 1bc9            sbb     ecx,ecx
1000674e 0bc1            or      eax,ecx
10006750 59              pop     ecx
10006751 e9fa0a0000      jmp     10007250
10006756 51              push    ecx
10006757 8d4c2408        lea     ecx,[esp+8]
1000675b 2bc8            sub     ecx,eax
1000675d 83e107          and     ecx,7
10006760 03c1            add     eax,ecx
10006762 1bc9            sbb     ecx,ecx
10006764 0bc1            or      eax,ecx
10006766 59              pop     ecx
10006767 e9e40a0000      jmp     10007250
1000676c 6a14            push    14h
1000676e 68e8de0010      push    1000DEE8h
10006773 e818c9ffff      call    10003090
10006778 8b7d08          mov     edi,dword ptr [ebp+8]
1000677b 83fffe          cmp     edi,0FFFFFFFEh
1000677e 7510            jne     10006790
10006780 e859b4ffff      call    10001bde
10006785 c70009000000    mov     dword ptr [eax],9
1000678b e9b9000000      jmp     10006849
10006790 85ff            test    edi,edi
10006792 0f88a1000000    js      10006839
10006798 3b3d349e0010    cmp     edi,dword ptr ds:[10009E34h]
1000679e 0f8395000000    jae     10006839
100067a4 8bc7            mov     eax,edi
100067a6 c1f805          sar     eax,5
100067a9 8945e0          mov     dword ptr [ebp-20h],eax
100067ac 8bdf            mov     ebx,edi
100067ae 83e31f          and     ebx,1Fh
100067b1 c1e306          shl     ebx,6
100067b4 8b048570830010  mov     eax,dword ptr [eax*4+10008370h]
100067bb 0fbe440304      movsx   eax,byte ptr [ebx+eax+4]
100067c0 83e001          and     eax,1
100067c3 7474            je      10006839
100067c5 57              push    edi
100067c6 e8b00a0000      call    1000727b
100067cb 59              pop     ecx
100067cc 33f6            xor     esi,esi
100067ce 8975fc          mov     dword ptr [ebp-4],esi
100067d1 8b45e0          mov     eax,dword ptr [ebp-20h]
100067d4 8b048570830010  mov     eax,dword ptr [eax*4+10008370h]
100067db f644030401      test    byte ptr [ebx+eax+4],1
100067e0 7428            je      1000680a
100067e2 57              push    edi
100067e3 e8a50b0000      call    1000738d
100067e8 59              pop     ecx
100067e9 50              push    eax
100067ea ff15f8a00010    call    dword ptr ds:[1000A0F8h]
100067f0 85c0            test    eax,eax
100067f2 7508            jne     100067fc
100067f4 ff1530a00010    call    dword ptr ds:[1000A030h]
100067fa 8bf0            mov     esi,eax
100067fc 8975e4          mov     dword ptr [ebp-1Ch],esi
100067ff 85f6            test    esi,esi
10006801 7418            je      1000681b
10006803 e8a2b3ffff      call    10001baa
10006808 8930            mov     dword ptr [eax],esi
1000680a e8cfb3ffff      call    10001bde
1000680f c70009000000    mov     dword ptr [eax],9
10006815 83ceff          or      esi,0FFFFFFFFh
10006818 8975e4          mov     dword ptr [ebp-1Ch],esi
1000681b c745fcfeffffff  mov     dword ptr [ebp-4],0FFFFFFFEh
10006822 e80a000000      call    10006831
10006827 8bc6            mov     eax,esi
10006829 eb21            jmp     1000684c
1000682b 8b7d08          mov     edi,dword ptr [ebp+8]
1000682e 8b75e4          mov     esi,dword ptr [ebp-1Ch]
10006831 57              push    edi
10006832 e8bd0b0000      call    100073f4
10006837 59              pop     ecx
10006838 c3              ret
10006839 e8a0b3ffff      call    10001bde
1000683e c70009000000    mov     dword ptr [eax],9
10006844 e8b7cdffff      call    10003600
10006849 83c8ff          or      eax,0FFFFFFFFh
1000684c e884c8ffff      call    100030d5
10006851 c3              ret
10006852 6a10            push    10h
10006854 6808df0010      push    1000DF08h
10006859 e832c8ffff      call    10003090
1000685e 8b7508          mov     esi,dword ptr [ebp+8]
10006861 83fefe          cmp     esi,0FFFFFFFEh
10006864 7518            jne     1000687e
10006866 e83fb3ffff      call    10001baa
1000686b 832000          and     dword ptr [eax],0
1000686e e86bb3ffff      call    10001bde
10006873 c70009000000    mov     dword ptr [eax],9
10006879 e9ad000000      jmp     1000692b
1000687e 85f6            test    esi,esi
10006880 0f888d000000    js      10006913
10006886 3b35349e0010    cmp     esi,dword ptr ds:[10009E34h]
1000688c 0f8381000000    jae     10006913
10006892 8bde            mov     ebx,esi
10006894 c1fb05          sar     ebx,5
10006897 8bfe            mov     edi,esi
10006899 83e71f          and     edi,1Fh
1000689c c1e706          shl     edi,6
1000689f 8b049d70830010  mov     eax,dword ptr [ebx*4+10008370h]
100068a6 0fbe443804      movsx   eax,byte ptr [eax+edi+4]
100068ab 83e001          and     eax,1
100068ae 7463            je      10006913
100068b0 56              push    esi
100068b1 e8c5090000      call    1000727b
100068b6 59              pop     ecx
100068b7 8365fc00        and     dword ptr [ebp-4],0
100068bb 8b049d70830010  mov     eax,dword ptr [ebx*4+10008370h]
100068c2 f644380401      test    byte ptr [eax+edi+4],1
100068c7 7413            je      100068dc
100068c9 ff7510          push    dword ptr [ebp+10h]
100068cc ff750c          push    dword ptr [ebp+0Ch]
100068cf 56              push    esi
100068d0 e85f000000      call    10006934
100068d5 83c40c          add     esp,0Ch
100068d8 8bf8            mov     edi,eax
100068da eb16            jmp     100068f2
100068dc e8fdb2ffff      call    10001bde
100068e1 c70009000000    mov     dword ptr [eax],9
100068e7 e8beb2ffff      call    10001baa
100068ec 832000          and     dword ptr [eax],0
100068ef 83cfff          or      edi,0FFFFFFFFh
100068f2 897de4          mov     dword ptr [ebp-1Ch],edi
100068f5 c745fcfeffffff  mov     dword ptr [ebp-4],0FFFFFFFEh
100068fc e80a000000      call    1000690b
10006901 8bc7            mov     eax,edi
10006903 eb29            jmp     1000692e
10006905 8b7508          mov     esi,dword ptr [ebp+8]
10006908 8b7de4          mov     edi,dword ptr [ebp-1Ch]
1000690b 56              push    esi
1000690c e8e30a0000      call    100073f4
10006911 59              pop     ecx
10006912 c3              ret
10006913 e892b2ffff      call    10001baa
10006918 832000          and     dword ptr [eax],0
1000691b e8beb2ffff      call    10001bde
10006920 c70009000000    mov     dword ptr [eax],9
10006926 e8d5ccffff      call    10003600
1000692b 83c8ff          or      eax,0FFFFFFFFh
1000692e e8a2c7ffff      call    100030d5
10006933 c3              ret
10006934 55              push    ebp
10006935 8bec            mov     ebp,esp
10006937 b8f01a0000      mov     eax,1AF0h
1000693c e80f090000      call    10007250
10006941 a100f00010      mov     eax,dword ptr ds:[1000F000h]
10006946 33c5            xor     eax,ebp
10006948 8945fc          mov     dword ptr [ebp-4],eax
1000694b 8b4508          mov     eax,dword ptr [ebp+8]
1000694e 8b4d0c          mov     ecx,dword ptr [ebp+0Ch]
10006951 33d2            xor     edx,edx
10006953 57              push    edi
10006954 8bfa            mov     edi,edx
10006956 898540e5ffff    mov     dword ptr [ebp-1AC0h],eax
1000695c 898d44e5ffff    mov     dword ptr [ebp-1ABCh],ecx
10006962 89bd3ce5ffff    mov     dword ptr [ebp-1AC4h],edi
10006968 89952ce5ffff    mov     dword ptr [ebp-1AD4h],edx
1000696e 395510          cmp     dword ptr [ebp+10h],edx
10006971 7507            jne     1000697a
10006973 33c0            xor     eax,eax
10006975 e9d7070000      jmp     10007151
1000697a 85c9            test    ecx,ecx
1000697c 751f            jne     1000699d
1000697e e827b2ffff      call    10001baa
10006983 2138            and     dword ptr [eax],edi
10006985 e854b2ffff      call    10001bde
1000698a c70016000000    mov     dword ptr [eax],16h
10006990 e86bccffff      call    10003600
10006995 83c8ff          or      eax,0FFFFFFFFh
10006998 e9b4070000      jmp     10007151
1000699d 53              push    ebx
1000699e 56              push    esi
1000699f 8bc8            mov     ecx,eax
100069a1 c1f905          sar     ecx,5
100069a4 8bf0            mov     esi,eax
100069a6 83e61f          and     esi,1Fh
100069a9 c1e606          shl     esi,6
100069ac 898d30e5ffff    mov     dword ptr [ebp-1AD0h],ecx
100069b2 8b0c8d70830010  mov     ecx,dword ptr [ecx*4+10008370h]
100069b9 89b514e5ffff    mov     dword ptr [ebp-1AECh],esi
100069bf 8a5c0e24        mov     bl,byte ptr [esi+ecx+24h]
100069c3 02db            add     bl,bl
100069c5 d0fb            sar     bl,1
100069c7 80fb02          cmp     bl,2
100069ca 7405            je      100069d1
100069cc 80fb01          cmp     bl,1
100069cf 752b            jne     100069fc
100069d1 8b4510          mov     eax,dword ptr [ebp+10h]
100069d4 f7d0            not     eax
100069d6 a801            test    al,1
100069d8 751c            jne     100069f6
100069da e8cbb1ffff      call    10001baa
100069df 2138            and     dword ptr [eax],edi
100069e1 e8f8b1ffff      call    10001bde
100069e6 c70016000000    mov     dword ptr [eax],16h
100069ec e80fccffff      call    10003600
100069f1 e94c070000      jmp     10007142
100069f6 8b8540e5ffff    mov     eax,dword ptr [ebp-1AC0h]
100069fc f6440e0420      test    byte ptr [esi+ecx+4],20h
10006a01 740d            je      10006a10
10006a03 6a02            push    2
10006a05 52              push    edx
10006a06 52              push    edx
10006a07 50              push    eax
10006a08 e8540a0000      call    10007461
10006a0d 83c410          add     esp,10h
10006a10 ffb540e5ffff    push    dword ptr [ebp-1AC0h]
10006a16 e8fdf6ffff      call    10006118
10006a1b 59              pop     ecx
10006a1c 85c0            test    eax,eax
10006a1e 0f8418030000    je      10006d3c
10006a24 8b8530e5ffff    mov     eax,dword ptr [ebp-1AD0h]
10006a2a 8b048570830010  mov     eax,dword ptr [eax*4+10008370h]
10006a31 f644060480      test    byte ptr [esi+eax+4],80h
10006a36 0f8400030000    je      10006d3c
10006a3c e827b5ffff      call    10001f68
10006a41 8b406c          mov     eax,dword ptr [eax+6Ch]
10006a44 33c9            xor     ecx,ecx
10006a46 3988a8000000    cmp     dword ptr [eax+0A8h],ecx
10006a4c 8d851ce5ffff    lea     eax,[ebp-1AE4h]
10006a52 50              push    eax
10006a53 8b8530e5ffff    mov     eax,dword ptr [ebp-1AD0h]
10006a59 0f94c1          sete    cl
10006a5c 8b048570830010  mov     eax,dword ptr [eax*4+10008370h]
10006a63 ff3406          push    dword ptr [esi+eax]
10006a66 898d40e5ffff    mov     dword ptr [ebp-1AC0h],ecx
10006a6c ff1500a10010    call    dword ptr ds:[1000A100h]
10006a72 85c0            test    eax,eax
10006a74 0f84c2020000    je      10006d3c
10006a7a 39bd40e5ffff    cmp     dword ptr [ebp-1AC0h],edi
10006a80 7408            je      10006a8a
10006a82 84db            test    bl,bl
10006a84 0f84b2020000    je      10006d3c
10006a8a ff15fca00010    call    dword ptr ds:[1000A0FCh]
10006a90 8b9544e5ffff    mov     edx,dword ptr [ebp-1ABCh]
10006a96 21bd24e5ffff    and     dword ptr [ebp-1ADCh],edi
10006a9c 8bca            mov     ecx,edx
10006a9e 898510e5ffff    mov     dword ptr [ebp-1AF0h],eax
10006aa4 898d34e5ffff    mov     dword ptr [ebp-1ACCh],ecx
10006aaa 397d10          cmp     dword ptr [ebp+10h],edi
10006aad 0f867e020000    jbe     10006d31
10006ab3 33c0            xor     eax,eax
10006ab5 898538e5ffff    mov     dword ptr [ebp-1AC8h],eax
10006abb c78518e5ffff0a000000 mov dword ptr [ebp-1AE8h],0Ah
10006ac5 84db            test    bl,bl
10006ac7 0f858f010000    jne     10006c5c
10006acd 8a09            mov     cl,byte ptr [ecx]
10006acf 33c0            xor     eax,eax
10006ad1 80f90a          cmp     cl,0Ah
10006ad4 0f94c0          sete    al
10006ad7 898540e5ffff    mov     dword ptr [ebp-1AC0h],eax
10006add 8b8530e5ffff    mov     eax,dword ptr [ebp-1AD0h]
10006ae3 8b148570830010  mov     edx,dword ptr [eax*4+10008370h]
10006aea 837c163800      cmp     dword ptr [esi+edx+38h],0
10006aef 7417            je      10006b08
10006af1 8a441634        mov     al,byte ptr [esi+edx+34h]
10006af5 8845f4          mov     byte ptr [ebp-0Ch],al
10006af8 6a02            push    2
10006afa 8d45f4          lea     eax,[ebp-0Ch]
10006afd 884df5          mov     byte ptr [ebp-0Bh],cl
10006b00 8364163800      and     dword ptr [esi+edx+38h],0
10006b05 50              push    eax
10006b06 eb5a            jmp     10006b62
10006b08 0fbec1          movsx   eax,cl
10006b0b 50              push    eax
10006b0c e83f090000      call    10007450
10006b11 59              pop     ecx
10006b12 85c0            test    eax,eax
10006b14 7444            je      10006b5a
10006b16 8b8544e5ffff    mov     eax,dword ptr [ebp-1ABCh]
10006b1c 8b9534e5ffff    mov     edx,dword ptr [ebp-1ACCh]
10006b22 2bc2            sub     eax,edx
10006b24 034510          add     eax,dword ptr [ebp+10h]
10006b27 83f801          cmp     eax,1
10006b2a 0f86d3010000    jbe     10006d03
10006b30 6a02            push    2
10006b32 52              push    edx
10006b33 8d853ce5ffff    lea     eax,[ebp-1AC4h]
10006b39 50              push    eax
10006b3a e8860a0000      call    100075c5
10006b3f 83c40c          add     esp,0Ch
10006b42 83f8ff          cmp     eax,0FFFFFFFFh
10006b45 0f84db010000    je      10006d26
10006b4b 8b8534e5ffff    mov     eax,dword ptr [ebp-1ACCh]
10006b51 40              inc     eax
10006b52 ff8538e5ffff    inc     dword ptr [ebp-1AC8h]
10006b58 eb26            jmp     10006b80
10006b5a 6a01            push    1
10006b5c ffb534e5ffff    push    dword ptr [ebp-1ACCh]
10006b62 8d853ce5ffff    lea     eax,[ebp-1AC4h]
10006b68 50              push    eax
10006b69 e8570a0000      call    100075c5
10006b6e 83c40c          add     esp,0Ch
10006b71 83f8ff          cmp     eax,0FFFFFFFFh
10006b74 0f84ac010000    je      10006d26
10006b7a 8b8534e5ffff    mov     eax,dword ptr [ebp-1ACCh]
10006b80 33c9            xor     ecx,ecx
10006b82 51              push    ecx
10006b83 51              push    ecx
10006b84 40              inc     eax
10006b85 ff8538e5ffff    inc     dword ptr [ebp-1AC8h]
10006b8b 6a05            push    5
10006b8d 898534e5ffff    mov     dword ptr [ebp-1ACCh],eax
10006b93 8d45f4          lea     eax,[ebp-0Ch]
10006b96 50              push    eax
10006b97 6a01            push    1
10006b99 8d853ce5ffff    lea     eax,[ebp-1AC4h]
10006b9f 50              push    eax
10006ba0 51              push    ecx
10006ba1 ffb510e5ffff    push    dword ptr [ebp-1AF0h]
10006ba7 ff1594a00010    call    dword ptr ds:[1000A094h]
10006bad 89851ce5ffff    mov     dword ptr [ebp-1AE4h],eax
10006bb3 85c0            test    eax,eax
10006bb5 0f846b010000    je      10006d26
10006bbb 6a00            push    0
10006bbd 8d8d24e5ffff    lea     ecx,[ebp-1ADCh]
10006bc3 51              push    ecx
10006bc4 50              push    eax
10006bc5 8d45f4          lea     eax,[ebp-0Ch]
10006bc8 50              push    eax
10006bc9 8b8530e5ffff    mov     eax,dword ptr [ebp-1AD0h]
10006bcf 8b048570830010  mov     eax,dword ptr [eax*4+10008370h]
10006bd6 ff3406          push    dword ptr [esi+eax]
10006bd9 ff15bca00010    call    dword ptr ds:[1000A0BCh]
10006bdf 85c0            test    eax,eax
10006be1 0f84eb040000    je      100070d2
10006be7 8bbd38e5ffff    mov     edi,dword ptr [ebp-1AC8h]
10006bed 8b851ce5ffff    mov     eax,dword ptr [ebp-1AE4h]
10006bf3 03bd2ce5ffff    add     edi,dword ptr [ebp-1AD4h]
10006bf9 398524e5ffff    cmp     dword ptr [ebp-1ADCh],eax
10006bff 0f8c21010000    jl      10006d26
10006c05 83bd40e5ffff00  cmp     dword ptr [ebp-1AC0h],0
10006c0c 0f84da000000    je      10006cec
10006c12 6a00            push    0
10006c14 8d8524e5ffff    lea     eax,[ebp-1ADCh]
10006c1a 50              push    eax
10006c1b 6a01            push    1
10006c1d 8d45f4          lea     eax,[ebp-0Ch]
10006c20 50              push    eax
10006c21 8b8530e5ffff    mov     eax,dword ptr [ebp-1AD0h]
10006c27 c645f40d        mov     byte ptr [ebp-0Ch],0Dh
10006c2b 8b048570830010  mov     eax,dword ptr [eax*4+10008370h]
10006c32 ff3406          push    dword ptr [esi+eax]
10006c35 ff15bca00010    call    dword ptr ds:[1000A0BCh]
10006c3b 85c0            test    eax,eax
10006c3d 0f848f040000    je      100070d2
10006c43 83bd24e5ffff01  cmp     dword ptr [ebp-1ADCh],1
10006c4a 0f8cd6000000    jl      10006d26
10006c50 ff852ce5ffff    inc     dword ptr [ebp-1AD4h]
10006c56 47              inc     edi
10006c57 e990000000      jmp     10006cec
10006c5c 80fb01          cmp     bl,1
10006c5f 7405            je      10006c66
10006c61 80fb02          cmp     bl,2
10006c64 7533            jne     10006c99
10006c66 0fb701          movzx   eax,word ptr [ecx]
10006c69 33d2            xor     edx,edx
10006c6b 663b8518e5ffff  cmp     ax,word ptr [ebp-1AE8h]
10006c72 89853ce5ffff    mov     dword ptr [ebp-1AC4h],eax
10006c78 8b8538e5ffff    mov     eax,dword ptr [ebp-1AC8h]
10006c7e 0f94c2          sete    dl
10006c81 83c102          add     ecx,2
10006c84 83c002          add     eax,2
10006c87 898d34e5ffff    mov     dword ptr [ebp-1ACCh],ecx
10006c8d 898538e5ffff    mov     dword ptr [ebp-1AC8h],eax
10006c93 899540e5ffff    mov     dword ptr [ebp-1AC0h],edx
10006c99 80fb01          cmp     bl,1
10006c9c 7405            je      10006ca3
10006c9e 80fb02          cmp     bl,2
10006ca1 7555            jne     10006cf8
10006ca3 ffb53ce5ffff    push    dword ptr [ebp-1AC4h]
10006ca9 e82f090000      call    100075dd
10006cae 59              pop     ecx
10006caf 663b853ce5ffff  cmp     ax,word ptr [ebp-1AC4h]
10006cb6 0f8516040000    jne     100070d2
10006cbc 83c702          add     edi,2
10006cbf 83bd40e5ffff00  cmp     dword ptr [ebp-1AC0h],0
10006cc6 7424            je      10006cec
10006cc8 6a0d            push    0Dh
10006cca 58              pop     eax
10006ccb 50              push    eax
10006ccc 89853ce5ffff    mov     dword ptr [ebp-1AC4h],eax
10006cd2 e806090000      call    100075dd
10006cd7 59              pop     ecx
10006cd8 663b853ce5ffff  cmp     ax,word ptr [ebp-1AC4h]
10006cdf 0f85ed030000    jne     100070d2
10006ce5 47              inc     edi
10006ce6 ff852ce5ffff    inc     dword ptr [ebp-1AD4h]
10006cec 8b8538e5ffff    mov     eax,dword ptr [ebp-1AC8h]
10006cf2 8b8d34e5ffff    mov     ecx,dword ptr [ebp-1ACCh]
10006cf8 3b4510          cmp     eax,dword ptr [ebp+10h]
10006cfb 0f82c4fdffff    jb      10006ac5
10006d01 eb23            jmp     10006d26
10006d03 8b9d30e5ffff    mov     ebx,dword ptr [ebp-1AD0h]
10006d09 8a02            mov     al,byte ptr [edx]
10006d0b 8b0c9d70830010  mov     ecx,dword ptr [ebx*4+10008370h]
10006d12 47              inc     edi
10006d13 88440e34        mov     byte ptr [esi+ecx+34h],al
10006d17 8b049d70830010  mov     eax,dword ptr [ebx*4+10008370h]
10006d1e c744063801000000 mov     dword ptr [esi+eax+38h],1
10006d26 8bb540e5ffff    mov     esi,dword ptr [ebp-1AC0h]
10006d2c e9a9030000      jmp     100070da
10006d31 8bb540e5ffff    mov     esi,dword ptr [ebp-1AC0h]
10006d37 e9a8030000      jmp     100070e4
10006d3c 8b8530e5ffff    mov     eax,dword ptr [ebp-1AD0h]
10006d42 8b048570830010  mov     eax,dword ptr [eax*4+10008370h]
10006d49 f644060480      test    byte ptr [esi+eax+4],80h
10006d4e 0f8455030000    je      100070a9
10006d54 8b9544e5ffff    mov     edx,dword ptr [ebp-1ABCh]
10006d5a 33f6            xor     esi,esi
10006d5c 89b538e5ffff    mov     dword ptr [ebp-1AC8h],esi
10006d62 84db            test    bl,bl
10006d64 0f85e1000000    jne     10006e4b
10006d6a 8bc2            mov     eax,edx
10006d6c 89853ce5ffff    mov     dword ptr [ebp-1AC4h],eax
10006d72 397510          cmp     dword ptr [ebp+10h],esi
10006d75 0f8691030000    jbe     1000710c
10006d7b 33c9            xor     ecx,ecx
10006d7d 2bc2            sub     eax,edx
10006d7f 8b953ce5ffff    mov     edx,dword ptr [ebp-1AC4h]
10006d85 8d9d48e5ffff    lea     ebx,[ebp-1AB8h]
10006d8b 898d40e5ffff    mov     dword ptr [ebp-1AC0h],ecx
10006d91 3b4510          cmp     eax,dword ptr [ebp+10h]
10006d94 7344            jae     10006dda
10006d96 8a0a            mov     cl,byte ptr [edx]
10006d98 42              inc     edx
10006d99 40              inc     eax
10006d9a 888d23e5ffff    mov     byte ptr [ebp-1ADDh],cl
10006da0 80f90a          cmp     cl,0Ah
10006da3 8b8d40e5ffff    mov     ecx,dword ptr [ebp-1AC0h]
10006da9 89953ce5ffff    mov     dword ptr [ebp-1AC4h],edx
10006daf 750b            jne     10006dbc
10006db1 ff852ce5ffff    inc     dword ptr [ebp-1AD4h]
10006db7 c6030d          mov     byte ptr [ebx],0Dh
10006dba 43              inc     ebx
10006dbb 41              inc     ecx
10006dbc 8a9523e5ffff    mov     dl,byte ptr [ebp-1ADDh]
10006dc2 8813            mov     byte ptr [ebx],dl
10006dc4 8b953ce5ffff    mov     edx,dword ptr [ebp-1AC4h]
10006dca 43              inc     ebx
10006dcb 41              inc     ecx
10006dcc 898d40e5ffff    mov     dword ptr [ebp-1AC0h],ecx
10006dd2 81f9ff130000    cmp     ecx,13FFh
10006dd8 72b7            jb      10006d91
10006dda 8b8d14e5ffff    mov     ecx,dword ptr [ebp-1AECh]
10006de0 8d8548e5ffff    lea     eax,[ebp-1AB8h]
10006de6 2bd8            sub     ebx,eax
10006de8 6a00            push    0
10006dea 8d8528e5ffff    lea     eax,[ebp-1AD8h]
10006df0 50              push    eax
10006df1 53              push    ebx
10006df2 8d8548e5ffff    lea     eax,[ebp-1AB8h]
10006df8 50              push    eax
10006df9 8b8530e5ffff    mov     eax,dword ptr [ebp-1AD0h]
10006dff 8b048570830010  mov     eax,dword ptr [eax*4+10008370h]
10006e06 ff3401          push    dword ptr [ecx+eax]
10006e09 ff15bca00010    call    dword ptr ds:[1000A0BCh]
10006e0f 85c0            test    eax,eax
10006e11 0f84bb020000    je      100070d2
10006e17 03bd28e5ffff    add     edi,dword ptr [ebp-1AD8h]
10006e1d 8b9544e5ffff    mov     edx,dword ptr [ebp-1ABCh]
10006e23 399d28e5ffff    cmp     dword ptr [ebp-1AD8h],ebx
10006e29 0f8cb1020000    jl      100070e0
10006e2f 8b853ce5ffff    mov     eax,dword ptr [ebp-1AC4h]
10006e35 2bc2            sub     eax,edx
10006e37 3b4510          cmp     eax,dword ptr [ebp+10h]
10006e3a 8b853ce5ffff    mov     eax,dword ptr [ebp-1AC4h]
10006e40 0f8235ffffff    jb      10006d7b
10006e46 e995020000      jmp     100070e0
10006e4b 8bca            mov     ecx,edx
10006e4d 80fb02          cmp     bl,2
10006e50 0f85fe000000    jne     10006f54
10006e56 898d40e5ffff    mov     dword ptr [ebp-1AC0h],ecx
10006e5c 397510          cmp     dword ptr [ebp+10h],esi
10006e5f 0f86a7020000    jbe     1000710c
10006e65 c78518e5ffff0a000000 mov dword ptr [ebp-1AE8h],0Ah
10006e6f 83a51ce5ffff00  and     dword ptr [ebp-1AE4h],0
10006e76 8bbd2ce5ffff    mov     edi,dword ptr [ebp-1AD4h]
10006e7c 8bc1            mov     eax,ecx
10006e7e 2bc2            sub     eax,edx
10006e80 8b951ce5ffff    mov     edx,dword ptr [ebp-1AE4h]
10006e86 8d9d48e5ffff    lea     ebx,[ebp-1AB8h]
10006e8c 3b4510          cmp     eax,dword ptr [ebp+10h]
10006e8f 733e            jae     10006ecf
10006e91 0fb731          movzx   esi,word ptr [ecx]
10006e94 83c102          add     ecx,2
10006e97 83c002          add     eax,2
10006e9a 898d40e5ffff    mov     dword ptr [ebp-1AC0h],ecx
10006ea0 663bb518e5ffff  cmp     si,word ptr [ebp-1AE8h]
10006ea7 7515            jne     10006ebe
10006ea9 6a0d            push    0Dh
10006eab 59              pop     ecx
10006eac 66890b          mov     word ptr [ebx],cx
10006eaf 8b8d40e5ffff    mov     ecx,dword ptr [ebp-1AC0h]
10006eb5 83c702          add     edi,2
10006eb8 83c302          add     ebx,2
10006ebb 83c202          add     edx,2
10006ebe 668933          mov     word ptr [ebx],si
10006ec1 83c202          add     edx,2
10006ec4 83c302          add     ebx,2
10006ec7 81fafe130000    cmp     edx,13FEh
10006ecd 72bd            jb      10006e8c
10006ecf 8b8d14e5ffff    mov     ecx,dword ptr [ebp-1AECh]
10006ed5 8d8548e5ffff    lea     eax,[ebp-1AB8h]
10006edb 2bd8            sub     ebx,eax
10006edd 6a00            push    0
10006edf 8d8528e5ffff    lea     eax,[ebp-1AD8h]
10006ee5 50              push    eax
10006ee6 53              push    ebx
10006ee7 8d8548e5ffff    lea     eax,[ebp-1AB8h]
10006eed 50              push    eax
10006eee 8b8530e5ffff    mov     eax,dword ptr [ebp-1AD0h]
10006ef4 89bd2ce5ffff    mov     dword ptr [ebp-1AD4h],edi
10006efa 8b048570830010  mov     eax,dword ptr [eax*4+10008370h]
10006f01 ff3401          push    dword ptr [ecx+eax]
10006f04 ff15bca00010    call    dword ptr ds:[1000A0BCh]
10006f0a 8bb538e5ffff    mov     esi,dword ptr [ebp-1AC8h]
10006f10 8bbd3ce5ffff    mov     edi,dword ptr [ebp-1AC4h]
10006f16 85c0            test    eax,eax
10006f18 0f84b4010000    je      100070d2
10006f1e 03bd28e5ffff    add     edi,dword ptr [ebp-1AD8h]
10006f24 8b9544e5ffff    mov     edx,dword ptr [ebp-1ABCh]
10006f2a 89bd3ce5ffff    mov     dword ptr [ebp-1AC4h],edi
10006f30 399d28e5ffff    cmp     dword ptr [ebp-1AD8h],ebx
10006f36 0f8ca4010000    jl      100070e0
10006f3c 8b8d40e5ffff    mov     ecx,dword ptr [ebp-1AC0h]
10006f42 8bc1            mov     eax,ecx
10006f44 2bc2            sub     eax,edx
10006f46 3b4510          cmp     eax,dword ptr [ebp+10h]
10006f49 0f8220ffffff    jb      10006e6f
10006f4f e98c010000      jmp     100070e0
10006f54 8b5d10          mov     ebx,dword ptr [ebp+10h]
10006f57 898d24e5ffff    mov     dword ptr [ebp-1ADCh],ecx
10006f5d 85db            test    ebx,ebx
10006f5f 0f84a7010000    je      1000710c
10006f65 c78518e5ffff0a000000 mov dword ptr [ebp-1AE8h],0Ah
10006f6f 83a51ce5ffff00  and     dword ptr [ebp-1AE4h],0
10006f76 8bb524e5ffff    mov     esi,dword ptr [ebp-1ADCh]
10006f7c 2bca            sub     ecx,edx
10006f7e 8b951ce5ffff    mov     edx,dword ptr [ebp-1AE4h]
10006f84 8d8548f9ffff    lea     eax,[ebp-6B8h]
10006f8a 3bcb            cmp     ecx,ebx
10006f8c 733b            jae     10006fc9
10006f8e 0fb73e          movzx   edi,word ptr [esi]
10006f91 83c602          add     esi,2
10006f94 83c102          add     ecx,2
10006f97 89b524e5ffff    mov     dword ptr [ebp-1ADCh],esi
10006f9d 663bbd18e5ffff  cmp     di,word ptr [ebp-1AE8h]
10006fa4 7512            jne     10006fb8
10006fa6 6a0d            push    0Dh
10006fa8 5e              pop     esi
10006fa9 668930          mov     word ptr [eax],si
10006fac 8bb524e5ffff    mov     esi,dword ptr [ebp-1ADCh]
10006fb2 83c002          add     eax,2
10006fb5 83c202          add     edx,2
10006fb8 668938          mov     word ptr [eax],di
10006fbb 83c202          add     edx,2
10006fbe 83c002          add     eax,2
10006fc1 81faa8060000    cmp     edx,6A8h
10006fc7 72c1            jb      10006f8a
10006fc9 33f6            xor     esi,esi
10006fcb 56              push    esi
10006fcc 56              push    esi
10006fcd 68550d0000      push    0D55h
10006fd2 8d8df0ebffff    lea     ecx,[ebp-1410h]
10006fd8 51              push    ecx
10006fd9 8d8d48f9ffff    lea     ecx,[ebp-6B8h]
10006fdf 2bc1            sub     eax,ecx
10006fe1 99              cdq
10006fe2 2bc2            sub     eax,edx
10006fe4 d1f8            sar     eax,1
10006fe6 50              push    eax
10006fe7 8bc1            mov     eax,ecx
10006fe9 50              push    eax
10006fea 56              push    esi
10006feb 68e9fd0000      push    0FDE9h
10006ff0 ff1594a00010    call    dword ptr ds:[1000A094h]
10006ff6 8bb538e5ffff    mov     esi,dword ptr [ebp-1AC8h]
10006ffc 8bbd3ce5ffff    mov     edi,dword ptr [ebp-1AC4h]
10007002 898534e5ffff    mov     dword ptr [ebp-1ACCh],eax
10007008 85c0            test    eax,eax
1000700a 0f84c2000000    je      100070d2
10007010 33c9            xor     ecx,ecx
10007012 898d40e5ffff    mov     dword ptr [ebp-1AC0h],ecx
10007018 6a00            push    0
1000701a 2bc1            sub     eax,ecx
1000701c 8d9528e5ffff    lea     edx,[ebp-1AD8h]
10007022 52              push    edx
10007023 50              push    eax
10007024 8d85f0ebffff    lea     eax,[ebp-1410h]
1000702a 03c1            add     eax,ecx
1000702c 8b8d14e5ffff    mov     ecx,dword ptr [ebp-1AECh]
10007032 50              push    eax
10007033 8b8530e5ffff    mov     eax,dword ptr [ebp-1AD0h]
10007039 8b048570830010  mov     eax,dword ptr [eax*4+10008370h]
10007040 ff3401          push    dword ptr [ecx+eax]
10007043 ff15bca00010    call    dword ptr ds:[1000A0BCh]
10007049 85c0            test    eax,eax
1000704b 741e            je      1000706b
1000704d 8b8d40e5ffff    mov     ecx,dword ptr [ebp-1AC0h]
10007053 038d28e5ffff    add     ecx,dword ptr [ebp-1AD8h]
10007059 8b8534e5ffff    mov     eax,dword ptr [ebp-1ACCh]
1000705f 898d40e5ffff    mov     dword ptr [ebp-1AC0h],ecx
10007065 3bc1            cmp     eax,ecx
10007067 7faf            jg      10007018
10007069 eb1a            jmp     10007085
1000706b ff1530a00010    call    dword ptr ds:[1000A030h]
10007071 8b8d40e5ffff    mov     ecx,dword ptr [ebp-1AC0h]
10007077 8bf0            mov     esi,eax
10007079 8b8534e5ffff    mov     eax,dword ptr [ebp-1ACCh]
1000707f 89b538e5ffff    mov     dword ptr [ebp-1AC8h],esi
10007085 3bc1            cmp     eax,ecx
10007087 7f51            jg      100070da
10007089 8b8d24e5ffff    mov     ecx,dword ptr [ebp-1ADCh]
1000708f 8b9544e5ffff    mov     edx,dword ptr [ebp-1ABCh]
10007095 8bf9            mov     edi,ecx
10007097 2bfa            sub     edi,edx
10007099 89bd3ce5ffff    mov     dword ptr [ebp-1AC4h],edi
1000709f 3bfb            cmp     edi,ebx
100070a1 0f82c8feffff    jb      10006f6f
100070a7 eb37            jmp     100070e0
100070a9 6a00            push    0
100070ab 8d8d28e5ffff    lea     ecx,[ebp-1AD8h]
100070b1 51              push    ecx
100070b2 ff7510          push    dword ptr [ebp+10h]
100070b5 ffb544e5ffff    push    dword ptr [ebp-1ABCh]
100070bb ff3406          push    dword ptr [esi+eax]
100070be ff15bca00010    call    dword ptr ds:[1000A0BCh]
100070c4 85c0            test    eax,eax
100070c6 740a            je      100070d2
100070c8 8bbd28e5ffff    mov     edi,dword ptr [ebp-1AD8h]
100070ce 33f6            xor     esi,esi
100070d0 eb08            jmp     100070da
100070d2 ff1530a00010    call    dword ptr ds:[1000A030h]
100070d8 8bf0            mov     esi,eax
100070da 8b9544e5ffff    mov     edx,dword ptr [ebp-1ABCh]
100070e0 85ff            test    edi,edi
100070e2 7563            jne     10007147
100070e4 85f6            test    esi,esi
100070e6 7424            je      1000710c
100070e8 6a05            push    5
100070ea 5b              pop     ebx
100070eb 3bf3            cmp     esi,ebx
100070ed 7514            jne     10007103
100070ef e8eaaaffff      call    10001bde
100070f4 c70009000000    mov     dword ptr [eax],9
100070fa e8abaaffff      call    10001baa
100070ff 8918            mov     dword ptr [eax],ebx
10007101 eb3f            jmp     10007142
10007103 56              push    esi
10007104 e8b4aaffff      call    10001bbd
10007109 59              pop     ecx
1000710a eb36            jmp     10007142
1000710c 8b8530e5ffff    mov     eax,dword ptr [ebp-1AD0h]
10007112 8b8d14e5ffff    mov     ecx,dword ptr [ebp-1AECh]
10007118 8b048570830010  mov     eax,dword ptr [eax*4+10008370h]
1000711f f644010440      test    byte ptr [ecx+eax+4],40h
10007124 7409            je      1000712f
10007126 803a1a          cmp     byte ptr [edx],1Ah
10007129 7504            jne     1000712f
1000712b 33c0            xor     eax,eax
1000712d eb20            jmp     1000714f
1000712f e8aaaaffff      call    10001bde
10007134 c7001c000000    mov     dword ptr [eax],1Ch
1000713a e86baaffff      call    10001baa
1000713f 832000          and     dword ptr [eax],0
10007142 83c8ff          or      eax,0FFFFFFFFh
10007145 eb08            jmp     1000714f
10007147 2bbd2ce5ffff    sub     edi,dword ptr [ebp-1AD4h]
1000714d 8bc7            mov     eax,edi
1000714f 5e              pop     esi
10007150 5b              pop     ebx
10007151 8b4dfc          mov     ecx,dword ptr [ebp-4]
10007154 33cd            xor     ecx,ebp
10007156 5f              pop     edi
10007157 e8cca4ffff      call    10001628
1000715c c9              leave
1000715d c3              ret
1000715e 55              push    ebp
1000715f 8bec            mov     ebp,esp
10007161 56              push    esi
10007162 8b7508          mov     esi,dword ptr [ebp+8]
10007165 57              push    edi
10007166 83cfff          or      edi,0FFFFFFFFh
10007169 85f6            test    esi,esi
1000716b 7514            jne     10007181
1000716d e86caaffff      call    10001bde
10007172 c70016000000    mov     dword ptr [eax],16h
10007178 e883c4ffff      call    10003600
1000717d 0bc7            or      eax,edi
1000717f eb45            jmp     100071c6
10007181 f6460c83        test    byte ptr [esi+0Ch],83h
10007185 7439            je      100071c0
10007187 56              push    esi
10007188 e825f0ffff      call    100061b2
1000718d 56              push    esi
1000718e 8bf8            mov     edi,eax
10007190 e8ed050000      call    10007782
10007195 56              push    esi
10007196 e859efffff      call    100060f4
1000719b 50              push    eax
1000719c e87d040000      call    1000761e
100071a1 83c410          add     esp,10h
100071a4 85c0            test    eax,eax
100071a6 7905            jns     100071ad
100071a8 83cfff          or      edi,0FFFFFFFFh
100071ab eb13            jmp     100071c0
100071ad 837e1c00        cmp     dword ptr [esi+1Ch],0
100071b1 740d            je      100071c0
100071b3 ff761c          push    dword ptr [esi+1Ch]
100071b6 e827a5ffff      call    100016e2
100071bb 83661c00        and     dword ptr [esi+1Ch],0
100071bf 59              pop     ecx
100071c0 83660c00        and     dword ptr [esi+0Ch],0
100071c4 8bc7            mov     eax,edi
100071c6 5f              pop     edi
100071c7 5e              pop     esi
100071c8 5d              pop     ebp
100071c9 c3              ret
100071ca 6a0c            push    0Ch
100071cc 6828df0010      push    1000DF28h
100071d1 e8babeffff      call    10003090
100071d6 83cfff          or      edi,0FFFFFFFFh
100071d9 897de4          mov     dword ptr [ebp-1Ch],edi
100071dc 33c0            xor     eax,eax
100071de 8b7508          mov     esi,dword ptr [ebp+8]
100071e1 85f6            test    esi,esi
100071e3 0f95c0          setne   al
100071e6 85c0            test    eax,eax
100071e8 7518            jne     10007202
100071ea e8efa9ffff      call    10001bde
100071ef c70016000000    mov     dword ptr [eax],16h
100071f5 e806c4ffff      call    10003600
100071fa 8bc7            mov     eax,edi
100071fc e8d4beffff      call    100030d5
10007201 c3              ret
10007202 f6460c40        test    byte ptr [esi+0Ch],40h
10007206 7406            je      1000720e
10007208 83660c00        and     dword ptr [esi+0Ch],0
1000720c ebec            jmp     100071fa
1000720e 56              push    esi
1000720f e888d7ffff      call    1000499c
10007214 59              pop     ecx
10007215 8365fc00        and     dword ptr [ebp-4],0
10007219 56              push    esi
1000721a e83fffffff      call    1000715e
1000721f 59              pop     ecx
10007220 8bf8            mov     edi,eax
10007222 897de4          mov     dword ptr [ebp-1Ch],edi
10007225 c745fcfeffffff  mov     dword ptr [ebp-4],0FFFFFFFEh
1000722c e808000000      call    10007239
10007231 ebc7            jmp     100071fa
10007233 8b7508          mov     esi,dword ptr [ebp+8]
10007236 8b7de4          mov     edi,dword ptr [ebp-1Ch]
10007239 56              push    esi
1000723a e8ccd7ffff      call    10004a0b
1000723f 59              pop     ecx
10007240 c3              ret
10007241 cc              int     3
10007242 cc              int     3
10007243 cc              int     3
10007244 cc              int     3
10007245 cc              int     3
10007246 cc              int     3
10007247 cc              int     3
10007248 cc              int     3
10007249 cc              int     3
1000724a cc              int     3
1000724b cc              int     3
1000724c cc              int     3
1000724d cc              int     3
1000724e cc              int     3
1000724f cc              int     3
10007250 51              push    ecx
10007251 8d4c2404        lea     ecx,[esp+4]
10007255 2bc8            sub     ecx,eax
10007257 1bc0            sbb     eax,eax
10007259 f7d0            not     eax
1000725b 23c8            and     ecx,eax
1000725d 8bc4            mov     eax,esp
1000725f 2500f0ffff      and     eax,0FFFFF000h
10007264 3bc8            cmp     ecx,eax
10007266 720a            jb      10007272
10007268 8bc1            mov     eax,ecx
1000726a 59              pop     ecx
1000726b 94              xchg    eax,esp
1000726c 8b00            mov     eax,dword ptr [eax]
1000726e 890424          mov     dword ptr [esp],eax
10007271 c3              ret
10007272 2d00100000      sub     eax,1000h
10007277 8500            test    dword ptr [eax],eax
10007279 ebe9            jmp     10007264
1000727b 6a08            push    8
1000727d 6848df0010      push    1000DF48h
10007282 e809beffff      call    10003090
10007287 8b7d08          mov     edi,dword ptr [ebp+8]
1000728a 8bc7            mov     eax,edi
1000728c c1f805          sar     eax,5
1000728f 8bf7            mov     esi,edi
10007291 83e61f          and     esi,1Fh
10007294 c1e606          shl     esi,6
10007297 03348570830010  add     esi,dword ptr [eax*4+10008370h]
1000729e 837e0800        cmp     dword ptr [esi+8],0
100072a2 7530            jne     100072d4
100072a4 6a0a            push    0Ah
100072a6 e890c3ffff      call    1000363b
100072ab 59              pop     ecx
100072ac 8365fc00        and     dword ptr [ebp-4],0
100072b0 837e0800        cmp     dword ptr [esi+8],0
100072b4 7512            jne     100072c8
100072b6 68a00f0000      push    0FA0h
100072bb 8d460c          lea     eax,[esi+0Ch]
100072be 50              push    eax
100072bf ff1570a00010    call    dword ptr ds:[1000A070h]
100072c5 ff4608          inc     dword ptr [esi+8]
100072c8 c745fcfeffffff  mov     dword ptr [ebp-4],0FFFFFFFEh
100072cf e82a000000      call    100072fe
100072d4 8bc7            mov     eax,edi
100072d6 c1f805          sar     eax,5
100072d9 83e71f          and     edi,1Fh
100072dc c1e706          shl     edi,6
100072df 8b048570830010  mov     eax,dword ptr [eax*4+10008370h]
100072e6 83c00c          add     eax,0Ch
100072e9 03c7            add     eax,edi
100072eb 50              push    eax
100072ec ff15c4a00010    call    dword ptr ds:[1000A0C4h]
100072f2 33c0            xor     eax,eax
100072f4 40              inc     eax
100072f5 e8dbbdffff      call    100030d5
100072fa c3              ret
100072fb 8b7d08          mov     edi,dword ptr [ebp+8]
100072fe 6a0a            push    0Ah
10007300 e89ac4ffff      call    1000379f
10007305 59              pop     ecx
10007306 c3              ret
10007307 55              push    ebp
10007308 8bec            mov     ebp,esp
1000730a 8b4508          mov     eax,dword ptr [ebp+8]
1000730d 56              push    esi
1000730e 57              push    edi
1000730f 85c0            test    eax,eax
10007311 7860            js      10007373
10007313 3b05349e0010    cmp     eax,dword ptr ds:[10009E34h]
10007319 7358            jae     10007373
1000731b 8bf8            mov     edi,eax
1000731d c1ff05          sar     edi,5
10007320 8bf0            mov     esi,eax
10007322 8b0cbd70830010  mov     ecx,dword ptr [edi*4+10008370h]
10007329 83e61f          and     esi,1Fh
1000732c c1e606          shl     esi,6
1000732f f6440e0401      test    byte ptr [esi+ecx+4],1
10007334 743d            je      10007373
10007336 833c0eff        cmp     dword ptr [esi+ecx],0FFFFFFFFh
1000733a 7437            je      10007373
1000733c 833d8085001001  cmp     dword ptr ds:[10008580h],1
10007343 751f            jne     10007364
10007345 33c9            xor     ecx,ecx
10007347 2bc1            sub     eax,ecx
10007349 7410            je      1000735b
1000734b 48              dec     eax
1000734c 7408            je      10007356
1000734e 48              dec     eax
1000734f 7513            jne     10007364
10007351 51              push    ecx
10007352 6af4            push    0FFFFFFF4h
10007354 eb08            jmp     1000735e
10007356 51              push    ecx
10007357 6af5            push    0FFFFFFF5h
10007359 eb03            jmp     1000735e
1000735b 51              push    ecx
1000735c 6af6            push    0FFFFFFF6h
1000735e ff1504a10010    call    dword ptr ds:[1000A104h]
10007364 8b04bd70830010  mov     eax,dword ptr [edi*4+10008370h]
1000736b 830c06ff        or      dword ptr [esi+eax],0FFFFFFFFh
1000736f 33c0            xor     eax,eax
10007371 eb16            jmp     10007389
10007373 e866a8ffff      call    10001bde
10007378 c70009000000    mov     dword ptr [eax],9
1000737e e827a8ffff      call    10001baa
10007383 832000          and     dword ptr [eax],0
10007386 83c8ff          or      eax,0FFFFFFFFh
10007389 5f              pop     edi
1000738a 5e              pop     esi
1000738b 5d              pop     ebp
1000738c c3              ret
1000738d 55              push    ebp
1000738e 8bec            mov     ebp,esp
10007390 8b4d08          mov     ecx,dword ptr [ebp+8]
10007393 83f9fe          cmp     ecx,0FFFFFFFEh
10007396 7515            jne     100073ad
10007398 e80da8ffff      call    10001baa
1000739d 832000          and     dword ptr [eax],0
100073a0 e839a8ffff      call    10001bde
100073a5 c70009000000    mov     dword ptr [eax],9
100073ab eb42            jmp     100073ef
100073ad 85c9            test    ecx,ecx
100073af 7826            js      100073d7
100073b1 3b0d349e0010    cmp     ecx,dword ptr ds:[10009E34h]
100073b7 731e            jae     100073d7
100073b9 8bc1            mov     eax,ecx
100073bb c1f805          sar     eax,5
100073be 83e11f          and     ecx,1Fh
100073c1 8b048570830010  mov     eax,dword ptr [eax*4+10008370h]
100073c8 c1e106          shl     ecx,6
100073cb f644080401      test    byte ptr [eax+ecx+4],1
100073d0 7405            je      100073d7
100073d2 8b0408          mov     eax,dword ptr [eax+ecx]
100073d5 5d              pop     ebp
100073d6 c3              ret
100073d7 e8cea7ffff      call    10001baa
100073dc 832000          and     dword ptr [eax],0
100073df e8faa7ffff      call    10001bde
100073e4 c70009000000    mov     dword ptr [eax],9
100073ea e811c2ffff      call    10003600
100073ef 83c8ff          or      eax,0FFFFFFFFh
100073f2 5d              pop     ebp
100073f3 c3              ret
100073f4 55              push    ebp
100073f5 8bec            mov     ebp,esp
100073f7 8b4d08          mov     ecx,dword ptr [ebp+8]
100073fa 8bc1            mov     eax,ecx
100073fc 83e11f          and     ecx,1Fh
100073ff c1f805          sar     eax,5
10007402 c1e106          shl     ecx,6
10007405 8b048570830010  mov     eax,dword ptr [eax*4+10008370h]
1000740c 83c10c          add     ecx,0Ch
1000740f 03c1            add     eax,ecx
10007411 50              push    eax
10007412 ff15c8a00010    call    dword ptr ds:[1000A0C8h]
10007418 5d              pop     ebp
10007419 c3              ret
1000741a 55              push    ebp
1000741b 8bec            mov     ebp,esp
1000741d 83ec10          sub     esp,10h
10007420 ff750c          push    dword ptr [ebp+0Ch]
10007423 8d4df0          lea     ecx,[ebp-10h]
10007426 e8f3c6ffff      call    10003b1e
1000742b 8b45f0          mov     eax,dword ptr [ebp-10h]
1000742e 0fb64d08        movzx   ecx,byte ptr [ebp+8]
10007432 8b8090000000    mov     eax,dword ptr [eax+90h]
10007438 0fb70448        movzx   eax,word ptr [eax+ecx*2]
1000743c 2500800000      and     eax,8000h
10007441 807dfc00        cmp     byte ptr [ebp-4],0
10007445 7407            je      1000744e
10007447 8b4df8          mov     ecx,dword ptr [ebp-8]
1000744a 836170fd        and     dword ptr [ecx+70h],0FFFFFFFDh
1000744e c9              leave
1000744f c3              ret
10007450 55              push    ebp
10007451 8bec            mov     ebp,esp
10007453 6a00            push    0
10007455 ff7508          push    dword ptr [ebp+8]
10007458 e8bdffffff      call    1000741a
1000745d 59              pop     ecx
1000745e 59              pop     ecx
1000745f 5d              pop     ebp
10007460 c3              ret
10007461 55              push    ebp
10007462 8bec            mov     ebp,esp
10007464 51              push    ecx
10007465 51              push    ecx
10007466 56              push    esi
10007467 8b7508          mov     esi,dword ptr [ebp+8]
1000746a 57              push    edi
1000746b 56              push    esi
1000746c e81cffffff      call    1000738d
10007471 83cfff          or      edi,0FFFFFFFFh
10007474 59              pop     ecx
10007475 3bc7            cmp     eax,edi
10007477 7511            jne     1000748a
10007479 e860a7ffff      call    10001bde
1000747e c70009000000    mov     dword ptr [eax],9
10007484 8bc7            mov     eax,edi
10007486 8bd7            mov     edx,edi
10007488 eb44            jmp     100074ce
1000748a ff7514          push    dword ptr [ebp+14h]
1000748d 8d4df8          lea     ecx,[ebp-8]
10007490 51              push    ecx
10007491 ff7510          push    dword ptr [ebp+10h]
10007494 ff750c          push    dword ptr [ebp+0Ch]
10007497 50              push    eax
10007498 ff1508a10010    call    dword ptr ds:[1000A108h]
1000749e 85c0            test    eax,eax
100074a0 750f            jne     100074b1
100074a2 ff1530a00010    call    dword ptr ds:[1000A030h]
100074a8 50              push    eax
100074a9 e80fa7ffff      call    10001bbd
100074ae 59              pop     ecx
100074af ebd3            jmp     10007484
100074b1 8bc6            mov     eax,esi
100074b3 c1f805          sar     eax,5
100074b6 83e61f          and     esi,1Fh
100074b9 8b048570830010  mov     eax,dword ptr [eax*4+10008370h]
100074c0 c1e606          shl     esi,6
100074c3 80643004fd      and     byte ptr [eax+esi+4],0FDh
100074c8 8b45f8          mov     eax,dword ptr [ebp-8]
100074cb 8b55fc          mov     edx,dword ptr [ebp-4]
100074ce 5f              pop     edi
100074cf 5e              pop     esi
100074d0 c9              leave
100074d1 c3              ret
100074d2 55              push    ebp
100074d3 8bec            mov     ebp,esp
100074d5 83ec10          sub     esp,10h
100074d8 53              push    ebx
100074d9 56              push    esi
100074da 8b750c          mov     esi,dword ptr [ebp+0Ch]
100074dd 85f6            test    esi,esi
100074df 7418            je      100074f9
100074e1 8b5d10          mov     ebx,dword ptr [ebp+10h]
100074e4 85db            test    ebx,ebx
100074e6 7411            je      100074f9
100074e8 803e00          cmp     byte ptr [esi],0
100074eb 7512            jne     100074ff
100074ed 8b4508          mov     eax,dword ptr [ebp+8]
100074f0 85c0            test    eax,eax
100074f2 7405            je      100074f9
100074f4 33c9            xor     ecx,ecx
100074f6 668908          mov     word ptr [eax],cx
100074f9 33c0            xor     eax,eax
100074fb 5e              pop     esi
100074fc 5b              pop     ebx
100074fd c9              leave
100074fe c3              ret
100074ff 57              push    edi
10007500 ff7514          push    dword ptr [ebp+14h]
10007503 8d4df0          lea     ecx,[ebp-10h]
10007506 e813c6ffff      call    10003b1e
1000750b 8b45f0          mov     eax,dword ptr [ebp-10h]
1000750e 83b8a800000000  cmp     dword ptr [eax+0A8h],0
10007515 7515            jne     1000752c
10007517 8b4d08          mov     ecx,dword ptr [ebp+8]
1000751a 85c9            test    ecx,ecx
1000751c 7406            je      10007524
1000751e 0fb606          movzx   eax,byte ptr [esi]
10007521 668901          mov     word ptr [ecx],ax
10007524 33ff            xor     edi,edi
10007526 47              inc     edi
10007527 e984000000      jmp     100075b0
1000752c 8d45f0          lea     eax,[ebp-10h]
1000752f 50              push    eax
10007530 0fb606          movzx   eax,byte ptr [esi]
10007533 50              push    eax
10007534 e8e1feffff      call    1000741a
10007539 59              pop     ecx
1000753a 59              pop     ecx
1000753b 85c0            test    eax,eax
1000753d 7440            je      1000757f
1000753f 8b7df0          mov     edi,dword ptr [ebp-10h]
10007542 837f7401        cmp     dword ptr [edi+74h],1
10007546 7e27            jle     1000756f
10007548 3b5f74          cmp     ebx,dword ptr [edi+74h]
1000754b 7c25            jl      10007572
1000754d 33c0            xor     eax,eax
1000754f 394508          cmp     dword ptr [ebp+8],eax
10007552 0f95c0          setne   al
10007555 50              push    eax
10007556 ff7508          push    dword ptr [ebp+8]
10007559 ff7774          push    dword ptr [edi+74h]
1000755c 56              push    esi
1000755d 6a09            push    9
1000755f ff7704          push    dword ptr [edi+4]
10007562 ff1564a00010    call    dword ptr ds:[1000A064h]
10007568 8b7df0          mov     edi,dword ptr [ebp-10h]
1000756b 85c0            test    eax,eax
1000756d 750b            jne     1000757a
1000756f 3b5f74          cmp     ebx,dword ptr [edi+74h]
10007572 722e            jb      100075a2
10007574 807e0100        cmp     byte ptr [esi+1],0
10007578 7428            je      100075a2
1000757a 8b7f74          mov     edi,dword ptr [edi+74h]
1000757d eb31            jmp     100075b0
1000757f 33c0            xor     eax,eax
10007581 394508          cmp     dword ptr [ebp+8],eax
10007584 0f95c0          setne   al
10007587 33ff            xor     edi,edi
10007589 47              inc     edi
1000758a 50              push    eax
1000758b ff7508          push    dword ptr [ebp+8]
1000758e 8b45f0          mov     eax,dword ptr [ebp-10h]
10007591 57              push    edi
10007592 56              push    esi
10007593 6a09            push    9
10007595 ff7004          push    dword ptr [eax+4]
10007598 ff1564a00010    call    dword ptr ds:[1000A064h]
1000759e 85c0            test    eax,eax
100075a0 750e            jne     100075b0
100075a2 e837a6ffff      call    10001bde
100075a7 83cfff          or      edi,0FFFFFFFFh
100075aa c7002a000000    mov     dword ptr [eax],2Ah
100075b0 807dfc00        cmp     byte ptr [ebp-4],0
100075b4 7407            je      100075bd
100075b6 8b4df8          mov     ecx,dword ptr [ebp-8]
100075b9 836170fd        and     dword ptr [ecx+70h],0FFFFFFFDh
100075bd 8bc7            mov     eax,edi
100075bf 5f              pop     edi
100075c0 e936ffffff      jmp     100074fb
100075c5 55              push    ebp
100075c6 8bec            mov     ebp,esp
100075c8 6a00            push    0
100075ca ff7510          push    dword ptr [ebp+10h]
100075cd ff750c          push    dword ptr [ebp+0Ch]
100075d0 ff7508          push    dword ptr [ebp+8]
100075d3 e8fafeffff      call    100074d2
100075d8 83c410          add     esp,10h
100075db 5d              pop     ebp
100075dc c3              ret
100075dd 55              push    ebp
100075de 8bec            mov     ebp,esp
100075e0 51              push    ecx
100075e1 a180fd0010      mov     eax,dword ptr ds:[1000FD80h]
100075e6 83f8fe          cmp     eax,0FFFFFFFEh
100075e9 750a            jne     100075f5
100075eb e8d9010000      call    100077c9
100075f0 a180fd0010      mov     eax,dword ptr ds:[1000FD80h]
100075f5 83f8ff          cmp     eax,0FFFFFFFFh
100075f8 7507            jne     10007601
100075fa b8ffff0000      mov     eax,0FFFFh
100075ff c9              leave
10007600 c3              ret
10007601 6a00            push    0
10007603 8d4dfc          lea     ecx,[ebp-4]
10007606 51              push    ecx
10007607 6a01            push    1
10007609 8d4d08          lea     ecx,[ebp+8]
1000760c 51              push    ecx
1000760d 50              push    eax
1000760e ff150ca10010    call    dword ptr ds:[1000A10Ch]
10007614 85c0            test    eax,eax
10007616 74e2            je      100075fa
10007618 668b4508        mov     ax,word ptr [ebp+8]
1000761c c9              leave
1000761d c3              ret
1000761e 6a10            push    10h
10007620 6868df0010      push    1000DF68h
10007625 e866baffff      call    10003090
1000762a 8b7508          mov     esi,dword ptr [ebp+8]
1000762d 83fefe          cmp     esi,0FFFFFFFEh
10007630 7518            jne     1000764a
10007632 e873a5ffff      call    10001baa
10007637 832000          and     dword ptr [eax],0
1000763a e89fa5ffff      call    10001bde
1000763f c70009000000    mov     dword ptr [eax],9
10007645 e995000000      jmp     100076df
1000764a 85f6            test    esi,esi
1000764c 7879            js      100076c7
1000764e 3b35349e0010    cmp     esi,dword ptr ds:[10009E34h]
10007654 7371            jae     100076c7
10007656 8bde            mov     ebx,esi
10007658 c1fb05          sar     ebx,5
1000765b 8bfe            mov     edi,esi
1000765d 83e71f          and     edi,1Fh
10007660 c1e706          shl     edi,6
10007663 8b049d70830010  mov     eax,dword ptr [ebx*4+10008370h]
1000766a 0fbe443804      movsx   eax,byte ptr [eax+edi+4]
1000766f 83e001          and     eax,1
10007672 7453            je      100076c7
10007674 56              push    esi
10007675 e801fcffff      call    1000727b
1000767a 59              pop     ecx
1000767b 8365fc00        and     dword ptr [ebp-4],0
1000767f 8b049d70830010  mov     eax,dword ptr [ebx*4+10008370h]
10007686 f644380401      test    byte ptr [eax+edi+4],1
1000768b 740b            je      10007698
1000768d 56              push    esi
1000768e e855000000      call    100076e8
10007693 59              pop     ecx
10007694 8bf8            mov     edi,eax
10007696 eb0e            jmp     100076a6
10007698 e841a5ffff      call    10001bde
1000769d c70009000000    mov     dword ptr [eax],9
100076a3 83cfff          or      edi,0FFFFFFFFh
100076a6 897de4          mov     dword ptr [ebp-1Ch],edi
100076a9 c745fcfeffffff  mov     dword ptr [ebp-4],0FFFFFFFEh
100076b0 e80a000000      call    100076bf
100076b5 8bc7            mov     eax,edi
100076b7 eb29            jmp     100076e2
100076b9 8b7508          mov     esi,dword ptr [ebp+8]
100076bc 8b7de4          mov     edi,dword ptr [ebp-1Ch]
100076bf 56              push    esi
100076c0 e82ffdffff      call    100073f4
100076c5 59              pop     ecx
100076c6 c3              ret
100076c7 e8dea4ffff      call    10001baa
100076cc 832000          and     dword ptr [eax],0
100076cf e80aa5ffff      call    10001bde
100076d4 c70009000000    mov     dword ptr [eax],9
100076da e821bfffff      call    10003600
100076df 83c8ff          or      eax,0FFFFFFFFh
100076e2 e8eeb9ffff      call    100030d5
100076e7 c3              ret
100076e8 55              push    ebp
100076e9 8bec            mov     ebp,esp
100076eb 56              push    esi
100076ec 57              push    edi
100076ed 8b7d08          mov     edi,dword ptr [ebp+8]
100076f0 57              push    edi
100076f1 e897fcffff      call    1000738d
100076f6 59              pop     ecx
100076f7 83f8ff          cmp     eax,0FFFFFFFFh
100076fa 7450            je      1000774c
100076fc a170830010      mov     eax,dword ptr ds:[10008370h]
10007701 83ff01          cmp     edi,1
10007704 7509            jne     1000770f
10007706 f6808400000001  test    byte ptr [eax+84h],1
1000770d 750b            jne     1000771a
1000770f 83ff02          cmp     edi,2
10007712 751c            jne     10007730
10007714 f6404401        test    byte ptr [eax+44h],1
10007718 7416            je      10007730
1000771a 6a02            push    2
1000771c e86cfcffff      call    1000738d
10007721 6a01            push    1
10007723 8bf0            mov     esi,eax
10007725 e863fcffff      call    1000738d
1000772a 59              pop     ecx
1000772b 59              pop     ecx
1000772c 3bc6            cmp     eax,esi
1000772e 741c            je      1000774c
10007730 57              push    edi
10007731 e857fcffff      call    1000738d
10007736 59              pop     ecx
10007737 50              push    eax
10007738 ff1510a10010    call    dword ptr ds:[1000A110h]
1000773e 85c0            test    eax,eax
10007740 750a            jne     1000774c
10007742 ff1530a00010    call    dword ptr ds:[1000A030h]
10007748 8bf0            mov     esi,eax
1000774a eb02            jmp     1000774e
1000774c 33f6            xor     esi,esi
1000774e 57              push    edi
1000774f e8b3fbffff      call    10007307
10007754 59              pop     ecx
10007755 8bcf            mov     ecx,edi
10007757 c1f905          sar     ecx,5
1000775a 83e71f          and     edi,1Fh
1000775d 8b0c8d70830010  mov     ecx,dword ptr [ecx*4+10008370h]
10007764 c1e706          shl     edi,6
10007767 c644390400      mov     byte ptr [ecx+edi+4],0
1000776c 85f6            test    esi,esi
1000776e 740c            je      1000777c
10007770 56              push    esi
10007771 e847a4ffff      call    10001bbd
10007776 59              pop     ecx
10007777 83c8ff          or      eax,0FFFFFFFFh
1000777a eb02            jmp     1000777e
1000777c 33c0            xor     eax,eax
1000777e 5f              pop     edi
1000777f 5e              pop     esi
10007780 5d              pop     ebp
10007781 c3              ret
10007782 55              push    ebp
10007783 8bec            mov     ebp,esp
10007785 56              push    esi
10007786 8b7508          mov     esi,dword ptr [ebp+8]
10007789 f6460c83        test    byte ptr [esi+0Ch],83h
1000778d 7420            je      100077af
1000778f f6460c08        test    byte ptr [esi+0Ch],8
10007793 741a            je      100077af
10007795 ff7608          push    dword ptr [esi+8]
10007798 e8459fffff      call    100016e2
1000779d 81660cf7fbffff  and     dword ptr [esi+0Ch],0FFFFFBF7h
100077a4 33c0            xor     eax,eax
100077a6 59              pop     ecx
100077a7 8906            mov     dword ptr [esi],eax
100077a9 894608          mov     dword ptr [esi+8],eax
100077ac 894604          mov     dword ptr [esi+4],eax
100077af 5e              pop     esi
100077b0 5d              pop     ebp
100077b1 c3              ret
100077b2 a180fd0010      mov     eax,dword ptr ds:[1000FD80h]
100077b7 83f8ff          cmp     eax,0FFFFFFFFh
100077ba 740c            je      100077c8
100077bc 83f8fe          cmp     eax,0FFFFFFFEh
100077bf 7407            je      100077c8
100077c1 50              push    eax
100077c2 ff1510a10010    call    dword ptr ds:[1000A110h]
100077c8 c3              ret
100077c9 33c0            xor     eax,eax
100077cb 50              push    eax
100077cc 50              push    eax
100077cd 6a03            push    3
100077cf 50              push    eax
100077d0 6a03            push    3
100077d2 6800000040      push    40000000h
100077d7 6838dc0010      push    1000DC38h
100077dc ff1514a10010    call    dword ptr ds:[1000A114h]
100077e2 a380fd0010      mov     dword ptr ds:[1000FD80h],eax
100077e7 c3              ret
100077e8 cc              int     3
100077e9 cc              int     3
100077ea cc              int     3
100077eb cc              int     3
100077ec cc              int     3
100077ed cc              int     3
100077ee cc              int     3
100077ef cc              int     3
100077f0 56              push    esi
100077f1 8b442414        mov     eax,dword ptr [esp+14h]
100077f5 0bc0            or      eax,eax
100077f7 7528            jne     10007821
100077f9 8b4c2410        mov     ecx,dword ptr [esp+10h]
100077fd 8b44240c        mov     eax,dword ptr [esp+0Ch]
10007801 33d2            xor     edx,edx
10007803 f7f1            div     eax,ecx
10007805 8bd8            mov     ebx,eax
10007807 8b442408        mov     eax,dword ptr [esp+8]
1000780b f7f1            div     eax,ecx
1000780d 8bf0            mov     esi,eax
1000780f 8bc3            mov     eax,ebx
10007811 f7642410        mul     eax,dword ptr [esp+10h]
10007815 8bc8            mov     ecx,eax
10007817 8bc6            mov     eax,esi
10007819 f7642410        mul     eax,dword ptr [esp+10h]
1000781d 03d1            add     edx,ecx
1000781f eb47            jmp     10007868
10007821 8bc8            mov     ecx,eax
10007823 8b5c2410        mov     ebx,dword ptr [esp+10h]
10007827 8b54240c        mov     edx,dword ptr [esp+0Ch]
1000782b 8b442408        mov     eax,dword ptr [esp+8]
1000782f d1e9            shr     ecx,1
10007831 d1db            rcr     ebx,1
10007833 d1ea            shr     edx,1
10007835 d1d8            rcr     eax,1
10007837 0bc9            or      ecx,ecx
10007839 75f4            jne     1000782f
1000783b f7f3            div     eax,ebx
1000783d 8bf0            mov     esi,eax
1000783f f7642414        mul     eax,dword ptr [esp+14h]
10007843 8bc8            mov     ecx,eax
10007845 8b442410        mov     eax,dword ptr [esp+10h]
10007849 f7e6            mul     eax,esi
1000784b 03d1            add     edx,ecx
1000784d 720e            jb      1000785d
1000784f 3b54240c        cmp     edx,dword ptr [esp+0Ch]
10007853 7708            ja      1000785d
10007855 720f            jb      10007866
10007857 3b442408        cmp     eax,dword ptr [esp+8]
1000785b 7609            jbe     10007866
1000785d 4e              dec     esi
1000785e 2b442410        sub     eax,dword ptr [esp+10h]
10007862 1b542414        sbb     edx,dword ptr [esp+14h]
10007866 33db            xor     ebx,ebx
10007868 2b442408        sub     eax,dword ptr [esp+8]
1000786c 1b54240c        sbb     edx,dword ptr [esp+0Ch]
10007870 f7da            neg     edx
10007872 f7d8            neg     eax
10007874 83da00          sbb     edx,0
10007877 8bca            mov     ecx,edx
10007879 8bd3            mov     edx,ebx
1000787b 8bd9            mov     ebx,ecx
1000787d 8bc8            mov     ecx,eax
1000787f 8bc6            mov     eax,esi
10007881 5e              pop     esi
10007882 c21000          ret     10h
10007885 cc              int     3
10007886 cc              int     3
10007887 cc              int     3
10007888 cc              int     3
10007889 cc              int     3
1000788a cc              int     3
1000788b cc              int     3
1000788c cc              int     3
1000788d cc              int     3
1000788e cc              int     3
1000788f cc              int     3
10007890 8b442408        mov     eax,dword ptr [esp+8]
10007894 8b4c2410        mov     ecx,dword ptr [esp+10h]
10007898 0bc8            or      ecx,eax
1000789a 8b4c240c        mov     ecx,dword ptr [esp+0Ch]
1000789e 7509            jne     100078a9
100078a0 8b442404        mov     eax,dword ptr [esp+4]
100078a4 f7e1            mul     eax,ecx
100078a6 c21000          ret     10h
100078a9 53              push    ebx
100078aa f7e1            mul     eax,ecx
100078ac 8bd8            mov     ebx,eax
100078ae 8b442408        mov     eax,dword ptr [esp+8]
100078b2 f7642414        mul     eax,dword ptr [esp+14h]
100078b6 03d8            add     ebx,eax
100078b8 8b442408        mov     eax,dword ptr [esp+8]
100078bc f7e1            mul     eax,ecx
100078be 03d3            add     edx,ebx
100078c0 5b              pop     ebx
100078c1 c21000          ret     10h
100078c4 ff2544a00010    jmp     dword ptr ds:[1000A044h]
100078ca ff25e0a00010    jmp     dword ptr ds:[1000A0E0h]
100078d0 0000            add     byte ptr [eax],al
100078d2 0000            add     byte ptr [eax],al
100078d4 0000            add     byte ptr [eax],al
100078d6 0000            add     byte ptr [eax],al
100078d8 0000            add     byte ptr [eax],al
100078da 0000            add     byte ptr [eax],al
100078dc 0000            add     byte ptr [eax],al
100078de 0000            add     byte ptr [eax],al
100078e0 0000            add     byte ptr [eax],al
100078e2 0000            add     byte ptr [eax],al
100078e4 0000            add     byte ptr [eax],al
100078e6 0000            add     byte ptr [eax],al
100078e8 0000            add     byte ptr [eax],al
100078ea 0000            add     byte ptr [eax],al
100078ec 0000            add     byte ptr [eax],al
100078ee 0000            add     byte ptr [eax],al
100078f0 0000            add     byte ptr [eax],al
100078f2 0000            add     byte ptr [eax],al
100078f4 0000            add     byte ptr [eax],al
100078f6 0000            add     byte ptr [eax],al
100078f8 0000            add     byte ptr [eax],al
100078fa 0000            add     byte ptr [eax],al
100078fc 0000            add     byte ptr [eax],al
100078fe 0000            add     byte ptr [eax],al
10007900 0000            add     byte ptr [eax],al
10007902 0000            add     byte ptr [eax],al
10007904 0000            add     byte ptr [eax],al
10007906 0000            add     byte ptr [eax],al
10007908 0000            add     byte ptr [eax],al
1000790a 0000            add     byte ptr [eax],al
1000790c 0000            add     byte ptr [eax],al
1000790e 0000            add     byte ptr [eax],al
10007910 0000            add     byte ptr [eax],al
10007912 0000            add     byte ptr [eax],al
10007914 0000            add     byte ptr [eax],al
10007916 0000            add     byte ptr [eax],al
10007918 0000            add     byte ptr [eax],al
1000791a 0000            add     byte ptr [eax],al
1000791c 0000            add     byte ptr [eax],al
1000791e 0000            add     byte ptr [eax],al
10007920 0000            add     byte ptr [eax],al
10007922 0000            add     byte ptr [eax],al
10007924 0000            add     byte ptr [eax],al
10007926 0000            add     byte ptr [eax],al
10007928 0000            add     byte ptr [eax],al
1000792a 0000            add     byte ptr [eax],al
1000792c 0000            add     byte ptr [eax],al
1000792e 0000            add     byte ptr [eax],al
10007930 0000            add     byte ptr [eax],al
10007932 0000            add     byte ptr [eax],al
10007934 0000            add     byte ptr [eax],al
10007936 0000            add     byte ptr [eax],al
10007938 0000            add     byte ptr [eax],al
1000793a 0000            add     byte ptr [eax],al
1000793c 0000            add     byte ptr [eax],al
1000793e 0000            add     byte ptr [eax],al
10007940 0000            add     byte ptr [eax],al
10007942 0000            add     byte ptr [eax],al
10007944 0000            add     byte ptr [eax],al
10007946 0000            add     byte ptr [eax],al
10007948 0000            add     byte ptr [eax],al
1000794a 0000            add     byte ptr [eax],al
1000794c 0000            add     byte ptr [eax],al
1000794e 0000            add     byte ptr [eax],al
10007950 0000            add     byte ptr [eax],al
10007952 0000            add     byte ptr [eax],al
10007954 0000            add     byte ptr [eax],al
10007956 0000            add     byte ptr [eax],al
10007958 0000            add     byte ptr [eax],al
1000795a 0000            add     byte ptr [eax],al
1000795c 0000            add     byte ptr [eax],al
1000795e 0000            add     byte ptr [eax],al
10007960 0000            add     byte ptr [eax],al
10007962 0000            add     byte ptr [eax],al
10007964 0000            add     byte ptr [eax],al
10007966 0000            add     byte ptr [eax],al
10007968 0000            add     byte ptr [eax],al
1000796a 0000            add     byte ptr [eax],al
1000796c 0000            add     byte ptr [eax],al
1000796e 0000            add     byte ptr [eax],al
10007970 0000            add     byte ptr [eax],al
10007972 0000            add     byte ptr [eax],al
10007974 0000            add     byte ptr [eax],al
10007976 0000            add     byte ptr [eax],al
10007978 0000            add     byte ptr [eax],al
1000797a 0000            add     byte ptr [eax],al
1000797c 0000            add     byte ptr [eax],al
1000797e 0000            add     byte ptr [eax],al
10007980 0000            add     byte ptr [eax],al
10007982 0000            add     byte ptr [eax],al
10007984 0000            add     byte ptr [eax],al
10007986 0000            add     byte ptr [eax],al
10007988 0000            add     byte ptr [eax],al
1000798a 0000            add     byte ptr [eax],al
1000798c 0000            add     byte ptr [eax],al
1000798e 0000            add     byte ptr [eax],al
10007990 0000            add     byte ptr [eax],al
10007992 0000            add     byte ptr [eax],al
10007994 0000            add     byte ptr [eax],al
10007996 0000            add     byte ptr [eax],al
10007998 0000            add     byte ptr [eax],al
1000799a 0000            add     byte ptr [eax],al
1000799c 0000            add     byte ptr [eax],al
1000799e 0000            add     byte ptr [eax],al
100079a0 0000            add     byte ptr [eax],al
100079a2 0000            add     byte ptr [eax],al
100079a4 0000            add     byte ptr [eax],al
100079a6 0000            add     byte ptr [eax],al
100079a8 0000            add     byte ptr [eax],al
100079aa 0000            add     byte ptr [eax],al
100079ac 0000            add     byte ptr [eax],al
100079ae 0000            add     byte ptr [eax],al
100079b0 0000            add     byte ptr [eax],al
100079b2 0000            add     byte ptr [eax],al
100079b4 0000            add     byte ptr [eax],al
100079b6 0000            add     byte ptr [eax],al
100079b8 0000            add     byte ptr [eax],al
100079ba 0000            add     byte ptr [eax],al
100079bc 0000            add     byte ptr [eax],al
100079be 0000            add     byte ptr [eax],al
100079c0 0000            add     byte ptr [eax],al
100079c2 0000            add     byte ptr [eax],al
100079c4 0000            add     byte ptr [eax],al
100079c6 0000            add     byte ptr [eax],al
100079c8 0000            add     byte ptr [eax],al
100079ca 0000            add     byte ptr [eax],al
100079cc 0000            add     byte ptr [eax],al
100079ce 0000            add     byte ptr [eax],al
100079d0 0000            add     byte ptr [eax],al
100079d2 0000            add     byte ptr [eax],al
100079d4 0000            add     byte ptr [eax],al
100079d6 0000            add     byte ptr [eax],al
100079d8 0000            add     byte ptr [eax],al
100079da 0000            add     byte ptr [eax],al
100079dc 0000            add     byte ptr [eax],al
100079de 0000            add     byte ptr [eax],al
100079e0 0000            add     byte ptr [eax],al
100079e2 0000            add     byte ptr [eax],al
100079e4 0000            add     byte ptr [eax],al
100079e6 0000            add     byte ptr [eax],al
100079e8 0000            add     byte ptr [eax],al
100079ea 0000            add     byte ptr [eax],al
100079ec 0000            add     byte ptr [eax],al
100079ee 0000            add     byte ptr [eax],al
100079f0 0000            add     byte ptr [eax],al
100079f2 0000            add     byte ptr [eax],al
100079f4 0000            add     byte ptr [eax],al
100079f6 0000            add     byte ptr [eax],al
100079f8 0000            add     byte ptr [eax],al
100079fa 0000            add     byte ptr [eax],al
100079fc 0000            add     byte ptr [eax],al
100079fe 0000            add     byte ptr [eax],al
